( RAW Data @0000-0100 DLen: 256 STAGE: External)
 _psp 256 ALLOT ( @0000 =
@0000 00 00 00 00 00 00 00 00 00 00 00 00 00 00 00 00   ................
@0010 00 00 00 00 00 00 00 00 00 00 00 00 00 00 00 00   ................
@0020 00 00 00 00 00 00 00 00 00 00 00 00 00 00 00 00   ................
@0030 00 00 00 00 00 00 00 00 00 00 00 00 00 00 00 00   ................
@0040 00 00 00 00 00 00 00 00 00 00 00 00 00 00 00 00   ................
@0050 00 00 00 00 00 00 00 00 00 00 00 00 00 00 00 00   ................
@0060 00 00 00 00 00 00 00 00 00 00 00 00 00 00 00 00   ................
@0070 00 00 00 00 00 00 00 00 00 00 00 00 00 00 00 00   ................
@0080 00 00 00 00 00 00 00 00 00 00 00 00 00 00 00 00   ................
@0090 00 00 00 00 00 00 00 00 00 00 00 00 00 00 00 00   ................
@00A0 00 00 00 00 00 00 00 00 00 00 00 00 00 00 00 00   ................
@00B0 00 00 00 00 00 00 00 00 00 00 00 00 00 00 00 00   ................
@00C0 00 00 00 00 00 00 00 00 00 00 00 00 00 00 00 00   ................
@00D0 00 00 00 00 00 00 00 00 00 00 00 00 00 00 00 00   ................
@00E0 00 00 00 00 00 00 00 00 00 00 00 00 00 00 00 00   ................
@00F0 00 00 00 00 00 00 00 00 00 00 00 00 00 00 00 00   ................
 )

( RAW @0100-0129 DLen: 41 STAGE: External)
CODE _entry
(Address @0100
   0100 FA                   CLI        
   0101 8C C8                MOV        AX, CS
   0103 8E D0                MOV        SS, AX
   0105 8E C0                MOV        ES, AX
   0107 8E D8                MOV        DS, AX
   0109 BE 29 01             MOV        SI, 0129h                        ; _startptr
   010C 8B 7C 02             MOV        DI, WORD PTR [SI+2]
   010F 47                   INC        DI
   0110 47                   INC        DI
   0111 BB 05 07             MOV        BX, 0705h
   0114 8B 1F                MOV        BX, WORD PTR [BX]
   0116 81 C3 00 01          ADD        BX, 0100h
   011A 8B E3                MOV        SP, BX
   011C 81 C3 80 00          ADD        BX, 0080h
   0120 8B EB                MOV        BP, BX
   0122 FB                   STI        
   0123 FC                   CLD        
   0124 AD                   LODSW      
   0125 8B D8                MOV        BX, AX
   0127 FF 27                JMP        WORD PTR [BX]
) CODE-END

( RAW Data @0129-012B DLen: 2 STAGE: External)
 _startptr 2 ALLOT ( @0129 =
@0129 37 09                                             7.              
 )

( RAW Data @012B-012D DLen: 2 STAGE: External)
 _useroffset 2 ALLOT ( @012B =
@012B 8A 07                                             ..              
 )

( @012D-0155 XT:0138 CFA:0138 DLen: 29 STAGE: Dictionaries)
CODE (!SET)
(Address @0138
   0138 8C DA                MOV        DX, DS
   013A B8 00 00             MOV        AX, 0
   013D 8E D8                MOV        DS, AX
   013F 5B                   POP        BX
   0140 01 DB                ADD        BX, BX
   0142 01 DB                ADD        BX, BX
   0144 FA                   CLI        
   0145 58                   POP        AX
   0146 89 07                MOV        WORD PTR [BX], AX
   0148 43                   INC        BX
   0149 43                   INC        BX
   014A 58                   POP        AX
   014B 89 07                MOV        WORD PTR [BX], AX
   014D FB                   STI        
   014E 8E DA                MOV        DS, DX
   0150 AD                   LODSW      
   0151 8B D8                MOV        BX, AX
   0153 FF 27                JMP        WORD PTR [BX]
) CODE-END

( @0155-017D XT:0160 CFA:0160 DLen: 29 STAGE: Dictionaries)
CODE (!OLD)
(Address @0160
   0160 8C DA                MOV        DX, DS
   0162 B8 00 00             MOV        AX, 0
   0165 8E D8                MOV        DS, AX
   0167 5B                   POP        BX
   0168 01 DB                ADD        BX, BX
   016A 01 DB                ADD        BX, BX
   016C FA                   CLI        
   016D 8B 07                MOV        AX, WORD PTR [BX]
   016F 43                   INC        BX
   0170 43                   INC        BX
   0171 8B 1F                MOV        BX, WORD PTR [BX]
   0173 FB                   STI        
   0174 53                   PUSH       BX
   0175 50                   PUSH       AX
   0176 8E DA                MOV        DS, DX
   0178 AD                   LODSW      
   0179 8B D8                MOV        BX, AX
   017B FF 27                JMP        WORD PTR [BX]
) CODE-END

( Data @017D-018E XT:0188 CFA:1D29 DLen: 6 STAGE: Dictionaries)
CREATE (TIME) 6 ALLOT ( @0188 =
@0188 00 00 BB FC 01 00                                 ......          
 )

( RAW @018E-01B8 DLen: 42 STAGE: External)
CODE _clock-hdl
(Address @018E
   018E 2E 81 06 8A 01 37 00  ADD        WORD PTR [CS:018Ah], 55
   0195 2E 83 16 88 01 00    ADC        WORD PTR [CS:0188h], 0
   019B 2E C7 06 93 01 37 00  MOV        WORD PTR [CS:0193h], 55
   01A2 2E FF 0E 8C 01       DEC        WORD PTR [CS:018Ch]              ; (TIME)+4
   01A7 75 0E                JNZ        01B7h                            ; .STARFLT_01B7
   01A9 2E C7 06 8C 01 0F 00  MOV        WORD PTR [CS:018Ch], 15
   01B0 2E C7 06 93 01 36 00  MOV        WORD PTR [CS:0193h], 54
 .STARFLT_01B7:
   01B7 CF                   IRET       
) CODE-END

( RAW Data @01B8-01BC DLen: 4 STAGE: External)
 _old27 4 ALLOT ( @01B8 =
@01B8 00 00 00 00                                       ....            
 )

( RAW Data @01BC-01C0 DLen: 4 STAGE: External)
 _old28 4 ALLOT ( @01BC =
@01BC 53 FF 00 F0                                       S...            
 )

( RAW Data @01C0-01C4 DLen: 4 STAGE: External)
 _old0 4 ALLOT ( @01C0 =
@01C0 E8 4E 85 01                                       .N..            
 )

( RAW @01C4-01CC DLen: 8 STAGE: External)
CODE _div0-hdl
(Address @01C4
   01C4 58                   POP        AX
   01C5 40                   INC        AX
   01C6 50                   PUSH       AX
   01C7 29 C0                SUB        AX, AX
   01C9 29 D2                SUB        DX, DX
   01CB CF                   IRET       
) CODE-END

( RAW @01C7-01CC DLen: 5 STAGE: External)
CODE _div0-hdlAlt
(Address @01C7
   01C7 29 C0                SUB        AX, AX
   01C9 29 D2                SUB        DX, DX
   01CB CF                   IRET       
) CODE-END

( RAW @01CC-01D1 DLen: 5 STAGE: External)
CODE _div0
(Address @01CC
   01CC 31 DB                XOR        BX, BX
   01CE F7 F3                DIV        BX
   01D0 C3                   RET        
) CODE-END

( RAW @01D1-01F0 DLen: 31 STAGE: External)
CODE _int0Test
(Address @01D1
   01D1 58                   POP        AX
   01D2 8B C8                MOV        CX, AX
   01D4 81 E8 D0 01          SUB        AX, 01D0h
   01D8 75 06                JNZ        01E0h                            ; .STARFLT_01E0
   01DA B8 C7 01             MOV        AX, 01C7h                        ; _div0-hdlAlt
   01DD E9 04 00             JMP        01E4h                            ; .STARFLT_01E4
 .STARFLT_01E0:
   01E0 B8 C4 01             MOV        AX, 01C4h                        ; _div0-hdl
   01E3 41                   INC        CX
 .STARFLT_01E4:
   01E4 8C DA                MOV        DX, DS
   01E6 31 DB                XOR        BX, BX
   01E8 8E DB                MOV        DS, BX
   01EA 89 07                MOV        WORD PTR [BX], AX
   01EC 8E DA                MOV        DS, DX
   01EE 51                   PUSH       CX
   01EF CF                   IRET       
) CODE-END

( @01F0-0214 XT:01FA CFA:01FA DLen: 26 STAGE: Dictionaries)
CODE SET0/
(Address @01FA
   01FA 8C D8                MOV        AX, DS
   01FC 31 DB                XOR        BX, BX
   01FE 8E DB                MOV        DS, BX
   0200 C7 07 D1 01          MOV        WORD PTR [BX], 01D1h             ; _int0Test
   0204 81 C3 02 00          ADD        BX, 2
   0208 89 07                MOV        WORD PTR [BX], AX
   020A 8E D8                MOV        DS, AX
   020C E8 BD FF             CALL       01CCh                            ; _div0
   020F AD                   LODSW      
   0210 8B D8                MOV        BX, AX
   0212 FF 27                JMP        WORD PTR [BX]
) CODE-END

( @0214-026A XT:0222 CFA:224C DLen: 72 STAGE: Dictionaries)
: (RESTORE)
 ' _old27 ( $01B8 ) 2@ OR IF 
  ' _old27 ( $01B8 ) 2@ 27 (!SET) ' _old28 ( $01BC ) 2@ 28 (!SET) ' _old0 ( $01C0 ) 
  2@ 0 (!SET) 0 0 ' _old27 ( $01B8 ) 2! 'RESTORE+ @ ?DUP IF 
   EXECUTE 
  THEN 
 THEN 
 ; 

( @026A-02B3 XT:0279 CFA:224C DLen: 58 STAGE: Dictionaries)
: AUTO-CACHE
 #CACHE @ IF 
  SYSK @ 64 * LIMIT ADDR>SEG 1+ DUP BLKCACHE ! - 0 66 U/MOD SWAP DROP #CACHE @ UMIN 
  #CACHE ! INITCACHE 
 THEN 
 ; 

( @02B3-02E6 XT:02C2 CFA:224C DLen: 36 STAGE: Dictionaries)
: AUTO-LIMIT
 LIMIT -2 NOP OVER ?DUP IF 
  UMIN 
 THEN 
 ' LIMIT ( $09E2 ) ! LIMIT - IF 
  CHANGE 
 THEN 
 ; 

( @02E6-0330 XT:02F6 CFA:224C DLen: 58 STAGE: Dictionaries)
: AUTO-SCREEN
 $0F00 AX ! 16 INTERRUPT AX C@ 7 = IF 
  $03B4 $B000 
 ELSE 
  $03D4 $B800 
 THEN 
 VIDEOMEM ! VIDEOPORT ! ; 

( @0330-0341 XT:0339 CFA:224C DLen: 8 STAGE: Dictionaries)
: COLD
 EMPTY CR _start ; 

( @0341-03C1 XT:0343 CFA:224C DLen: 126 STAGE: Words)
: _logo
 ." FORTHOUGHT (P) (C) Copyright " ." Fantasia Systems Inc. 1982,1983,1984" CR ." Version 2.52 for Binary Systems for the IBM PC" 
 CR ; 

( @03C1-03CB XT:03C3 CFA:224C DLen: 8 STAGE: Words)
: _ok
 ."  ok" ; 

( @03CB-0405 XT:03DB CFA:224C DLen: 42 STAGE: Dictionaries)
: SET-BUFFERS
 LIMIT $0820 - ADDR>SEG DUP USE ! DUP BUFFER-BEGIN ! 65 + DUP LPREV ! PREV ! MTBUFFERS 
 ; 

( Data @0405-040F XT:040D CFA:1792 DLen: 2 STAGE: Dictionaries)
2 USER SP0 ( @040D=0=USER:SP0=63220 )

( Data @040F-0418 XT:0416 CFA:1792 DLen: 2 STAGE: Dictionaries)
2 USER R0 ( @0416=2=USER:R0=63440 )

( Data @0418-0421 XT:041F CFA:1792 DLen: 2 STAGE: Dictionaries)
2 USER DP ( @041F=4=USER:DP=54439 )

( Data @0421-042D XT:042B CFA:1792 DLen: 2 STAGE: Dictionaries)
2 USER FENCE ( @042B=6=USER:FENCE=14822 )

( Data @042D-043A XT:0438 CFA:1792 DLen: 2 STAGE: Dictionaries)
2 USER (INTO) ( @0438=8=USER:(INTO)=0 )

( Data @043A-0449 XT:0447 CFA:1792 DLen: 2 STAGE: Dictionaries)
2 USER MSGFLAGS ( @0447=10=USER:MSGFLAGS=49 )

( Data @0449-0458 XT:0456 CFA:1792 DLen: 2 STAGE: Dictionaries)
2 USER VOC-LINK ( @0456=12=USER:VOC-LINK=54312 )

( Data @0458-0467 XT:0465 CFA:1792 DLen: 2 STAGE: Dictionaries)
2 USER USERSIZE ( @0465=14=USER:USERSIZE=132 )

( Data @0467-0476 XT:0474 CFA:1792 DLen: 2 STAGE: Dictionaries)
2 USER USERNEXT ( @0474=16=USER:USERNEXT=116 )

( Data @0476-0480 XT:047E CFA:1792 DLen: 2 STAGE: Dictionaries)
2 USER >IN ( @047E=18=USER:>IN=11 )

( Data @0480-048A XT:0488 CFA:1792 DLen: 2 STAGE: Dictionaries)
2 USER TIB ( @0488=20=USER:TIB=63220 )

( Data @048A-049A XT:0498 CFA:1792 DLen: 2 STAGE: Dictionaries)
2 USER VIDEOPORT ( @0498=22=USER:VIDEOPORT=948 )

( Data @049A-04A9 XT:04A7 CFA:1792 DLen: 2 STAGE: Dictionaries)
2 USER VIDEOMEM ( @04A7=24=USER:VIDEOMEM=45056 )

( Data @04A9-04B9 XT:04B7 CFA:1792 DLen: 2 STAGE: Dictionaries)
1 USER CURSORLOC ( @04B7=26=USER:CURSORLOC=24 )

( Data @04B9-04C3 XT:04C1 CFA:1792 DLen: 2 STAGE: Dictionaries)
1 USER ROW ( @04C1=26=USER:CURSORLOC=24 )

( Data @04C3-04CD XT:04CB CFA:1792 DLen: 2 STAGE: Dictionaries)
1 USER COL ( @04CB=27=USER:COL=0 )

( Data @04CD-04DA XT:04D8 CFA:1792 DLen: 2 STAGE: Dictionaries)
1 USER ROWMIN ( @04D8=28=USER:ROWMIN=0 )

( Data @04DA-04E7 XT:04E5 CFA:1792 DLen: 2 STAGE: Dictionaries)
1 USER COLMIN ( @04E5=29=USER:COLMIN=0 )

( Data @04E7-04F4 XT:04F2 CFA:1792 DLen: 2 STAGE: Dictionaries)
1 USER ROWMAX ( @04F2=30=USER:ROWMAX=24 )

( Data @04F4-0501 XT:04FF CFA:1792 DLen: 2 STAGE: Dictionaries)
1 USER COLMAX ( @04FF=31=USER:COLMAX=79 )

( Data @0501-0511 XT:050F CFA:1792 DLen: 2 STAGE: Dictionaries)
2 USER ATTRIBUTE ( @050F=32=USER:ATTRIBUTE=1792 )

( Data @0511-051F XT:051D CFA:1792 DLen: 2 STAGE: Dictionaries)
4 USER DOFFSET ( @051D=34=USER:DOFFSET )

( Data @051F-0530 XT:052E CFA:1792 DLen: 2 STAGE: Dictionaries)
2 USER SERIALPORT ( @052E=38=USER:SERIALPORT=1016 )

( Data @0530-0543 XT:0541 CFA:1792 DLen: 2 STAGE: Dictionaries)
2 USER PARALLELPORT ( @0541=40=USER:PARALLELPORT=956 )

( Data @0543-054E XT:054C CFA:1792 DLen: 2 STAGE: Dictionaries)
2 USER BASE ( @054C=42=USER:BASE=10 )

( Data @054E-0558 XT:0556 CFA:1792 DLen: 2 STAGE: Dictionaries)
2 USER BLK ( @0556=44=USER:BLK=0 )

( Data @0558-0562 XT:0560 CFA:1792 DLen: 2 STAGE: Dictionaries)
2 USER DPL ( @0560=46=USER:DPL=65535 )

( Data @0562-056C XT:056A CFA:1792 DLen: 2 STAGE: Dictionaries)
2 USER FLD ( @056A=48=USER:FLD=0 )

( Data @056C-0576 XT:0574 CFA:1792 DLen: 2 STAGE: Dictionaries)
2 USER HLD ( @0574=50=USER:HLD=54503 )

( Data @0576-057F XT:057D CFA:1792 DLen: 2 STAGE: Dictionaries)
2 USER R# ( @057D=52=USER:R#=0 )

( Data @057F-0589 XT:0587 CFA:1792 DLen: 2 STAGE: Dictionaries)
2 USER SCR ( @0587=54=USER:SCR=0 )

( Data @0589-0594 XT:0592 CFA:1792 DLen: 2 STAGE: Dictionaries)
2 USER SSCR ( @0592=56=USER:SSCR=3 )

( Data @0594-05A0 XT:059E CFA:1792 DLen: 2 STAGE: Dictionaries)
2 USER STATE ( @059E=58=USER:STATE=0 )

( Data @05A0-05AE XT:05AC CFA:1792 DLen: 2 STAGE: Dictionaries)
2 USER CONTEXT ( @05AC=60=USER:CONTEXT=2074 )

( Data @05AE-05B8 XT:05B6 CFA:1792 DLen: 2 STAGE: Dictionaries)
2 USER CSP ( @05B6=62=USER:CSP=63206 )

( Data @05B8-05C6 XT:05C4 CFA:1792 DLen: 2 STAGE: Dictionaries)
2 USER CURRENT ( @05C4=64=USER:CURRENT=2074 )

( Data @05C6-05D3 XT:05D1 CFA:1792 DLen: 2 STAGE: Dictionaries)
2 USER LFALEN ( @05D1=66=USER:LFALEN=2 )

( Data @05D3-05E3 XT:05E1 CFA:1792 DLen: 2 STAGE: Dictionaries)
2 USER LOWERCASE ( @05E1=68=USER:LOWERCASE=0 )

( Data @05E3-05F5 XT:05F3 CFA:1792 DLen: 2 STAGE: Dictionaries)
2 USER SEARCHORDER ( @05F3=70=USER:SEARCHORDER=0 )

( Data @05F5-0601 XT:05FF CFA:1792 DLen: 2 STAGE: Dictionaries)
2 USER WIDTH ( @05FF=72=USER:WIDTH=31 )

( @0601-060D XT:060B CFA:17B7 DLen: 2 STAGE: Dictionaries)
' (-FIND) USEREXECUTOR -FIND ( @004A )

( @060D-061D XT:061B CFA:17B7 DLen: 2 STAGE: Dictionaries)
' (?TERMINAL) USEREXECUTOR ?TERMINAL ( @004C )

( @061D-0629 XT:0627 CFA:17B7 DLen: 2 STAGE: Dictionaries)
' (ABORT) USEREXECUTOR ABORT ( @004E )

( @0629-0634 XT:0632 CFA:17B7 DLen: 2 STAGE: Dictionaries)
' BEEP USEREXECUTOR BELL ( @0050 )

( @0634-063D XT:063B CFA:17B7 DLen: 2 STAGE: Dictionaries)
' (BS) USEREXECUTOR BS ( @0052 )

( @063D-0646 XT:0644 CFA:17B7 DLen: 2 STAGE: Dictionaries)
' (CR) USEREXECUTOR CR ( @0054 )

( @0646-0653 XT:0651 CFA:17B7 DLen: 2 STAGE: Dictionaries)
' (CREATE) USEREXECUTOR CREATE ( @0056 )

( @0653-0664 XT:0662 CFA:17B7 DLen: 2 STAGE: Dictionaries)
' (DISKERROR?) USEREXECUTOR DISKERROR? ( @0058 )

( @0664-066F XT:066D CFA:17B7 DLen: 2 STAGE: Dictionaries)
' (EMIT) USEREXECUTOR EMIT ( @005A )

( @066F-067C XT:067A CFA:17B7 DLen: 2 STAGE: Dictionaries)
' (EXPECT) USEREXECUTOR EXPECT ( @005C )

( @067C-068C XT:068A CFA:17B7 DLen: 2 STAGE: Dictionaries)
' (INTERPRET) USEREXECUTOR INTERPRET ( @005E )

( @068C-0699 XT:0697 CFA:17B7 DLen: 2 STAGE: Dictionaries)
' USER:LINKS> USEREXECUTOR LINKS> ( @0060 )

( @0699-06A4 XT:06A2 CFA:17B7 DLen: 2 STAGE: Dictionaries)
' (LOAD) USEREXECUTOR LOAD ( @0062 )

( @06A4-06AE XT:06AC CFA:17B7 DLen: 2 STAGE: Dictionaries)
' (KEY) USEREXECUTOR KEY ( @0064 )

( @06AE-06BB XT:06B9 CFA:17B7 DLen: 2 STAGE: Dictionaries)
' (NUMBER) USEREXECUTOR NUMBER ( @0066 )

( @06BB-06C6 XT:06C4 CFA:17B7 DLen: 2 STAGE: Dictionaries)
' (PAGE) USEREXECUTOR PAGE ( @0068 )

( @06C6-06D5 XT:06D3 CFA:17B7 DLen: 2 STAGE: Dictionaries)
' (POSITION) USEREXECUTOR POSITION ( @006A )

( @06D5-06DF XT:06DD CFA:17B7 DLen: 2 STAGE: Dictionaries)
' USER:R/W USEREXECUTOR R/W ( @006C )

( @06DF-06EA XT:06E8 CFA:17B7 DLen: 2 STAGE: Dictionaries)
' (TYPE) USEREXECUTOR TYPE ( @006E )

( @06EA-06F6 XT:06F4 CFA:17B7 DLen: 2 STAGE: Dictionaries)
' (WHERE) USEREXECUTOR WHERE ( @0070 )

( @06F6-0701 XT:06FF CFA:17B7 DLen: 2 STAGE: Dictionaries)
' (WORD) USEREXECUTOR WORD ( @0072 )

( RAW Data @0701-0775 DLen: 116 STAGE: External)
 _saveUser 116 ALLOT ( @0701 =
@0701 F4 F6 D0 F7 A7 D4 E6 39 00 00 31 00 28 D4 84 00   .......9..1.(...
@0711 74 00 00 00 F4 F6 B4 03 00 B0 18 00 00 00 18 4F   t..............O
@0721 00 07 FF FF FF FF F8 03 BC 03 0A 00 00 00 FF FF   ................
@0731 00 00 E7 D4 00 00 00 00 03 00 00 00 1A 08 E6 F6   ................
@0741 1A 08 02 00 00 00 00 00 1F 00 E1 17 BC 25 45 1C   .............%E.
@0751 6B 26 CF 26 EE 26 BB 1C 48 36 31 27 3E 1D D8 1D   k&.&.&..H61'>...
@0761 5C 1A 23 1E D7 25 D1 13 4C 27 67 27 D7 36 90 26   \.#..%..L'g'.6.&
@0771 68 1E 06 1F                                       h...            
 )

( RAW Data @0775-077F DLen: 10 STAGE: External)
 _savedForth 10 ALLOT ( @0775 =
@0775 80 D4 0F D4 80 D4 49 D4 6D D4                     ......I.m.      
 )

( Data @077F-078C XT:078C CFA:1D29 DLen: 0 STAGE: Dictionaries)
CREATE OPERATOR 0 ALLOT ( @078C =
@078C   
 )

( RAW Data @078C-078E DLen: 2 STAGE: Words)
 USER:SP0 2 ALLOT ( @078C =
@078C F4 F6                                             ..              
 )

( RAW Data @078E-0790 DLen: 2 STAGE: Words)
 USER:R0 2 ALLOT ( @078E =
@078E D0 F7                                             ..              
 )

( RAW Data @0790-0792 DLen: 2 STAGE: Words)
 USER:DP 2 ALLOT ( @0790 =
@0790 A7 D4                                             ..              
 )

( RAW Data @0792-0794 DLen: 2 STAGE: Words)
 USER:FENCE 2 ALLOT ( @0792 =
@0792 E6 39                                             .9              
 )

( RAW Data @0794-0796 DLen: 2 STAGE: Words)
 USER:(INTO) 2 ALLOT ( @0794 =
@0794 00 00                                             ..              
 )

( RAW Data @0796-0798 DLen: 2 STAGE: Words)
 USER:MSGFLAGS 2 ALLOT ( @0796 =
@0796 31 00                                             1.              
 )

( RAW Data @0798-079A DLen: 2 STAGE: Words)
 USER:VOC-LINK 2 ALLOT ( @0798 =
@0798 28 D4                                             (.              
 )

( RAW Data @079A-079C DLen: 2 STAGE: Words)
 USER:USERSIZE 2 ALLOT ( @079A =
@079A 84 00                                             ..              
 )

( RAW Data @079C-079E DLen: 2 STAGE: Words)
 USER:USERNEXT 2 ALLOT ( @079C =
@079C 74 00                                             t.              
 )

( RAW Data @079E-07A0 DLen: 2 STAGE: Words)
 USER:>IN 2 ALLOT ( @079E =
@079E 0B 00                                             ..              
 )

( RAW Data @07A0-07A2 DLen: 2 STAGE: Words)
 USER:TIB 2 ALLOT ( @07A0 =
@07A0 F4 F6                                             ..              
 )

( RAW Data @07A2-07A4 DLen: 2 STAGE: Words)
 USER:VIDEOPORT 2 ALLOT ( @07A2 =
@07A2 B4 03                                             ..              
 )

( RAW Data @07A4-07A6 DLen: 2 STAGE: Words)
 USER:VIDEOMEM 2 ALLOT ( @07A4 =
@07A4 00 B0                                             ..              
 )

( RAW Data @07A6-07A7 DLen: 1 STAGE: Words)
 USER:CURSORLOC 1 ALLOT ( @07A6 =
@07A6 18                                                .               
 )

( RAW Data @07A7-07A8 DLen: 1 STAGE: Words)
 USER:COL 1 ALLOT ( @07A7 =
@07A7 00                                                .               
 )

( RAW Data @07A8-07A9 DLen: 1 STAGE: Words)
 USER:ROWMIN 1 ALLOT ( @07A8 =
@07A8 00                                                .               
 )

( RAW Data @07A9-07AA DLen: 1 STAGE: Words)
 USER:COLMIN 1 ALLOT ( @07A9 =
@07A9 00                                                .               
 )

( RAW Data @07AA-07AB DLen: 1 STAGE: Words)
 USER:ROWMAX 1 ALLOT ( @07AA =
@07AA 18                                                .               
 )

( RAW Data @07AB-07AC DLen: 1 STAGE: Words)
 USER:COLMAX 1 ALLOT ( @07AB =
@07AB 4F                                                O               
 )

( RAW Data @07AC-07AE DLen: 2 STAGE: Words)
 USER:ATTRIBUTE 2 ALLOT ( @07AC =
@07AC 00 07                                             ..              
 )

( RAW Data @07AE-07B2 DLen: 4 STAGE: Words)
 USER:DOFFSET 4 ALLOT ( @07AE =
@07AE FF FF FF FF                                       ....            
 )

( RAW Data @07B2-07B4 DLen: 2 STAGE: Words)
 USER:SERIALPORT 2 ALLOT ( @07B2 =
@07B2 F8 03                                             ..              
 )

( RAW Data @07B4-07B6 DLen: 2 STAGE: Words)
 USER:PARALLELPORT 2 ALLOT ( @07B4 =
@07B4 BC 03                                             ..              
 )

( RAW Data @07B6-07B8 DLen: 2 STAGE: Words)
 USER:BASE 2 ALLOT ( @07B6 =
@07B6 0A 00                                             ..              
 )

( RAW Data @07B8-07BA DLen: 2 STAGE: Words)
 USER:BLK 2 ALLOT ( @07B8 =
@07B8 00 00                                             ..              
 )

( RAW Data @07BA-07BC DLen: 2 STAGE: Words)
 USER:DPL 2 ALLOT ( @07BA =
@07BA FF FF                                             ..              
 )

( RAW Data @07BC-07BE DLen: 2 STAGE: Words)
 USER:FLD 2 ALLOT ( @07BC =
@07BC 00 00                                             ..              
 )

( RAW Data @07BE-07C0 DLen: 2 STAGE: Words)
 USER:HLD 2 ALLOT ( @07BE =
@07BE E7 D4                                             ..              
 )

( RAW Data @07C0-07C2 DLen: 2 STAGE: Words)
 USER:R# 2 ALLOT ( @07C0 =
@07C0 00 00                                             ..              
 )

( RAW Data @07C2-07C4 DLen: 2 STAGE: Words)
 USER:SCR 2 ALLOT ( @07C2 =
@07C2 00 00                                             ..              
 )

( RAW Data @07C4-07C6 DLen: 2 STAGE: Words)
 USER:SSCR 2 ALLOT ( @07C4 =
@07C4 03 00                                             ..              
 )

( RAW Data @07C6-07C8 DLen: 2 STAGE: Words)
 USER:STATE 2 ALLOT ( @07C6 =
@07C6 00 00                                             ..              
 )

( RAW Data @07C8-07CA DLen: 2 STAGE: Words)
 USER:CONTEXT 2 ALLOT ( @07C8 =
@07C8 1A 08                                             ..              
 )

( RAW Data @07CA-07CC DLen: 2 STAGE: Words)
 USER:CSP 2 ALLOT ( @07CA =
@07CA E6 F6                                             ..              
 )

( RAW Data @07CC-07CE DLen: 2 STAGE: Words)
 USER:CURRENT 2 ALLOT ( @07CC =
@07CC 1A 08                                             ..              
 )

( RAW Data @07CE-07D0 DLen: 2 STAGE: Words)
 USER:LFALEN 2 ALLOT ( @07CE =
@07CE 02 00                                             ..              
 )

( RAW Data @07D0-07D2 DLen: 2 STAGE: Words)
 USER:LOWERCASE 2 ALLOT ( @07D0 =
@07D0 00 00                                             ..              
 )

( RAW Data @07D2-07D4 DLen: 2 STAGE: Words)
 USER:SEARCHORDER 2 ALLOT ( @07D2 =
@07D2 00 00                                             ..              
 )

( RAW Data @07D4-07D6 DLen: 2 STAGE: Words)
 USER:WIDTH 2 ALLOT ( @07D4 =
@07D4 1F 00                                             ..              
 )

( RAW Data @07D6-07D8 DLen: 2 STAGE: Words)
 USER_PTR:-FIND 2 ALLOT ( @07D6 =
@07D6 E1 17                                             ..              
 )

( RAW Data @07D8-07DA DLen: 2 STAGE: Words)
 USER_PTR:?TERMINAL 2 ALLOT ( @07D8 =
@07D8 BC 25                                             .%              
 )

( RAW Data @07DA-07DC DLen: 2 STAGE: Words)
 USER_PTR:ABORT 2 ALLOT ( @07DA =
@07DA 45 1C                                             E.              
 )

( RAW Data @07DC-07DE DLen: 2 STAGE: Words)
 USER_PTR:BELL 2 ALLOT ( @07DC =
@07DC 6B 26                                             k&              
 )

( RAW Data @07DE-07E0 DLen: 2 STAGE: Words)
 USER_PTR:BS 2 ALLOT ( @07DE =
@07DE CF 26                                             .&              
 )

( RAW Data @07E0-07E2 DLen: 2 STAGE: Words)
 USER_PTR:CR 2 ALLOT ( @07E0 =
@07E0 EE 26                                             .&              
 )

( RAW Data @07E2-07E4 DLen: 2 STAGE: Words)
 USER_PTR:CREATE 2 ALLOT ( @07E2 =
@07E2 BB 1C                                             ..              
 )

( RAW Data @07E4-07E6 DLen: 2 STAGE: Words)
 USER_PTR:DISKERROR? 2 ALLOT ( @07E4 =
@07E4 48 36                                             H6              
 )

( RAW Data @07E6-07E8 DLen: 2 STAGE: Words)
 USER_PTR:EMIT 2 ALLOT ( @07E6 =
@07E6 31 27                                             1'              
 )

( RAW Data @07E8-07EA DLen: 2 STAGE: Words)
 USER_PTR:EXPECT 2 ALLOT ( @07E8 =
@07E8 3E 1D                                             >.              
 )

( RAW Data @07EA-07EC DLen: 2 STAGE: Words)
 USER_PTR:INTERPRET 2 ALLOT ( @07EA =
@07EA D8 1D                                             ..              
 )

( RAW Data @07EC-07EE DLen: 2 STAGE: Words)
 USER_PTR:LINKS> 2 ALLOT ( @07EC =
@07EC 5C 1A                                             \.              
 )

( RAW Data @07EE-07F0 DLen: 2 STAGE: Words)
 USER_PTR:LOAD 2 ALLOT ( @07EE =
@07EE 23 1E                                             #.              
 )

( RAW Data @07F0-07F2 DLen: 2 STAGE: Words)
 USER_PTR:KEY 2 ALLOT ( @07F0 =
@07F0 D7 25                                             .%              
 )

( RAW Data @07F2-07F4 DLen: 2 STAGE: Words)
 USER_PTR:NUMBER 2 ALLOT ( @07F2 =
@07F2 D1 13                                             ..              
 )

( RAW Data @07F4-07F6 DLen: 2 STAGE: Words)
 USER_PTR:PAGE 2 ALLOT ( @07F4 =
@07F4 4C 27                                             L'              
 )

( RAW Data @07F6-07F8 DLen: 2 STAGE: Words)
 USER_PTR:POSITION 2 ALLOT ( @07F6 =
@07F6 67 27                                             g'              
 )

( RAW Data @07F8-07FA DLen: 2 STAGE: Words)
 USER_PTR:R/W 2 ALLOT ( @07F8 =
@07F8 D7 36                                             .6              
 )

( RAW Data @07FA-07FC DLen: 2 STAGE: Words)
 USER_PTR:TYPE 2 ALLOT ( @07FA =
@07FA 90 26                                             .&              
 )

( RAW Data @07FC-07FE DLen: 2 STAGE: Words)
 USER_PTR:WHERE 2 ALLOT ( @07FC =
@07FC 68 1E                                             h.              
 )

( RAW Data @07FE-0800 DLen: 2 STAGE: Words)
 USER_PTR:WORD 2 ALLOT ( @07FE =
@07FE 06 1F                                             ..              
 )

( RAW Data:Gap @0800-0810 DLen: 16 STAGE: Memory - Gap)
 [FORTHOUGHT:0800] 16 ALLOT ( @0800 =
@0800 A9 0F 75 95 B1 24 A9 7B 07 C0 AB BC B1 AD B4 20   ..u..$.{....... 
 )

( Data:Vocabulary @0810-0828 XT:081A CFA:1AB5 DLen: 14 STAGE: Dictionaries)
VOCABULARY FORTH
  $0000, $0000, $D480, $D40F, $D480, $D449, $D46D

( @0828-0855 XT:0833 CFA:224C DLen: 34 STAGE: Dictionaries)
: FREEZE
 OPERATOR ' _saveUser ( $0701 ) 116 CMOVE ' FORTH ( $081A ) 4 + ' _savedForth ( $0775 ) 
 10 CMOVE ; 

( @0855-0867 XT:085D CFA:224C DLen: 10 STAGE: Dictionaries)
: BYE
 FREEZE (RESTORE) 0 GO ; 

( @0867-08A0 XT:0872 CFA:224C DLen: 46 STAGE: Dictionaries)
: CHANGE
 FREEZE SET-BUFFERS BUFFER-BEGIN @ SEG>ADDR DUP $00DC - DUP ' _saveUser ( $0701 ) 
 ! $0715 ! ' _saveUser ( $0703 ) ! $0100 GO ; 

( RAW @08A0-08D1 DLen: 49 STAGE: External)
CODE _ctrl-break-hdl
(Address @08A0
   08A0 FA                   CLI        
   08A1 B8 40 00             MOV        AX, 64
   08A4 8E D8                MOV        DS, AX
   08A6 BB 71 00             MOV        BX, 0071h
   08A9 C6 07 00             MOV        BYTE PTR [BX], 0
   08AC B0 20                MOV        AL, 32
   08AE E6 20                OUT        32, AL
   08B0 8C C8                MOV        AX, CS
   08B2 8E D0                MOV        SS, AX
   08B4 8E C0                MOV        ES, AX
   08B6 8E D8                MOV        DS, AX
   08B8 B8 8C 07             MOV        AX, 078Ch                        ; USER:SP0
   08BB 8B F8                MOV        DI, AX
   08BD B8 43 0A             MOV        AX, 0A43h                        ; >BREAK
   08C0 8B F0                MOV        SI, AX
   08C2 8B 26 01 07          MOV        SP, WORD PTR [0701h]             ; _saveUser
   08C6 8B 2E 03 07          MOV        BP, WORD PTR [0703h]             ; _saveUser+2
   08CA FC                   CLD        
   08CB FB                   STI        
   08CC AD                   LODSW      
   08CD 8B D8                MOV        BX, AX
   08CF FF 27                JMP        WORD PTR [BX]
) CODE-END

( @08D1-0937 XT:08DD CFA:224C DLen: 90 STAGE: Dictionaries)
: (SETUP)
 ' _old27 ( $01B8 ) 2@ OR 0= IF 
  27 (!OLD) ' _old27 ( $01B8 ) 2! (CS?) ' _ctrl-break-hdl ( $08A0 ) 27 (!SET) 28 
  (!OLD) ' _old28 ( $01BC ) 2! (CS?) ' _clock-hdl ( $018E ) 28 (!SET) 0 (!OLD) ' _old0 ( $01C0 ) 
  2! SET0/ 'SETUP+ @ ?DUP IF 
   EXECUTE 
  THEN 
 THEN 
 ; 

( @0937-0993 XT:0939 CFA:224C DLen: 90 STAGE: Internal)
: _start
 (SETUP) (CS?) DS ! $F2D2 PSW ! ' _saveUser ( $0701 ) OPERATOR 116 CMOVE DP @ INITIAL-DP 
 ! 'FORTH CONTEXT ! DEFINITIONS FREEZE AUTO-LIMIT AUTO-CACHE SP! RP! SET-BUFFERS 
 AUTO-SCREEN _logo BOOT-HOOK @ ?DUP IF 
  EXECUTE 
 THEN 
 BOOT-LOAD @ ?DUP IF 
  LOAD 
 THEN 
 _ok ABORT ; 

( Data:Word @0993-099C XT:099A CFA:2214 DLen: 2 STAGE: Dictionaries)
32 CONSTANT BL

( Data:Word @099C-09A6 XT:09A4 CFA:2214 DLen: 2 STAGE: Dictionaries)
64 CONSTANT C/L

( Data:Word @09A6-09B7 XT:09B5 CFA:2214 DLen: 2 STAGE: Dictionaries)
$0775 ( ' _savedForth ) CONSTANT INIT-FORTH

( Data:Word @09B7-09C7 XT:09C5 CFA:2214 DLen: 2 STAGE: Dictionaries)
$0701 ( ' _saveUser ) CONSTANT INIT-USER

( Data:Word @09C7-09D8 XT:09D6 CFA:2214 DLen: 2 STAGE: Dictionaries)
$0705 CONSTANT INITIAL-DP

( Data:Word @09D8-09E4 XT:09E2 CFA:2214 DLen: 2 STAGE: Dictionaries)
-2 CONSTANT LIMIT

( Data:Variable @09E4-09F1 XT:09EF CFA:1D29 DLen: 2 STAGE: Dictionaries)
VARIABLE #CACHE ( @09EF=$00D0)

( Data:Variable @09F1-0A00 XT:09FE CFA:1D29 DLen: 2 STAGE: Dictionaries)
VARIABLE #BUFFERS ( @09FE=2)

( Data:Variable @0A00-0A0D XT:0A0B CFA:1D29 DLen: 2 STAGE: Dictionaries)
VARIABLE #SPACE ( @0A0B=$0100)

( Data:Variable @0A0D-0A1D XT:0A1B CFA:1D29 DLen: 2 STAGE: Dictionaries)
VARIABLE 'RESTORE+ ( @0A1B=$B49F ( ' [STARFLT:B49F] ))

( Data:Variable @0A1D-0A2B XT:0A29 CFA:1D29 DLen: 2 STAGE: Dictionaries)
VARIABLE 'SETUP+ ( @0A29=$B46F ( ' [STARFLT:B46F] ))

( Data:Variable @0A2B-0A38 XT:0A36 CFA:1D29 DLen: 2 STAGE: Dictionaries)
VARIABLE ?SOUND ( @0A36=1)

( Data:Variable @0A38-0A45 XT:0A43 CFA:1D29 DLen: 2 STAGE: Dictionaries)
VARIABLE >BREAK ( @0A43=$162C ( ' ABORT-IT ))

( Data:Variable @0A45-0A55 XT:0A53 CFA:1D29 DLen: 2 STAGE: Dictionaries)
VARIABLE BOOT-HOOK ( @0A53=$D489 ( ' LET-THERE-BE-STARFLIGHT ))

( Data:Variable @0A55-0A65 XT:0A63 CFA:1D29 DLen: 2 STAGE: Dictionaries)
VARIABLE BOOT-LOAD ( @0A63=0)

( Data:Variable @0A65-0A78 XT:0A76 CFA:1D29 DLen: 2 STAGE: Dictionaries)
VARIABLE BUFFER-BEGIN ( @0A76=$266E)

( Data:Variable @0A78-0A8A XT:0A88 CFA:1D29 DLen: 2 STAGE: Dictionaries)
VARIABLE BUFFER-HEAD ( @0A88=0)

( Data:Variable @0A8A-0A9C XT:0A9A CFA:1D29 DLen: 2 STAGE: Dictionaries)
VARIABLE CACHE-BEGIN ( @0A9A=0)

( Data:Variable @0A9C-0AAD XT:0AAB CFA:1D29 DLen: 2 STAGE: Dictionaries)
VARIABLE CACHE-HEAD ( @0AAB=0)

( @0AAD-0ACA XT:0AB8 CFA:224C DLen: 18 STAGE: Dictionaries)
: 'FORTH
 USERSIZE @ ME + LFALEN @ + PFA ; 

( @0ACA-0AD7 XT:0AD1 CFA:0AD1 DLen: 6 STAGE: Dictionaries)
CODE ME
(Address @0AD1
   0AD1 57                   PUSH       DI
   0AD2 AD                   LODSW      
   0AD3 8B D8                MOV        BX, AX
   0AD5 FF 27                JMP        WORD PTR [BX]
) CODE-END

( @0AD7-0B10 XT:0AD9 CFA:224C DLen: 55 STAGE: Words)
: _?space
 0 #SPACE @ 0 D+ HERE 0 D+ SWAP SP@ SWAP U< OR ABORT" Dictionary or stack full" ; 

( @0B10-0B2E XT:0B12 CFA:224C DLen: 28 STAGE: Memory)
: _?stack
 SP@ S0 SWAP U< ABORT" Empty stack" 0 _?space ; 

( @0B2E-0B5B XT:0B30 CFA:224C DLen: 43 STAGE: Words)
: _?input
 MSGFLAGS @ 8 AND 0= 0= AND ABORT" Input stream exhausted" ; 

( @0B5B-0B70 XT:0B5D CFA:224C DLen: 19 STAGE: Words)
: _not-recognized
 ABORT" Not recognized" ; 

( @0B70-0BAA XT:0B7C CFA:224C DLen: 46 STAGE: Dictionaries)
: ?ENOUGH
 DEPTH DUP IF 
  < 
 THEN 
 0= ABORT" Not enough items on the stack" ; 

( @0BAA-0BB8 XT:0BB0 CFA:0BB0 DLen: 8 STAGE: Dictionaries)
CODE @
(Address @0BB0
   0BB0 5B                   POP        BX
   0BB1 FF 37                PUSH       WORD PTR [BX]
   0BB3 AD                   LODSW      
   0BB4 8B D8                MOV        BX, AX
   0BB6 FF 27                JMP        WORD PTR [BX]
) CODE-END

( @0BB8-0BDB XT:0BBF CFA:0BBF DLen: 28 STAGE: Dictionaries)
CODE @L
(Address @0BBF
   0BBF 58                   POP        AX
   0BC0 8A E0                MOV        AH, AL
   0BC2 28 C0                SUB        AL, AL
   0BC4 00 E4                ADD        AH, AH
   0BC6 00 E4                ADD        AH, AH
   0BC8 00 E4                ADD        AH, AH
   0BCA 00 E4                ADD        AH, AH
   0BCC 8E D8                MOV        DS, AX
   0BCE 5B                   POP        BX
   0BCF 8B 07                MOV        AX, WORD PTR [BX]
   0BD1 50                   PUSH       AX
   0BD2 8C C8                MOV        AX, CS
   0BD4 8E D8                MOV        DS, AX
   0BD6 AD                   LODSW      
   0BD7 8B D8                MOV        BX, AX
   0BD9 FF 27                JMP        WORD PTR [BX]
) CODE-END

( @0BDB-0BEA XT:0BE1 CFA:0BE1 DLen: 9 STAGE: Dictionaries)
CODE !
(Address @0BE1
   0BE1 5B                   POP        BX
   0BE2 58                   POP        AX
   0BE3 89 07                MOV        WORD PTR [BX], AX
   0BE5 AD                   LODSW      
   0BE6 8B D8                MOV        BX, AX
   0BE8 FF 27                JMP        WORD PTR [BX]
) CODE-END

( @0BEA-0C0D XT:0BF1 CFA:0BF1 DLen: 28 STAGE: Dictionaries)
CODE !L
(Address @0BF1
   0BF1 58                   POP        AX
   0BF2 8A E0                MOV        AH, AL
   0BF4 28 C0                SUB        AL, AL
   0BF6 00 E4                ADD        AH, AH
   0BF8 00 E4                ADD        AH, AH
   0BFA 00 E4                ADD        AH, AH
   0BFC 00 E4                ADD        AH, AH
   0BFE 8E D8                MOV        DS, AX
   0C00 5B                   POP        BX
   0C01 58                   POP        AX
   0C02 89 07                MOV        WORD PTR [BX], AX
   0C04 8C C8                MOV        AX, CS
   0C06 8E D8                MOV        DS, AX
   0C08 AD                   LODSW      
   0C09 8B D8                MOV        BX, AX
   0C0B FF 27                JMP        WORD PTR [BX]
) CODE-END

( @0C0D-0C1D XT:0C17 CFA:0C17 DLen: 6 STAGE: Dictionaries)
CODE (CS?)
(Address @0C17
   0C17 0E                   PUSH       CS
   0C18 AD                   LODSW      
   0C19 8B D8                MOV        BX, AX
   0C1B FF 27                JMP        WORD PTR [BX]
) CODE-END

( @0C1D-0C33 XT:0C24 CFA:0C24 DLen: 15 STAGE: Dictionaries)
CODE 2!
(Address @0C24
   0C24 5B                   POP        BX
   0C25 58                   POP        AX
   0C26 59                   POP        CX
   0C27 FA                   CLI        
   0C28 89 07                MOV        WORD PTR [BX], AX
   0C2A 89 4F 02             MOV        WORD PTR [BX+2], CX
   0C2D FB                   STI        
   0C2E AD                   LODSW      
   0C2F 8B D8                MOV        BX, AX
   0C31 FF 27                JMP        WORD PTR [BX]
) CODE-END

( @0C33-0C49 XT:0C3A CFA:0C3A DLen: 15 STAGE: Dictionaries)
CODE 2@
(Address @0C3A
   0C3A 5B                   POP        BX
   0C3B FA                   CLI        
   0C3C 8B 07                MOV        AX, WORD PTR [BX]
   0C3E 8B 57 02             MOV        DX, WORD PTR [BX+2]
   0C41 FB                   STI        
   0C42 52                   PUSH       DX
   0C43 50                   PUSH       AX
   0C44 AD                   LODSW      
   0C45 8B D8                MOV        BX, AX
   0C47 FF 27                JMP        WORD PTR [BX]
) CODE-END

( @0C49-0C59 XT:0C53 CFA:224C DLen: 6 STAGE: Dictionaries)
: BLANK
 BL FILL ; 

( @0C59-0C69 XT:0C60 CFA:0C60 DLen: 9 STAGE: Dictionaries)
CODE C!
(Address @0C60
   0C60 5B                   POP        BX
   0C61 58                   POP        AX
   0C62 88 07                MOV        BYTE PTR [BX], AL
   0C64 AD                   LODSW      
   0C65 8B D8                MOV        BX, AX
   0C67 FF 27                JMP        WORD PTR [BX]
) CODE-END

( @0C69-0C8D XT:0C71 CFA:0C71 DLen: 28 STAGE: Dictionaries)
CODE C!L
(Address @0C71
   0C71 58                   POP        AX
   0C72 8A E0                MOV        AH, AL
   0C74 28 C0                SUB        AL, AL
   0C76 00 E4                ADD        AH, AH
   0C78 00 E4                ADD        AH, AH
   0C7A 00 E4                ADD        AH, AH
   0C7C 00 E4                ADD        AH, AH
   0C7E 8E D8                MOV        DS, AX
   0C80 5B                   POP        BX
   0C81 58                   POP        AX
   0C82 88 07                MOV        BYTE PTR [BX], AL
   0C84 8C C8                MOV        AX, CS
   0C86 8E D8                MOV        DS, AX
   0C88 AD                   LODSW      
   0C89 8B D8                MOV        BX, AX
   0C8B FF 27                JMP        WORD PTR [BX]
) CODE-END

( @0C8D-0C9F XT:0C94 CFA:0C94 DLen: 11 STAGE: Dictionaries)
CODE C@
(Address @0C94
   0C94 5B                   POP        BX
   0C95 29 C0                SUB        AX, AX
   0C97 8A 07                MOV        AL, BYTE PTR [BX]
   0C99 50                   PUSH       AX
   0C9A AD                   LODSW      
   0C9B 8B D8                MOV        BX, AX
   0C9D FF 27                JMP        WORD PTR [BX]
) CODE-END

( @0C9F-0CC5 XT:0CA7 CFA:0CA7 DLen: 30 STAGE: Dictionaries)
CODE C@L
(Address @0CA7
   0CA7 58                   POP        AX
   0CA8 8A E0                MOV        AH, AL
   0CAA 28 C0                SUB        AL, AL
   0CAC 00 E4                ADD        AH, AH
   0CAE 00 E4                ADD        AH, AH
   0CB0 00 E4                ADD        AH, AH
   0CB2 00 E4                ADD        AH, AH
   0CB4 8E D8                MOV        DS, AX
   0CB6 5B                   POP        BX
   0CB7 8A 07                MOV        AL, BYTE PTR [BX]
   0CB9 28 E4                SUB        AH, AH
   0CBB 50                   PUSH       AX
   0CBC 8C C8                MOV        AX, CS
   0CBE 8E D8                MOV        DS, AX
   0CC0 AD                   LODSW      
   0CC1 8B D8                MOV        BX, AX
   0CC3 FF 27                JMP        WORD PTR [BX]
) CODE-END

( @0CC5-0CD9 XT:0CCF CFA:224C DLen: 10 STAGE: Dictionaries)
: COUNT
 DUP 1+ SWAP C@ ; 

( @0CD9-0D06 XT:0CE4 CFA:0CE4 DLen: 34 STAGE: Dictionaries)
CODE CMOVE>
(Address @0CE4
   0CE4 8C D8                MOV        AX, DS
   0CE6 8E C0                MOV        ES, AX
   0CE8 8B D7                MOV        DX, DI
   0CEA 8B DE                MOV        BX, SI
   0CEC 59                   POP        CX
   0CED 5F                   POP        DI
   0CEE 5E                   POP        SI
   0CEF 09 C9                OR         CX, CX
   0CF1 74 0A                JZ         0CFDh                            ; .STARFLT_0CFD
   0CF3 FD                   STD        
   0CF4 01 CF                ADD        DI, CX
   0CF6 4F                   DEC        DI
   0CF7 01 CE                ADD        SI, CX
   0CF9 4E                   DEC        SI
   0CFA F3 A4                MOVSB      
   0CFC FC                   CLD        
 .STARFLT_0CFD:
   0CFD 8B FA                MOV        DI, DX
   0CFF 8B F3                MOV        SI, BX
   0D01 AD                   LODSW      
   0D02 8B D8                MOV        BX, AX
   0D04 FF 27                JMP        WORD PTR [BX]
) CODE-END

( @0D06-0D2C XT:0D10 CFA:0D10 DLen: 28 STAGE: Dictionaries)
CODE CMOVE
(Address @0D10
   0D10 8C D8                MOV        AX, DS
   0D12 8E C0                MOV        ES, AX
   0D14 59                   POP        CX
   0D15 8B D7                MOV        DX, DI
   0D17 5F                   POP        DI
   0D18 8B DE                MOV        BX, SI
   0D1A 5E                   POP        SI
   0D1B F8                   CLC        
   0D1C D1 D9                RCR        CX, 1
   0D1E 73 01                JNB        0D21h                            ; .STARFLT_0D21
   0D20 A4                   MOVSB      
 .STARFLT_0D21:
   0D21 F3 A5                MOVSW      
   0D23 8B F3                MOV        SI, BX
   0D25 8B FA                MOV        DI, DX
   0D27 AD                   LODSW      
   0D28 8B D8                MOV        BX, AX
   0D2A FF 27                JMP        WORD PTR [BX]
) CODE-END

( @0D2C-0D4F XT:0D35 CFA:0D35 DLen: 26 STAGE: Dictionaries)
CODE FILL
(Address @0D35
   0D35 8C D8                MOV        AX, DS
   0D37 8E C0                MOV        ES, AX
   0D39 58                   POP        AX
   0D3A 8A E0                MOV        AH, AL
   0D3C 59                   POP        CX
   0D3D 8B D7                MOV        DX, DI
   0D3F 5F                   POP        DI
   0D40 F8                   CLC        
   0D41 D1 D9                RCR        CX, 1
   0D43 73 01                JNB        0D46h                            ; .STARFLT_0D46
   0D45 AA                   STOSB      
 .STARFLT_0D46:
   0D46 F3 AB                STOSW      
   0D48 8B FA                MOV        DI, DX
   0D4A AD                   LODSW      
   0D4B 8B D8                MOV        BX, AX
   0D4D FF 27                JMP        WORD PTR [BX]
) CODE-END

( @0D4F-0D5E XT:0D56 CFA:0D56 DLen: 8 STAGE: Dictionaries)
CODE P!
(Address @0D56
   0D56 5A                   POP        DX
   0D57 58                   POP        AX
   0D58 EE                   OUT        DX, AL
   0D59 AD                   LODSW      
   0D5A 8B D8                MOV        BX, AX
   0D5C FF 27                JMP        WORD PTR [BX]
) CODE-END

( @0D5E-0D6F XT:0D65 CFA:0D65 DLen: 10 STAGE: Dictionaries)
CODE P@
(Address @0D65
   0D65 29 C0                SUB        AX, AX
   0D67 5A                   POP        DX
   0D68 EC                   IN         AL, DX
   0D69 50                   PUSH       AX
   0D6A AD                   LODSW      
   0D6B 8B D8                MOV        BX, AX
   0D6D FF 27                JMP        WORD PTR [BX]
) CODE-END

( @0D6F-0D8F XT:0D7C CFA:0D7C DLen: 19 STAGE: Dictionaries)
CODE SEG>ADDR
(Address @0D7C
   0D7C 58                   POP        AX
   0D7D 8C CB                MOV        BX, CS
   0D7F 29 D8                SUB        AX, BX
   0D81 D1 E0                SHL        AX, 1
   0D83 D1 E0                SHL        AX, 1
   0D85 D1 E0                SHL        AX, 1
   0D87 D1 E0                SHL        AX, 1
   0D89 50                   PUSH       AX
   0D8A AD                   LODSW      
   0D8B 8B D8                MOV        BX, AX
   0D8D FF 27                JMP        WORD PTR [BX]
) CODE-END

( @0D8F-0DAF XT:0D9C CFA:0D9C DLen: 19 STAGE: Dictionaries)
CODE ADDR>SEG
(Address @0D9C
   0D9C 58                   POP        AX
   0D9D D1 E8                SHR        AX, 1
   0D9F D1 E8                SHR        AX, 1
   0DA1 D1 E8                SHR        AX, 1
   0DA3 D1 E8                SHR        AX, 1
   0DA5 8C D9                MOV        CX, DS
   0DA7 01 C8                ADD        AX, CX
   0DA9 50                   PUSH       AX
   0DAA AD                   LODSW      
   0DAB 8B D8                MOV        BX, AX
   0DAD FF 27                JMP        WORD PTR [BX]
) CODE-END

( @0DAF-0DC1 XT:0DB6 CFA:0DB6 DLen: 11 STAGE: Dictionaries)
CODE >R
(Address @0DB6
   0DB6 5B                   POP        BX
   0DB7 4D                   DEC        BP
   0DB8 4D                   DEC        BP
   0DB9 89 5E 00             MOV        WORD PTR [BP], BX
   0DBC AD                   LODSW      
   0DBD 8B D8                MOV        BX, AX
   0DBF FF 27                JMP        WORD PTR [BX]
) CODE-END

( @0DC1-0DD6 XT:0DCA CFA:0DCA DLen: 12 STAGE: Dictionaries)
CODE ?DUP
(Address @0DCA
   0DCA 58                   POP        AX
   0DCB 09 C0                OR         AX, AX
   0DCD 74 01                JZ         0DD0h                            ; .STARFLT_0DD0
   0DCF 50                   PUSH       AX
 .STARFLT_0DD0:
   0DD0 50                   PUSH       AX
   0DD1 AD                   LODSW      
   0DD2 8B D8                MOV        BX, AX
   0DD4 FF 27                JMP        WORD PTR [BX]
) CODE-END

( @0DD6-0DE9 XT:0DE0 CFA:0DE0 DLen: 9 STAGE: Dictionaries)
CODE 2DROP
(Address @0DE0
   0DE0 81 C4 04 00          ADD        SP, 4
   0DE4 AD                   LODSW      
   0DE5 8B D8                MOV        BX, AX
   0DE7 FF 27                JMP        WORD PTR [BX]
) CODE-END

( @0DE9-0DFE XT:0DF2 CFA:0DF2 DLen: 12 STAGE: Dictionaries)
CODE 2DUP
(Address @0DF2
   0DF2 8B DC                MOV        BX, SP
   0DF4 FF 77 02             PUSH       WORD PTR [BX+2]
   0DF7 FF 37                PUSH       WORD PTR [BX]
   0DF9 AD                   LODSW      
   0DFA 8B D8                MOV        BX, AX
   0DFC FF 27                JMP        WORD PTR [BX]
) CODE-END

( @0DFE-0E15 XT:0E08 CFA:0E08 DLen: 13 STAGE: Dictionaries)
CODE 2SWAP
(Address @0E08
   0E08 58                   POP        AX
   0E09 5B                   POP        BX
   0E0A 59                   POP        CX
   0E0B 5A                   POP        DX
   0E0C 53                   PUSH       BX
   0E0D 50                   PUSH       AX
   0E0E 52                   PUSH       DX
   0E0F 51                   PUSH       CX
   0E10 AD                   LODSW      
   0E11 8B D8                MOV        BX, AX
   0E13 FF 27                JMP        WORD PTR [BX]
) CODE-END

( @0E15-0E2B XT:0E1F CFA:224C DLen: 12 STAGE: Dictionaries)
: DEPTH
 SP@ S0 SWAP - 2/ ; 

( @0E2B-0E3B XT:0E34 CFA:0E34 DLen: 7 STAGE: Dictionaries)
CODE DROP
(Address @0E34
   0E34 44                   INC        SP
   0E35 44                   INC        SP
   0E36 AD                   LODSW      
   0E37 8B D8                MOV        BX, AX
   0E39 FF 27                JMP        WORD PTR [BX]
) CODE-END

( @0E3B-0E4C XT:0E43 CFA:0E43 DLen: 9 STAGE: Dictionaries)
CODE DUP
(Address @0E43
   0E43 8B DC                MOV        BX, SP
   0E45 FF 37                PUSH       WORD PTR [BX]
   0E47 AD                   LODSW      
   0E48 8B D8                MOV        BX, AX
   0E4A FF 27                JMP        WORD PTR [BX]
) CODE-END

( @0E4C-0E5B XT:0E52 CFA:0E52 DLen: 9 STAGE: Dictionaries)
CODE I
(Address @0E52
   0E52 8B 46 00             MOV        AX, WORD PTR [BP]
   0E55 50                   PUSH       AX
   0E56 AD                   LODSW      
   0E57 8B D8                MOV        BX, AX
   0E59 FF 27                JMP        WORD PTR [BX]
) CODE-END

( @0E5B-0E6A XT:0E62 CFA:0E62 DLen: 8 STAGE: Dictionaries)
CODE I'
(Address @0E62
   0E62 FF 76 02             PUSH       WORD PTR [BP+2]
   0E65 AD                   LODSW      
   0E66 8B D8                MOV        BX, AX
   0E68 FF 27                JMP        WORD PTR [BX]
) CODE-END

( @0E6A-0E78 XT:0E70 CFA:0E70 DLen: 8 STAGE: Dictionaries)
CODE J
(Address @0E70
   0E70 FF 76 04             PUSH       WORD PTR [BP+4]
   0E73 AD                   LODSW      
   0E74 8B D8                MOV        BX, AX
   0E76 FF 27                JMP        WORD PTR [BX]
) CODE-END

( @0E78-0E8B XT:0E81 CFA:0E81 DLen: 10 STAGE: Dictionaries)
CODE OVER
(Address @0E81
   0E81 8B DC                MOV        BX, SP
   0E83 FF 77 02             PUSH       WORD PTR [BX+2]
   0E86 AD                   LODSW      
   0E87 8B D8                MOV        BX, AX
   0E89 FF 27                JMP        WORD PTR [BX]
) CODE-END

( @0E8B-0E9D XT:0E92 CFA:0E92 DLen: 11 STAGE: Dictionaries)
CODE R>
(Address @0E92
   0E92 8B 46 00             MOV        AX, WORD PTR [BP]
   0E95 45                   INC        BP
   0E96 45                   INC        BP
   0E97 50                   PUSH       AX
   0E98 AD                   LODSW      
   0E99 8B D8                MOV        BX, AX
   0E9B FF 27                JMP        WORD PTR [BX]
) CODE-END

( @0E9D-0EAD XT:0EA4 CFA:0EA4 DLen: 9 STAGE: Dictionaries)
CODE R@
(Address @0EA4
   0EA4 8B 46 00             MOV        AX, WORD PTR [BP]
   0EA7 50                   PUSH       AX
   0EA8 AD                   LODSW      
   0EA9 8B D8                MOV        BX, AX
   0EAB FF 27                JMP        WORD PTR [BX]
) CODE-END

( @0EAD-0EC0 XT:0EB5 CFA:0EB5 DLen: 11 STAGE: Dictionaries)
CODE ROT
(Address @0EB5
   0EB5 5A                   POP        DX
   0EB6 5B                   POP        BX
   0EB7 58                   POP        AX
   0EB8 53                   PUSH       BX
   0EB9 52                   PUSH       DX
   0EBA 50                   PUSH       AX
   0EBB AD                   LODSW      
   0EBC 8B D8                MOV        BX, AX
   0EBE FF 27                JMP        WORD PTR [BX]
) CODE-END

( @0EC0-0ED0 XT:0EC8 CFA:0EC8 DLen: 8 STAGE: Dictionaries)
CODE RP!
(Address @0EC8
   0EC8 8B 6D 02             MOV        BP, WORD PTR [DI+2]              ; USER:R0
   0ECB AD                   LODSW      
   0ECC 8B D8                MOV        BX, AX
   0ECE FF 27                JMP        WORD PTR [BX]
) CODE-END

( @0ED0-0EDE XT:0ED8 CFA:0ED8 DLen: 6 STAGE: Dictionaries)
CODE RP@
(Address @0ED8
   0ED8 55                   PUSH       BP
   0ED9 AD                   LODSW      
   0EDA 8B D8                MOV        BX, AX
   0EDC FF 27                JMP        WORD PTR [BX]
) CODE-END

( @0EDE-0EEB XT:0EE5 CFA:224C DLen: 6 STAGE: Dictionaries)
: S0
 SP0 @ ; 

( @0EEB-0EFD XT:0EF4 CFA:0EF4 DLen: 9 STAGE: Dictionaries)
CODE SWAP
(Address @0EF4
   0EF4 5A                   POP        DX
   0EF5 58                   POP        AX
   0EF6 52                   PUSH       DX
   0EF7 50                   PUSH       AX
   0EF8 AD                   LODSW      
   0EF9 8B D8                MOV        BX, AX
   0EFB FF 27                JMP        WORD PTR [BX]
) CODE-END

( @0EFD-0F0C XT:0F05 CFA:0F05 DLen: 7 STAGE: Dictionaries)
CODE SP!
(Address @0F05
   0F05 8B 25                MOV        SP, WORD PTR [DI]                ; USER:SP0
   0F07 AD                   LODSW      
   0F08 8B D8                MOV        BX, AX
   0F0A FF 27                JMP        WORD PTR [BX]
) CODE-END

( @0F0C-0F1C XT:0F14 CFA:0F14 DLen: 8 STAGE: Dictionaries)
CODE SP@
(Address @0F14
   0F14 8B C4                MOV        AX, SP
   0F16 50                   PUSH       AX
   0F17 AD                   LODSW      
   0F18 8B D8                MOV        BX, AX
   0F1A FF 27                JMP        WORD PTR [BX]
) CODE-END

( @0F1C-0F2A XT:0F22 CFA:0F22 DLen: 8 STAGE: Dictionaries)
CODE 0
(Address @0F22
   0F22 29 C0                SUB        AX, AX
   0F24 50                   PUSH       AX
   0F25 AD                   LODSW      
   0F26 8B D8                MOV        BX, AX
   0F28 FF 27                JMP        WORD PTR [BX]
) CODE-END

( @0F2A-0F39 XT:0F30 CFA:0F30 DLen: 9 STAGE: Dictionaries)
CODE 1
(Address @0F30
   0F30 B8 01 00             MOV        AX, 1
   0F33 50                   PUSH       AX
   0F34 AD                   LODSW      
   0F35 8B D8                MOV        BX, AX
   0F37 FF 27                JMP        WORD PTR [BX]
) CODE-END

( @0F39-0F48 XT:0F3F CFA:0F3F DLen: 9 STAGE: Dictionaries)
CODE 2
(Address @0F3F
   0F3F B8 02 00             MOV        AX, 2
   0F42 50                   PUSH       AX
   0F43 AD                   LODSW      
   0F44 8B D8                MOV        BX, AX
   0F46 FF 27                JMP        WORD PTR [BX]
) CODE-END

( @0F48-0F59 XT:0F4E CFA:0F4E DLen: 11 STAGE: Dictionaries)
CODE /
(Address @0F4E
   0F4E 5B                   POP        BX
   0F4F 58                   POP        AX
   0F50 99                   CWD        
   0F51 F7 FB                IDIV       BX
   0F53 50                   PUSH       AX
   0F54 AD                   LODSW      
   0F55 8B D8                MOV        BX, AX
   0F57 FF 27                JMP        WORD PTR [BX]
) CODE-END

( @0F59-0F6E XT:0F62 CFA:0F62 DLen: 12 STAGE: Dictionaries)
CODE /MOD
(Address @0F62
   0F62 5B                   POP        BX
   0F63 58                   POP        AX
   0F64 99                   CWD        
   0F65 F7 FB                IDIV       BX
   0F67 52                   PUSH       DX
   0F68 50                   PUSH       AX
   0F69 AD                   LODSW      
   0F6A 8B D8                MOV        BX, AX
   0F6C FF 27                JMP        WORD PTR [BX]
) CODE-END

( @0F6E-0F7E XT:0F74 CFA:0F74 DLen: 10 STAGE: Dictionaries)
CODE +
(Address @0F74
   0F74 58                   POP        AX
   0F75 5B                   POP        BX
   0F76 01 D8                ADD        AX, BX
   0F78 50                   PUSH       AX
   0F79 AD                   LODSW      
   0F7A 8B D8                MOV        BX, AX
   0F7C FF 27                JMP        WORD PTR [BX]
) CODE-END

( @0F7E-0F8E XT:0F85 CFA:0F85 DLen: 9 STAGE: Dictionaries)
CODE +!
(Address @0F85
   0F85 5B                   POP        BX
   0F86 58                   POP        AX
   0F87 01 07                ADD        WORD PTR [BX], AX
   0F89 AD                   LODSW      
   0F8A 8B D8                MOV        BX, AX
   0F8C FF 27                JMP        WORD PTR [BX]
) CODE-END

( @0F8E-0F9E XT:0F94 CFA:0F94 DLen: 10 STAGE: Dictionaries)
CODE -
(Address @0F94
   0F94 5B                   POP        BX
   0F95 58                   POP        AX
   0F96 29 D8                SUB        AX, BX
   0F98 50                   PUSH       AX
   0F99 AD                   LODSW      
   0F9A 8B D8                MOV        BX, AX
   0F9C FF 27                JMP        WORD PTR [BX]
) CODE-END

( @0F9E-0FAF XT:0FA5 CFA:224C DLen: 10 STAGE: Dictionaries)
: +-
 0< IF 
  NEGATE 
 THEN 
 ; 

( @0FAF-0FBF XT:0FB5 CFA:0FB5 DLen: 10 STAGE: Dictionaries)
CODE *
(Address @0FB5
   0FB5 58                   POP        AX
   0FB6 5B                   POP        BX
   0FB7 F7 E3                MUL        BX
   0FB9 50                   PUSH       AX
   0FBA AD                   LODSW      
   0FBB 8B D8                MOV        BX, AX
   0FBD FF 27                JMP        WORD PTR [BX]
) CODE-END

( @0FBF-0FCE XT:0FC6 CFA:224C DLen: 8 STAGE: Dictionaries)
: */
 */MOD SWAP DROP ; 

( @0FCE-0FE2 XT:0FD8 CFA:224C DLen: 10 STAGE: Dictionaries)
: */MOD
 >R M* R> M/ ; 

( @0FE2-0FF1 XT:0FE9 CFA:0FE9 DLen: 8 STAGE: Dictionaries)
CODE 1+
(Address @0FE9
   0FE9 58                   POP        AX
   0FEA 40                   INC        AX
   0FEB 50                   PUSH       AX
   0FEC AD                   LODSW      
   0FED 8B D8                MOV        BX, AX
   0FEF FF 27                JMP        WORD PTR [BX]
) CODE-END

( @0FF1-1000 XT:0FF8 CFA:0FF8 DLen: 8 STAGE: Dictionaries)
CODE 1-
(Address @0FF8
   0FF8 58                   POP        AX
   0FF9 48                   DEC        AX
   0FFA 50                   PUSH       AX
   0FFB AD                   LODSW      
   0FFC 8B D8                MOV        BX, AX
   0FFE FF 27                JMP        WORD PTR [BX]
) CODE-END

( @1000-1010 XT:1007 CFA:1007 DLen: 9 STAGE: Dictionaries)
CODE 2*
(Address @1007
   1007 58                   POP        AX
   1008 01 C0                ADD        AX, AX
   100A 50                   PUSH       AX
   100B AD                   LODSW      
   100C 8B D8                MOV        BX, AX
   100E FF 27                JMP        WORD PTR [BX]
) CODE-END

( @1010-1020 XT:1017 CFA:1017 DLen: 9 STAGE: Dictionaries)
CODE 2+
(Address @1017
   1017 58                   POP        AX
   1018 40                   INC        AX
   1019 40                   INC        AX
   101A 50                   PUSH       AX
   101B AD                   LODSW      
   101C 8B D8                MOV        BX, AX
   101E FF 27                JMP        WORD PTR [BX]
) CODE-END

( @1020-1030 XT:1027 CFA:1027 DLen: 9 STAGE: Dictionaries)
CODE 2-
(Address @1027
   1027 58                   POP        AX
   1028 48                   DEC        AX
   1029 48                   DEC        AX
   102A 50                   PUSH       AX
   102B AD                   LODSW      
   102C 8B D8                MOV        BX, AX
   102E FF 27                JMP        WORD PTR [BX]
) CODE-END

( @1030-1040 XT:1037 CFA:1037 DLen: 9 STAGE: Dictionaries)
CODE 2/
(Address @1037
   1037 58                   POP        AX
   1038 D1 F8                SAR        AX, 1
   103A 50                   PUSH       AX
   103B AD                   LODSW      
   103C 8B D8                MOV        BX, AX
   103E FF 27                JMP        WORD PTR [BX]
) CODE-END

( @1040-1052 XT:1047 CFA:1047 DLen: 11 STAGE: Dictionaries)
CODE 4*
(Address @1047
   1047 58                   POP        AX
   1048 D1 E0                SHL        AX, 1
   104A D1 E0                SHL        AX, 1
   104C 50                   PUSH       AX
   104D AD                   LODSW      
   104E 8B D8                MOV        BX, AX
   1050 FF 27                JMP        WORD PTR [BX]
) CODE-END

( @1052-1060 XT:105A CFA:224C DLen: 6 STAGE: Dictionaries)
: ABS
 DUP +- ; 

( @1060-1076 XT:1067 CFA:1067 DLen: 15 STAGE: Dictionaries)
CODE D+
(Address @1067
   1067 58                   POP        AX
   1068 5A                   POP        DX
   1069 5B                   POP        BX
   106A 59                   POP        CX
   106B 01 CA                ADD        DX, CX
   106D 11 D8                ADC        AX, BX
   106F 52                   PUSH       DX
   1070 50                   PUSH       AX
   1071 AD                   LODSW      
   1072 8B D8                MOV        BX, AX
   1074 FF 27                JMP        WORD PTR [BX]
) CODE-END

( @1076-1088 XT:107E CFA:224C DLen: 10 STAGE: Dictionaries)
: D+-
 0< IF 
  DNEGATE 
 THEN 
 ; 

( @1088-109E XT:1094 CFA:224C DLen: 10 STAGE: Dictionaries)
: DECIMAL
 10 BASE ! ; 

( @109E-10AD XT:10A7 CFA:224C DLen: 6 STAGE: Dictionaries)
: DABS
 DUP D+- ; 

( @10AD-10C8 XT:10B9 CFA:10B9 DLen: 15 STAGE: Dictionaries)
CODE DNEGATE
(Address @10B9
   10B9 29 C0                SUB        AX, AX
   10BB 59                   POP        CX
   10BC 5A                   POP        DX
   10BD F7 DA                NEG        DX
   10BF 19 C8                SBB        AX, CX
   10C1 52                   PUSH       DX
   10C2 50                   PUSH       AX
   10C3 AD                   LODSW      
   10C4 8B D8                MOV        BX, AX
   10C6 FF 27                JMP        WORD PTR [BX]
) CODE-END

( @10C8-10E3 XT:10CF CFA:224C DLen: 20 STAGE: Dictionaries)
: M*
 2DUP XOR >R ABS SWAP ABS U* R> D+- ; 

( @10E3-112F XT:10EB CFA:224C DLen: 68 STAGE: Dictionaries)
: M*/
 2DUP XOR SWAP ABS >R SWAP ABS >R OVER XOR ROT ROT DABS SWAP R@ U* ROT R> U* ROT 
 0 D+ R@ U/MOD ROT ROT R> U/MOD SWAP DROP SWAP ROT D+- ; 

( @112F-113C XT:1136 CFA:224C DLen: 6 STAGE: Dictionaries)
: M+
 S->D D+ ; 

( @113C-1165 XT:1143 CFA:224C DLen: 34 STAGE: Dictionaries)
: M/
 OVER >R >R DUP D+- R@ ABS U/MOD R> R@ XOR +- SWAP R> +- SWAP ; 

( @1165-1183 XT:116F CFA:224C DLen: 20 STAGE: Dictionaries)
: M/MOD
 >R 0 R@ U/MOD R> SWAP >R U/MOD R> ; 

( @1183-1199 XT:118B CFA:224C DLen: 14 STAGE: Dictionaries)
: MAX
 2DUP < IF 
  SWAP 
 THEN 
 DROP ; 

( @1199-11A7 XT:11A1 CFA:224C DLen: 6 STAGE: Dictionaries)
: MOD
 /MOD DROP ; 

( @11A7-11BD XT:11AF CFA:224C DLen: 14 STAGE: Dictionaries)
: MIN
 2DUP > IF 
  SWAP 
 THEN 
 DROP ; 

( @11BD-11D1 XT:11C8 CFA:11C8 DLen: 9 STAGE: Dictionaries)
CODE NEGATE
(Address @11C8
   11C8 58                   POP        AX
   11C9 F7 D8                NEG        AX
   11CB 50                   PUSH       AX
   11CC AD                   LODSW      
   11CD 8B D8                MOV        BX, AX
   11CF FF 27                JMP        WORD PTR [BX]
) CODE-END

( @11D1-11E3 XT:11D8 CFA:11D8 DLen: 11 STAGE: Dictionaries)
CODE U*
(Address @11D8
   11D8 58                   POP        AX
   11D9 5B                   POP        BX
   11DA F7 E3                MUL        BX
   11DC 50                   PUSH       AX
   11DD 52                   PUSH       DX
   11DE AD                   LODSW      
   11DF 8B D8                MOV        BX, AX
   11E1 FF 27                JMP        WORD PTR [BX]
) CODE-END

( @11E3-11F9 XT:11ED CFA:11ED DLen: 12 STAGE: Dictionaries)
CODE U/MOD
(Address @11ED
   11ED 5B                   POP        BX
   11EE 5A                   POP        DX
   11EF 58                   POP        AX
   11F0 F7 F3                DIV        BX
   11F2 52                   PUSH       DX
   11F3 50                   PUSH       AX
   11F4 AD                   LODSW      
   11F5 8B D8                MOV        BX, AX
   11F7 FF 27                JMP        WORD PTR [BX]
) CODE-END

( @11F9-1210 XT:1202 CFA:224C DLen: 14 STAGE: Dictionaries)
: UMAX
 2DUP U< IF 
  SWAP 
 THEN 
 DROP ; 

( @1210-1229 XT:1219 CFA:224C DLen: 16 STAGE: Dictionaries)
: UMIN
 2DUP U< 0= IF 
  SWAP 
 THEN 
 DROP ; 

( @1229-1242 XT:122F CFA:122F DLen: 19 STAGE: Dictionaries)
CODE >
(Address @122F
   122F 58                   POP        AX
   1230 B9 00 80             MOV        CX, 8000h
   1233 01 C8                ADD        AX, CX
   1235 5A                   POP        DX
   1236 01 CA                ADD        DX, CX
   1238 29 D0                SUB        AX, DX
   123A 11 C9                ADC        CX, CX
   123C 51                   PUSH       CX
   123D AD                   LODSW      
   123E 8B D8                MOV        BX, AX
   1240 FF 27                JMP        WORD PTR [BX]
) CODE-END

( @1242-125B XT:1248 CFA:1248 DLen: 19 STAGE: Dictionaries)
CODE <
(Address @1248
   1248 58                   POP        AX
   1249 B9 00 80             MOV        CX, 8000h
   124C 01 C8                ADD        AX, CX
   124E 5A                   POP        DX
   124F 01 CA                ADD        DX, CX
   1251 29 C2                SUB        DX, AX
   1253 11 C9                ADC        CX, CX
   1255 51                   PUSH       CX
   1256 AD                   LODSW      
   1257 8B D8                MOV        BX, AX
   1259 FF 27                JMP        WORD PTR [BX]
) CODE-END

( @125B-1273 XT:1261 CFA:1261 DLen: 18 STAGE: Dictionaries)
CODE =
(Address @1261
   1261 58                   POP        AX
   1262 5A                   POP        DX
   1263 31 C9                XOR        CX, CX
   1265 29 D0                SUB        AX, DX
   1267 81 E8 01 00          SUB        AX, 1
   126B D1 D1                RCL        CX, 1
   126D 51                   PUSH       CX
   126E AD                   LODSW      
   126F 8B D8                MOV        BX, AX
   1271 FF 27                JMP        WORD PTR [BX]
) CODE-END

( @1273-1284 XT:127A CFA:127A DLen: 10 STAGE: Dictionaries)
CODE 0<
(Address @127A
   127A 58                   POP        AX
   127B 99                   CWD        
   127C F7 DA                NEG        DX
   127E 52                   PUSH       DX
   127F AD                   LODSW      
   1280 8B D8                MOV        BX, AX
   1282 FF 27                JMP        WORD PTR [BX]
) CODE-END

( @1284-129A XT:128B CFA:128B DLen: 15 STAGE: Dictionaries)
CODE 0=
(Address @128B
   128B 58                   POP        AX
   128C 31 C9                XOR        CX, CX
   128E 81 E8 01 00          SUB        AX, 1
   1292 D1 D1                RCL        CX, 1
   1294 51                   PUSH       CX
   1295 AD                   LODSW      
   1296 8B D8                MOV        BX, AX
   1298 FF 27                JMP        WORD PTR [BX]
) CODE-END

( @129A-12AD XT:12A1 CFA:12A1 DLen: 12 STAGE: Dictionaries)
CODE 0>
(Address @12A1
   12A1 58                   POP        AX
   12A2 F7 D8                NEG        AX
   12A4 99                   CWD        
   12A5 F7 DA                NEG        DX
   12A7 52                   PUSH       DX
   12A8 AD                   LODSW      
   12A9 8B D8                MOV        BX, AX
   12AB FF 27                JMP        WORD PTR [BX]
) CODE-END

( @12AD-12DA XT:12B4 CFA:224C DLen: 38 STAGE: Dictionaries)
: D<
 ROT 2DUP = IF 
  ROT ROT DNEGATE D+ 0< 
 ELSE 
  SWAP < SWAP DROP 
 THEN 
 SWAP DROP ; 

( @12DA-12EF XT:12E1 CFA:12E1 DLen: 14 STAGE: Dictionaries)
CODE U<
(Address @12E1
   12E1 58                   POP        AX
   12E2 5A                   POP        DX
   12E3 31 C9                XOR        CX, CX
   12E5 29 C2                SUB        DX, AX
   12E7 D1 D1                RCL        CX, 1
   12E9 51                   PUSH       CX
   12EA AD                   LODSW      
   12EB 8B D8                MOV        BX, AX
   12ED FF 27                JMP        WORD PTR [BX]
) CODE-END

( @12EF-1301 XT:12F7 CFA:12F7 DLen: 10 STAGE: Dictionaries)
CODE AND
(Address @12F7
   12F7 58                   POP        AX
   12F8 5B                   POP        BX
   12F9 21 D8                AND        AX, BX
   12FB 50                   PUSH       AX
   12FC AD                   LODSW      
   12FD 8B D8                MOV        BX, AX
   12FF FF 27                JMP        WORD PTR [BX]
) CODE-END

( @1301-1318 XT:1309 CFA:1309 DLen: 15 STAGE: Dictionaries)
CODE NOT
(Address @1309
   1309 58                   POP        AX
   130A 31 C9                XOR        CX, CX
   130C 81 E8 01 00          SUB        AX, 1
   1310 D1 D1                RCL        CX, 1
   1312 51                   PUSH       CX
   1313 AD                   LODSW      
   1314 8B D8                MOV        BX, AX
   1316 FF 27                JMP        WORD PTR [BX]
) CODE-END

( @1318-1328 XT:1320 CFA:224C DLen: 8 STAGE: Dictionaries)
: OFF
 0 SWAP ! ; 

( @1328-1339 XT:132F CFA:224C DLen: 10 STAGE: Dictionaries)
: ON
 -1 SWAP ! ; 

( @1339-134A XT:1340 CFA:1340 DLen: 10 STAGE: Dictionaries)
CODE OR
(Address @1340
   1340 58                   POP        AX
   1341 5B                   POP        BX
   1342 09 D8                OR         AX, BX
   1344 50                   PUSH       AX
   1345 AD                   LODSW      
   1346 8B D8                MOV        BX, AX
   1348 FF 27                JMP        WORD PTR [BX]
) CODE-END

( @134A-135E XT:1355 CFA:1355 DLen: 9 STAGE: Dictionaries)
CODE TOGGLE
(Address @1355
   1355 58                   POP        AX
   1356 5B                   POP        BX
   1357 30 07                XOR        BYTE PTR [BX], AL
   1359 AD                   LODSW      
   135A 8B D8                MOV        BX, AX
   135C FF 27                JMP        WORD PTR [BX]
) CODE-END

( @135E-1370 XT:1366 CFA:1366 DLen: 10 STAGE: Dictionaries)
CODE XOR
(Address @1366
   1366 58                   POP        AX
   1367 5B                   POP        BX
   1368 31 D8                XOR        AX, BX
   136A 50                   PUSH       AX
   136B AD                   LODSW      
   136C 8B D8                MOV        BX, AX
   136E FF 27                JMP        WORD PTR [BX]
) CODE-END

( @1370-139A XT:1376 CFA:224C DLen: 36 STAGE: Dictionaries)
: #
 BASE @ M/MOD ROT 9 OVER < IF 
  7 + 
 THEN 
 48 + HOLD ; 

( @139A-13AF XT:13A1 CFA:224C DLen: 14 STAGE: Dictionaries)
: #>
 2DROP HLD @ PAD OVER - ; 

( @13AF-13C4 XT:13B6 CFA:224C DLen: 14 STAGE: Dictionaries)
: #S
 BEGIN 
  # 2DUP OR NOT 
 UNTIL 
 ; 

( @13C4-142B XT:13D1 CFA:224C DLen: 90 STAGE: Dictionaries)
: (NUMBER)
 0 0 ROT DUP 1+ C@ 45 = DUP >R + -1 DPL ! CONVERT DUP C@ BL > IF 
  DUP C@ 46 = NOT _not-recognized 0 DPL ! CONVERT DUP C@ BL > _not-recognized 
 THEN 
 DROP R> IF 
  DNEGATE 
 THEN 
 ; 

( @142B-1458 XT:143A CFA:143A DLen: 30 STAGE: Dictionaries)
CODE >UPPERCASE
(Address @143A
   143A 59                   POP        CX
   143B 5B                   POP        BX
   143C E3 15                JCXZ       1453h                            ; .STARFLT_1453
   143E BA 7A 61             MOV        DX, 617Ah
 .STARFLT_1441:
   1441 8A 07                MOV        AL, BYTE PTR [BX]
   1443 38 F0                CMP        AL, DH
   1445 72 09                JB         1450h                            ; .STARFLT_1450
   1447 38 D0                CMP        AL, DL
   1449 77 05                JNBE       1450h                            ; .STARFLT_1450
   144B 80 E0 DF             AND        AL, -33
   144E 88 07                MOV        BYTE PTR [BX], AL
 .STARFLT_1450:
 .STARFLT_1450:
   1450 43                   INC        BX
   1451 E2 EE                LOOP       1441h                            ; .STARFLT_1441
 .STARFLT_1453:
   1453 AD                   LODSW      
   1454 8B D8                MOV        BX, AX
   1456 FF 27                JMP        WORD PTR [BX]
) CODE-END

( @1458-1467 XT:145F CFA:224C DLen: 8 STAGE: Dictionaries)
: <#
 PAD HLD ! ; 

( @1467-14B3 XT:1473 CFA:224C DLen: 64 STAGE: Dictionaries)
: CONVERT
 BEGIN 
  1+ DUP >R C@ BASE @ DIGIT WHILE 
  SWAP BASE @ U* DROP ROT BASE @ U* D+ DPL @ 1+ IF 
   1 DPL +! 
  THEN 
  R> 
 REPEAT 
 R> ; 

( @14B3-14E6 XT:14BD CFA:14BD DLen: 41 STAGE: Dictionaries)
CODE DIGIT
(Address @14BD
   14BD 5A                   POP        DX
   14BE 58                   POP        AX
   14BF 80 E8 30             SUB        AL, 48
   14C2 72 1A                JB         14DEh                            ; .STARFLT_14DE
   14C4 80 F8 09             CMP        AL, 9
   14C7 76 08                JBE        14D1h                            ; .STARFLT_14D1
   14C9 80 E8 07             SUB        AL, 7
   14CC 80 F8 0A             CMP        AL, 10
   14CF 72 0D                JB         14DEh                            ; .STARFLT_14DE
 .STARFLT_14D1:
   14D1 38 D0                CMP        AL, DL
   14D3 73 09                JNB        14DEh                            ; .STARFLT_14DE
   14D5 29 D2                SUB        DX, DX
   14D7 8A D0                MOV        DL, AL
   14D9 B0 01                MOV        AL, 1
   14DB 52                   PUSH       DX
   14DC 74 02                JZ         14E0h                            ; .STARFLT_14E0
 .STARFLT_14DE:
 .STARFLT_14DE:
 .STARFLT_14DE:
   14DE 29 C0                SUB        AX, AX
 .STARFLT_14E0:
   14E0 50                   PUSH       AX
   14E1 AD                   LODSW      
   14E2 8B D8                MOV        BX, AX
   14E4 FF 27                JMP        WORD PTR [BX]
) CODE-END

( @14E6-14FF XT:14EF CFA:224C DLen: 16 STAGE: Dictionaries)
: HOLD
 -1 HLD +! HLD @ C! ; 

( @14FF-1513 XT:1508 CFA:1508 DLen: 11 STAGE: Dictionaries)
CODE S->D
(Address @1508
   1508 8B DC                MOV        BX, SP
   150A 8B 07                MOV        AX, WORD PTR [BX]
   150C 99                   CWD        
   150D 52                   PUSH       DX
   150E AD                   LODSW      
   150F 8B D8                MOV        BX, AX
   1511 FF 27                JMP        WORD PTR [BX]
) CODE-END

( @1513-152A XT:151C CFA:224C DLen: 14 STAGE: Dictionaries)
: SIGN
 0< IF 
  45 HOLD 
 THEN 
 ; 

( @152A-153D XT:1536 CFA:1536 DLen: 7 STAGE: Dictionaries)
CODE (>CODE)
(Address @1536
   1536 AD                   LODSW      
   1537 8B DE                MOV        BX, SI
   1539 01 C6                ADD        SI, AX
   153B FF E3                JMP        BX
) CODE-END

( @153D-1552 XT:1548 CFA:1548 DLen: 10 STAGE: Dictionaries)
CODE (;VIA)
(Address @1548
   1548 AD                   LODSW      
   1549 40                   INC        AX
   154A 40                   INC        AX
   154B 8B F0                MOV        SI, AX
   154D AD                   LODSW      
   154E 8B D8                MOV        BX, AX
   1550 FF 27                JMP        WORD PTR [BX]
) CODE-END

( @1552-1587 XT:155E CFA:155E DLen: 41 STAGE: Dictionaries)
CODE (+LOOP)
(Address @155E
   155E 5B                   POP        BX
   155F 8B 46 00             MOV        AX, WORD PTR [BP]
   1562 01 D8                ADD        AX, BX
   1564 09 DB                OR         BX, BX
   1566 78 0F                JS         1577h                            ; .STARFLT_1577
   1568 3B 46 02             CMP        AX, WORD PTR [BP+2]
   156B 7D 0F                JNL        157Ch                            ; .STARFLT_157C
 .STARFLT_156D:
   156D 89 46 00             MOV        WORD PTR [BP], AX
   1570 03 34                ADD        SI, WORD PTR [SI]
   1572 AD                   LODSW      
   1573 8B D8                MOV        BX, AX
   1575 FF 27                JMP        WORD PTR [BX]
 .STARFLT_1577:
   1577 3B 46 02             CMP        AX, WORD PTR [BP+2]
   157A 7D F1                JNL        156Dh                            ; .STARFLT_156D
 .STARFLT_157C:
   157C 81 C5 04 00          ADD        BP, 4
   1580 46                   INC        SI
   1581 46                   INC        SI
   1582 AD                   LODSW      
   1583 8B D8                MOV        BX, AX
   1585 FF 27                JMP        WORD PTR [BX]
) CODE-END

( @1587-15B1 XT:1593 CFA:1593 DLen: 30 STAGE: Dictionaries)
CODE (/LOOP)
(Address @1593
   1593 58                   POP        AX
   1594 03 46 00             ADD        AX, WORD PTR [BP]
   1597 3B 46 02             CMP        AX, WORD PTR [BP+2]
   159A 73 0A                JNB        15A6h                            ; .STARFLT_15A6
   159C 89 46 00             MOV        WORD PTR [BP], AX
   159F 03 34                ADD        SI, WORD PTR [SI]
   15A1 AD                   LODSW      
   15A2 8B D8                MOV        BX, AX
   15A4 FF 27                JMP        WORD PTR [BX]
 .STARFLT_15A6:
   15A6 81 C5 04 00          ADD        BP, 4
   15AA 46                   INC        SI
   15AB 46                   INC        SI
   15AC AD                   LODSW      
   15AD 8B D8                MOV        BX, AX
   15AF FF 27                JMP        WORD PTR [BX]
) CODE-END

( @15B1-15C7 XT:15BA CFA:15BA DLen: 13 STAGE: Dictionaries)
CODE (DO)
(Address @15BA
   15BA 5A                   POP        DX
   15BB 58                   POP        AX
   15BC 87 EC                XCHG       SP, BP
   15BE 50                   PUSH       AX
   15BF 52                   PUSH       DX
   15C0 87 EC                XCHG       SP, BP
   15C2 AD                   LODSW      
   15C3 8B D8                MOV        BX, AX
   15C5 FF 27                JMP        WORD PTR [BX]
) CODE-END

( @15C7-15F0 XT:15D2 CFA:15D2 DLen: 30 STAGE: Dictionaries)
CODE (LOOP)
(Address @15D2
   15D2 8B 46 00             MOV        AX, WORD PTR [BP]
   15D5 40                   INC        AX
   15D6 3B 46 02             CMP        AX, WORD PTR [BP+2]
   15D9 7D 0A                JNL        15E5h                            ; .STARFLT_15E5
   15DB 89 46 00             MOV        WORD PTR [BP], AX
   15DE 03 34                ADD        SI, WORD PTR [SI]
   15E0 AD                   LODSW      
   15E1 8B D8                MOV        BX, AX
   15E3 FF 27                JMP        WORD PTR [BX]
 .STARFLT_15E5:
   15E5 81 C5 04 00          ADD        BP, 4
   15E9 46                   INC        SI
   15EA 46                   INC        SI
   15EB AD                   LODSW      
   15EC 8B D8                MOV        BX, AX
   15EE FF 27                JMP        WORD PTR [BX]
) CODE-END

( @15F0-160F XT:15FC CFA:15FC DLen: 19 STAGE: Dictionaries)
CODE 0BRANCH
(Address @15FC
   15FC 58                   POP        AX
   15FD 09 C0                OR         AX, AX
   15FF 74 07                JZ         1608h                            ; .STARFLT_1608
   1601 46                   INC        SI
   1602 46                   INC        SI
   1603 AD                   LODSW      
   1604 8B D8                MOV        BX, AX
   1606 FF 27                JMP        WORD PTR [BX]
 .STARFLT_1608:
   1608 03 34                ADD        SI, WORD PTR [SI]
   160A AD                   LODSW      
   160B 8B D8                MOV        BX, AX
   160D FF 27                JMP        WORD PTR [BX]
) CODE-END

( @160F-1621 XT:1618 CFA:1618 DLen: 9 STAGE: Dictionaries)
CODE 2LIT
(Address @1618
   1618 AD                   LODSW      
   1619 50                   PUSH       AX
   161A AD                   LODSW      
   161B 50                   PUSH       AX
   161C AD                   LODSW      
   161D 8B D8                MOV        BX, AX
   161F FF 27                JMP        WORD PTR [BX]
) CODE-END

( @1621-1649 XT:162E CFA:224C DLen: 27 STAGE: Dictionaries)
: ABORT-IT
 1 ABORT" Aborting execution! " ; 

( RAW @1649-1657 DLen: 14 STAGE: External)
CODE _does
(Address @1649
   1649 43                   INC        BX
   164A 43                   INC        BX
   164B 4D                   DEC        BP
   164C 4D                   DEC        BP
   164D 89 76 00             MOV        WORD PTR [BP], SI
   1650 5E                   POP        SI
   1651 53                   PUSH       BX
   1652 AD                   LODSW      
   1653 8B D8                MOV        BX, AX
   1655 FF 27                JMP        WORD PTR [BX]
) CODE-END

( @1657-1669 XT:1662 CFA:1662 DLen: 7 STAGE: Dictionaries)
CODE BRANCH
(Address @1662
   1662 03 34                ADD        SI, WORD PTR [SI]
   1664 AD                   LODSW      
   1665 8B D8                MOV        BX, AX
   1667 FF 27                JMP        WORD PTR [BX]
) CODE-END

( @1669-1678 XT:1675 CFA:1675 DLen: 3 STAGE: Dictionaries)
CODE CFAEXEC
(Address @1675
   1675 5B                   POP        BX
   1676 FF 27                JMP        WORD PTR [BX]
) CODE-END

( @1678-1689 XT:1684 CFA:1684 DLen: 5 STAGE: Dictionaries)
CODE EXECUTE
(Address @1684
   1684 5B                   POP        BX
   1685 4B                   DEC        BX
   1686 4B                   DEC        BX
   1687 FF 27                JMP        WORD PTR [BX]
) CODE-END

( @1689-169C XT:1692 CFA:1692 DLen: 10 STAGE: Dictionaries)
CODE EXIT
(Address @1692
   1692 8B 76 00             MOV        SI, WORD PTR [BP]
   1695 45                   INC        BP
   1696 45                   INC        BP
   1697 AD                   LODSW      
   1698 8B D8                MOV        BX, AX
   169A FF 27                JMP        WORD PTR [BX]
) CODE-END

( @169C-16A6 XT:16A3 CFA:16A3 DLen: 3 STAGE: Dictionaries)
CODE GO
(Address @16A3
   16A3 5B                   POP        BX
   16A4 FF E3                JMP        BX
) CODE-END

( Data @16A6-16C8 XT:16B4 CFA:1D29 DLen: 20 STAGE: Dictionaries)
CREATE REGISTERS 20 ALLOT ( @16B4 =
@16B4 D2 02 00 15 00 80 05 00 CA 2D 38 D3 CA 2D A8 D4   .........-8..-..
@16C4 F1 16 F1 16                                       ....            
 )

( RAW @16C8-16CB DLen: 3 STAGE: Words)
CODE _int_caller
(Address @16C8
   16C8 CD 21                INT        21h
   16CA C3                   RET        
) CODE-END

( @16CB-1742 XT:16D9 CFA:16D9 DLen: 105 STAGE: Dictionaries)
CODE INTERRUPT
(Address @16D9
   16D9 58                   POP        AX
   16DA A2 C9 16             MOV        BYTE PTR [16C9h], AL             ; _int_caller+1
   16DD 55                   PUSH       BP
   16DE 57                   PUSH       DI
   16DF 56                   PUSH       SI
   16E0 06                   PUSH       ES
   16E1 9C                   PUSHF      
   16E2 A1 B4 16             MOV        AX, WORD PTR [16B4h]             ; REGISTERS
   16E5 50                   PUSH       AX
   16E6 9D                   POPF       
   16E7 8B 1E B8 16          MOV        BX, WORD PTR [16B8h]             ; REGISTERS+4
   16EB 8B 0E BA 16          MOV        CX, WORD PTR [16BAh]             ; REGISTERS+6
   16EF 8B 16 BC 16          MOV        DX, WORD PTR [16BCh]             ; REGISTERS+8
   16F3 8B 36 C2 16          MOV        SI, WORD PTR [16C2h]             ; REGISTERS+14
   16F7 8B 3E C0 16          MOV        DI, WORD PTR [16C0h]             ; REGISTERS+12
   16FB A1 C6 16             MOV        AX, WORD PTR [16C6h]             ; REGISTERS+18
   16FE 8E C0                MOV        ES, AX
   1700 A1 C4 16             MOV        AX, WORD PTR [16C4h]             ; REGISTERS+16
   1703 8E D8                MOV        DS, AX
   1705 2E A1 B6 16          MOV        AX, WORD PTR [CS:16B6h]          ; REGISTERS+2
   1709 E8 BC FF             CALL       16C8h                            ; _int_caller
   170C 2E A3 B6 16          MOV        WORD PTR [CS:16B6h], AX          ; REGISTERS+2
   1710 8C D8                MOV        AX, DS
   1712 2E A3 C4 16          MOV        WORD PTR [CS:16C4h], AX          ; REGISTERS+16
   1716 8C C8                MOV        AX, CS
   1718 8E D8                MOV        DS, AX
   171A 9C                   PUSHF      
   171B 58                   POP        AX
   171C A3 B4 16             MOV        WORD PTR [16B4h], AX             ; REGISTERS
   171F 8B C3                MOV        AX, BX
   1721 A3 B8 16             MOV        WORD PTR [16B8h], AX             ; REGISTERS+4
   1724 8B C1                MOV        AX, CX
   1726 A3 BA 16             MOV        WORD PTR [16BAh], AX             ; REGISTERS+6
   1729 8B C2                MOV        AX, DX
   172B A3 BC 16             MOV        WORD PTR [16BCh], AX             ; REGISTERS+8
   172E 8B C7                MOV        AX, DI
   1730 A3 C0 16             MOV        WORD PTR [16C0h], AX             ; REGISTERS+12
   1733 8C C0                MOV        AX, ES
   1735 A3 C6 16             MOV        WORD PTR [16C6h], AX             ; REGISTERS+18
   1738 9D                   POPF       
   1739 07                   POP        ES
   173A 5E                   POP        SI
   173B 5F                   POP        DI
   173C 5D                   POP        BP
   173D AD                   LODSW      
   173E 8B D8                MOV        BX, AX
   1740 FF 27                JMP        WORD PTR [BX]
) CODE-END

( @1742-1757 XT:174C CFA:174C DLen: 11 STAGE: Dictionaries)
CODE LEAVE
(Address @174C
   174C 8B 46 00             MOV        AX, WORD PTR [BP]
   174F 89 46 02             MOV        WORD PTR [BP+2], AX
   1752 AD                   LODSW      
   1753 8B D8                MOV        BX, AX
   1755 FF 27                JMP        WORD PTR [BX]
) CODE-END

( @1757-1766 XT:175F CFA:175F DLen: 7 STAGE: Dictionaries)
CODE LIT
(Address @175F
   175F AD                   LODSW      
   1760 50                   PUSH       AX
   1761 AD                   LODSW      
   1762 8B D8                MOV        BX, AX
   1764 FF 27                JMP        WORD PTR [BX]
) CODE-END

( @1766-1781 XT:1772 CFA:1772 DLen: 15 STAGE: Dictionaries)
CODE SYSCALL
(Address @1772
   1772 5A                   POP        DX
   1773 59                   POP        CX
   1774 B5 00                MOV        BPL, 0
   1776 E8 8C E8             CALL       0005h
   1779 B4 00                MOV        SPL, 0
   177B 50                   PUSH       AX
   177C AD                   LODSW      
   177D 8B D8                MOV        BX, AX
   177F FF 27                JMP        WORD PTR [BX]
) CODE-END

( @1781-179E XT:178A CFA:224C DLen: 20 STAGE: Dictionaries)
: USER
 OVER CONSTANT + (;CODE) 
 Address @1792
   1792 43                   INC        BX
   1793 43                   INC        BX
   1794 8B 07                MOV        AX, WORD PTR [BX]
   1796 01 F8                ADD        AX, DI
   1798 50                   PUSH       AX
   1799 AD                   LODSW      
   179A 8B D8                MOV        BX, AX
   179C FF 27                JMP        WORD PTR [BX]

( @179E-17C1 XT:17AF CFA:224C DLen: 18 STAGE: Dictionaries)
: USEREXECUTOR
 DUP CONSTANT 2+ (;CODE) 
 Address @17B7
   17B7 43                   INC        BX
   17B8 43                   INC        BX
   17B9 8B 1F                MOV        BX, WORD PTR [BX]
   17BB 8B 19                MOV        BX, WORD PTR [BX+DI]
   17BD 4B                   DEC        BX
   17BE 4B                   DEC        BX
   17BF FF 27                JMP        WORD PTR [BX]

( @17C1-17D5 XT:17CB CFA:224C DLen: 10 STAGE: Dictionaries)
: +FIND
 HERE CURRENT @ [-FIND] ; 

( @17D5-180D XT:17E1 CFA:224C DLen: 44 STAGE: Dictionaries)
: (-FIND)
 HERE CONTEXT @ [-FINDS] DUP 0= IF 
  CONTEXT @ CURRENT @ = NOT IF 
   DROP HERE CURRENT @ [-FINDS] 
  THEN 
 THEN 
 ; 

( @180D-1861 XT:1818 CFA:1818 DLen: 73 STAGE: Dictionaries)
CODE (FIND)
(Address @1818
   1818 5B                   POP        BX
   1819 59                   POP        CX
   181A 56                   PUSH       SI
   181B 57                   PUSH       DI
   181C BA 3F 7F             MOV        DX, 7F3Fh
   181F E9 04 00             JMP        1826h                            ; .STARFLT_1826
 .STARFLT_1822:
 .STARFLT_1822:
   1822 4B                   DEC        BX
   1823 4B                   DEC        BX
   1824 8B 1F                MOV        BX, WORD PTR [BX]
 .STARFLT_1826:
   1826 09 DB                OR         BX, BX
   1828 74 2F                JZ         1859h                            ; .STARFLT_1859
   182A 8B F1                MOV        SI, CX
   182C 8B FB                MOV        DI, BX
   182E AC                   LODSB      
   182F 8A 25                MOV        AH, BYTE PTR [DI]                ; USER:SP0
   1831 20 D4                AND        AH, DL
   1833 38 C4                CMP        AH, AL
   1835 75 EB                JNZ        1822h                            ; .STARFLT_1822
 .STARFLT_1837:
   1837 47                   INC        DI
   1838 AC                   LODSB      
   1839 8A 25                MOV        AH, BYTE PTR [DI]                ; USER:SP0
   183B 30 C4                XOR        AH, AL
   183D 74 F8                JZ         1837h                            ; .STARFLT_1837
   183F 20 F4                AND        AH, DH
   1841 75 DF                JNZ        1822h                            ; .STARFLT_1822
   1843 8B C7                MOV        AX, DI
   1845 5F                   POP        DI
   1846 5E                   POP        SI
   1847 40                   INC        AX
   1848 40                   INC        AX
   1849 40                   INC        AX
   184A 50                   PUSH       AX
   184B 29 C0                SUB        AX, AX
   184D 40                   INC        AX
   184E 8A 17                MOV        DL, BYTE PTR [BX]
   1850 8A F4                MOV        DH, AH
   1852 52                   PUSH       DX
   1853 50                   PUSH       AX
   1854 AD                   LODSW      
   1855 8B D8                MOV        BX, AX
   1857 FF 27                JMP        WORD PTR [BX]
 .STARFLT_1859:
   1859 5F                   POP        DI
   185A 5E                   POP        SI
   185B 53                   PUSH       BX
   185C AD                   LODSW      
   185D 8B D8                MOV        BX, AX
   185F FF 27                JMP        WORD PTR [BX]
) CODE-END

( @1861-190E XT:186E CFA:224C DLen: 160 STAGE: Dictionaries)
: (FORGET)
 DUP CONTEXT @ U< IF 
  'FORTH CONTEXT ! 
 THEN 
 DUP CURRENT @ U< IF 
  DEFINITIONS 
 THEN 
 VOC-LINK @ BEGIN 
  2DUP [FORTHOUGHT:1A6E] WHILE 
  @ 
 REPEAT 
 DUP VOC-LINK ! BEGIN 
  ?DUP WHILE 
  0 OVER 2+ ! 2DUP 4 + 8 OVER + SWAP DO 
   I @ BEGIN 
    2DUP 1+ [FORTHOUGHT:1A6E] WHILE 
    2- @ 
   REPEAT 
   I ! OVER 2+ DUP @ I @ UMAX SWAP ! 2 
  /LOOP 
  DROP @ 
 REPEAT 
 LFALEN @ - DP ! ; 

( @190E-1934 XT:191A CFA:224C DLen: 26 STAGE: Dictionaries)
: (LINKS)
 OVER @ HERE SWAP , -1 , SWAP , SWAP ! ; 

( @1934-1957 XT:193F CFA:224C DLen: 24 STAGE: Dictionaries)
: <NAME>
 BL WORD LOWERCASE @ IF 
  DROP 
 ELSE 
  COUNT >UPPERCASE 
 THEN 
 ; 

( @1957-1977 XT:1961 CFA:224C DLen: 22 STAGE: Dictionaries)
: ?FIND
 <NAME> -FIND 0= ABORT" Not found" DROP ; 

( @1977-198C XT:1982 CFA:224C DLen: 10 STAGE: Dictionaries)
: ?[PTR]
 2+ @ 1+ 0= ; 

( @198C-19A6 XT:199C CFA:224C DLen: 10 STAGE: Dictionaries)
: DEFINITIONS
 CONTEXT @ CURRENT ! ; 

( @19A6-19CA XT:19B0 CFA:224C DLen: 26 STAGE: Dictionaries)
: EMPTY
 LFALEN DUP @ SWAP 2 OVER ! INITIAL-DP @ 2+ (FORGET) ! ; 

( @19CA-19E7 XT:19D3 CFA:224C DLen: 20 STAGE: Dictionaries)
: FIND
 <NAME> -FIND IF 
  DROP CFA 
 ELSE 
  0 
 THEN 
 ; 

( @19E7-1A5A XT:19F2 CFA:224C DLen: 104 STAGE: Dictionaries)
: FORGET
 <NAME> MSGFLAGS @ 64 AND IF 
  -FIND 0= _not-recognized 
 ELSE 
  +FIND 0= ABORT" Not in CURRENT vocabulary" 
 THEN 
 DROP NFA DUP WITHIN? 0= 0= ABORT" Within protected dictionary" (FORGET) ; 

( @1A5A-1A64 XT:1A5C CFA:224C DLen: 8 STAGE: Words)
: USER:LINKS>
 CURRENT @ (LINKS) ; 

( @1A64-1A6C XT:1A66 CFA:224C DLen: 6 STAGE: Memory)
: _forth_'links>
 'FORTH (LINKS) ; 

( @1A6C-1A7A XT:1A6E CFA:224C DLen: 12 STAGE: Words)
: [FORTHOUGHT:1A6E]
 U< OVER 0= 1- AND ; 

( @1A7A-1ABE XT:1A89 CFA:224C DLen: 53 STAGE: Dictionaries)
: VOCABULARY
 CREATE HERE 0 , HERE VOC-LINK @ , VOC-LINK ! 0 , 0 , 0 , 0 , 0 , LINKS> DOES> ( CFA @1AB5 ) 
  CONTEXT ! ; 

( @1ABE-1AD4 XT:1AC0 CFA:1AC0 DLen: 20 STAGE: Words)
CODE [FORTHOUGHT:1AC0]
(Address @1AC0
   1AC0 5B                   POP        BX
   1AC1 33 C0                XOR        AX, AX
   1AC3 8A 07                MOV        AL, BYTE PTR [BX]
   1AC5 43                   INC        BX
   1AC6 02 07                ADD        AL, BYTE PTR [BX]
   1AC8 25 06 00             AND        AX, 6
   1ACB 05 06 00             ADD        AX, 6
   1ACE 50                   PUSH       AX
   1ACF AD                   LODSW      
   1AD0 8B D8                MOV        BX, AX
   1AD2 FF 27                JMP        WORD PTR [BX]
) CODE-END

( @1AD4-1B00 XT:1AE0 CFA:224C DLen: 32 STAGE: Dictionaries)
: WITHIN?
 FENCE @ 1+ INITIAL-DP @ UMAX ME UMAX OVER SWAP U< SP@ ROT U< OR ; 

( @1B00-1B28 XT:1B0C CFA:224C DLen: 28 STAGE: Dictionaries)
: [-FIND]
 DUP ?[PTR] IF 
  2DROP 0 
 ELSE 
  OVER [FORTHOUGHT:1AC0] + @ (FIND) 
 THEN 
 ; 

( @1B28-1B77 XT:1B35 CFA:224C DLen: 66 STAGE: Dictionaries)
: [-FINDS]
 SWAP >R >R BEGIN 
  I' I DUP ?[PTR] IF 
   4 + @ 
  THEN 
  [-FIND] DUP 0= I @ 0= NOT AND WHILE 
  DROP R> @ >R 
 REPEAT 
 R> R> 2DROP ; 

( @1B77-1B83 XT:1B7D CFA:224C DLen: 6 STAGE: Dictionaries)
: ' IMMEDIATE
 ?FIND [COMPILE] LITERAL ; 

( @1B83-1BAB XT:1B8F CFA:224C DLen: 28 STAGE: Dictionaries)
: 'STREAM
 BLK @ ?DUP IF 
  BLOCK 
 ELSE 
  TIB @ 
 THEN 
 >IN @ + ; 

( @1BAB-1BD5 XT:1BB1 CFA:224C DLen: 36 STAGE: Dictionaries)
: ( IMMEDIATE
 -1 >IN +! 41 WORD C@ 1+ HERE + C@ 41 = NOT _?input ; 

( @1BD5-1BF0 XT:1BDE CFA:224C DLen: 18 STAGE: Dictionaries)
: (.")
 R@ COUNT DUP 1+ R> + >R TYPE ; 

( @1BF0-1C08 XT:1BFC CFA:224C DLen: 12 STAGE: Dictionaries)
: (;CODE)
 R> LATEST PFA CFA ! ; 

( @1C08-1C39 XT:1C15 CFA:224C DLen: 36 STAGE: Dictionaries)
: (ABORT")
 IF 
  WHERE CR R@ COUNT TYPE SP! QUIT 
 ELSE 
  R> DUP C@ + 1+ >R 
 THEN 
 ; 

( @1C39-1C4F XT:1C45 CFA:224C DLen: 10 STAGE: Dictionaries)
: (ABORT)
 SP! 0 _?space QUIT ; 

( @1C4F-1CAE XT:1C56 CFA:224C DLen: 88 STAGE: Dictionaries)
: ." IMMEDIATE
 'STREAM C@ 34 = IF 
  1 >IN +! 
 ELSE 
  34 STATE @ IF 
   COMPILE (.") 
  THEN 
  WORD DUP C@ 1+ OVER + C@ 34 = NOT _?input STATE @ IF 
   C@ 1+ ALLOT 
  ELSE 
   COUNT TYPE 
  THEN 
 THEN 
 ; 

( @1CAE-1D31 XT:1CBB CFA:224C DLen: 118 STAGE: Dictionaries)
: (CREATE)
 HERE 0 , <NAME> [FORTHOUGHT:1FF4] [FORTHOUGHT:20C6] [FORTHOUGHT:2057] HERE DUP C@ 
 31 AND 2DUP SWAP C! WIDTH @ MIN 1 MAX 1+ ALLOT DUP $0080 TOGGLE HERE 1- $0080 TOGGLE 
 2 ALLOT DUP [FORTHOUGHT:1AC0] CURRENT @ >R I + ROT OVER @ SWAP ! OVER SWAP ! R> 
 4 + ! (;CODE) 
 Address @1D29
   1D29 43                   INC        BX
   1D2A 43                   INC        BX
   1D2B 53                   PUSH       BX
   1D2C AD                   LODSW      
   1D2D 8B D8                MOV        BX, AX
   1D2F FF 27                JMP        WORD PTR [BX]

( @1D31-1DC8 XT:1D3E CFA:224C DLen: 138 STAGE: Dictionaries)
: (EXPECT)
 OVER + OVER DO 
  KEY $00FF AND DUP 8 = OVER 127 = OR IF 
   DROP DUP I = DUP R> 1- + >R IF 
    BELL 
   ELSE 
    BS SPACE BS 
   THEN 
   0 32 
  ELSE 
   DUP 13 = IF 
    DROP 0 BL LEAVE 
   ELSE 
    DUP 
   THEN 
   ?DUP IF 
    EMIT 1 SWAP 
   ELSE 
    DUP 
   THEN 
  THEN 
  I ! 
 /LOOP 
 DROP ; 

( @1DC8-1E18 XT:1DD8 CFA:224C DLen: 64 STAGE: Dictionaries)
: (INTERPRET)
 BEGIN 
  <NAME> -FIND IF 
   STATE @ U< IF 
    2- , 
   ELSE 
    EXECUTE [FORTHOUGHT:21C9] 
   THEN 
  ELSE 
   HERE NUMBER DPL @ 1+ IF 
    [COMPILE] 2LITERAL 
   ELSE 
    DROP [COMPILE] LITERAL 
   THEN 
  THEN 
 AGAIN 
 ; 

( @1E18-1E5C XT:1E23 CFA:224C DLen: 57 STAGE: Dictionaries)
: (LOAD)
 ?DUP 0= ABORT" Not loadable" BLK @ >R >IN @ >R 0 >IN ! BLK ! INTERPRET R> >IN ! 
 R> BLK ! ; 

( @1E5C-1EFB XT:1E68 CFA:224C DLen: 147 STAGE: Dictionaries)
: (WHERE)
 BLK @ ?DUP IF 
  DUP SCR ! CR CR ." Scr# " DUP . >IN @ $03FF MIN DUP R# ! C/L /MOD DUP ." LINE# " 
  . ROT CR CR .LINE >IN @ $03FF > + 
 ELSE 
  >IN @ 
 THEN 
 CR HERE C@ DUP >R - HERE R@ + 1+ C@ 32 = IF 
  1- 
 THEN 
 SPACES R> 0 DO 
  94 EMIT 
 LOOP 
 ; 

( @1EFB-1F73 XT:1F06 CFA:224C DLen: 109 STAGE: Dictionaries)
: (WORD)
 'STREAM SWAP ENCLOSE 2DUP > IF 
  2DROP 2DROP 0 HERE ! 
 ELSE 
  >IN +! OVER - DUP >R HERE C! + HERE 1+ R> DUP $00FF > MSGFLAGS @ 4 AND 0= 0= AND 
  ABORT" Input > 255 characters" 1+ CMOVE 
 THEN 
 HERE ; 

( @1F73-1F8F XT:1F7D CFA:224C DLen: 18 STAGE: Dictionaries)
: +LOOP IMMEDIATE
 3 ?PAIRS COMPILE (+LOOP) HERE - , ; 

( @1F8F-1FA3 XT:1F95 CFA:224C DLen: 14 STAGE: Dictionaries)
: ,
 HERE ! 2 DP +! [FORTHOUGHT:21C9] ; 

( @1FA3-1FBF XT:1FAD CFA:224C DLen: 18 STAGE: Dictionaries)
: /LOOP IMMEDIATE
 3 ?PAIRS COMPILE (/LOOP) HERE - , ; 

( @1FBF-1FD1 XT:1FC5 CFA:224C DLen: 12 STAGE: Dictionaries)
: ; IMMEDIATE
 ?CSP COMPILE EXIT SMUDGE [COMPILE] [ ; 

( @1FD1-1FF2 XT:1FDB CFA:224C DLen: 23 STAGE: Dictionaries)
: ?COMP
 STATE @ NOT ABORT" Compile only" ; 

( @1FF2-2028 XT:1FF4 CFA:224C DLen: 52 STAGE: Words)
: [FORTHOUGHT:1FF4]
 HERE C@ 0= NEGATE MSGFLAGS @ 16 AND AND ABORT" You can't redefine 'return'" ; 

( @2028-2055 XT:2031 CFA:224C DLen: 36 STAGE: Dictionaries)
: ?CSP
 SP@ CSP @ - ABORT" Definition not finished" ; 

( @2055-2077 XT:2057 CFA:224C DLen: 32 STAGE: Words)
: [FORTHOUGHT:2057]
 CURRENT @ ?[PTR] ABORT" No current vocabulary" ; 

( @2077-209B XT:2084 CFA:224C DLen: 23 STAGE: Dictionaries)
: ?LOADING
 BLK @ NOT ABORT" Loading only" ; 

( @209B-20C4 XT:20A6 CFA:224C DLen: 30 STAGE: Dictionaries)
: ?PAIRS
 - ABORT" Conditionals not paired" ; 

( @20C4-211B XT:20C6 CFA:224C DLen: 85 STAGE: Words)
: [FORTHOUGHT:20C6]
 MSGFLAGS @ 1 2 OR AND IF 
  +FIND IF 
   1 
  ELSE 
   MSGFLAGS @ 2 AND IF 
    -FIND 
   ELSE 
    0 
   THEN 
  THEN 
  IF 
   2DROP HERE COUNT TYPE ."  isn't unique " 
  THEN 
 THEN 
 ; 

( @211B-216A XT:2126 CFA:224C DLen: 68 STAGE: Dictionaries)
: ABORT" IMMEDIATE
 ?COMP COMPILE (ABORT") 'STREAM C@ 34 = IF 
  1 >IN +! 0 C, 
 ELSE 
  34 WORD DUP C@ 1+ SWAP OVER + C@ 34 = NOT _?input ALLOT 
 THEN 
 ; 

( @216A-2184 XT:2174 CFA:224C DLen: 16 STAGE: Dictionaries)
: AGAIN IMMEDIATE
 1 ?PAIRS COMPILE BRANCH HERE - , ; 

( @2184-2198 XT:218E CFA:224C DLen: 10 STAGE: Dictionaries)
: ALLOT
 DUP _?space DP +! ; 

( @2198-21AA XT:21A2 CFA:224C DLen: 8 STAGE: Dictionaries)
: BEGIN IMMEDIATE
 ?COMP HERE 1 ; 

( @21AA-21BB XT:21B1 CFA:224C DLen: 10 STAGE: Dictionaries)
: C,
 HERE C! 1 ALLOT ; 

( @21BB-21C7 XT:21C3 CFA:224C DLen: 4 STAGE: Dictionaries)
: CFA
 2- ; 

( @21C7-21E5 XT:21C9 CFA:21C9 DLen: 28 STAGE: Words)
CODE [FORTHOUGHT:21C9]
(Address @21C9
   21C9 A1 0B 0A             MOV        AX, WORD PTR [0A0Bh]             ; #SPACE
   21CC 03 45 04             ADD        AX, WORD PTR [DI+4]              ; USER:DP
   21CF 70 0F                JO         21E0h                            ; .STARFLT_21E0
   21D1 39 E0                CMP        AX, SP
   21D3 77 0B                JNBE       21E0h                            ; .STARFLT_21E0
   21D5 8B 05                MOV        AX, WORD PTR [DI]                ; USER:SP0
   21D7 39 E0                CMP        AX, SP
   21D9 72 05                JB         21E0h                            ; .STARFLT_21E0
   21DB AD                   LODSW      
   21DC 8B D8                MOV        BX, AX
   21DE FF 27                JMP        WORD PTR [BX]
 .STARFLT_21E0:
 .STARFLT_21E0:
 .STARFLT_21E0:
   21E0 BB 10 0B             MOV        BX, 0B10h
   21E3 FF 27                JMP        WORD PTR [BX]
) CODE-END

( @21E5-2201 XT:21F1 CFA:224C DLen: 16 STAGE: Dictionaries)
: COMPILE
 ?COMP R> DUP 2+ >R @ , ; 

( @2201-221D XT:220E CFA:224C DLen: 15 STAGE: Dictionaries)
: CONSTANT
 CREATE , (;CODE) 
 Address @2214
   2214 43                   INC        BX
   2215 43                   INC        BX
   2216 FF 37                PUSH       WORD PTR [BX]
   2218 AD                   LODSW      
   2219 8B D8                MOV        BX, AX
   221B FF 27                JMP        WORD PTR [BX]

( @221D-2230 XT:2224 CFA:224C DLen: 12 STAGE: Dictionaries)
: DO IMMEDIATE
 COMPILE (DO) HERE 3 ; 

( @2230-225A XT:2236 CFA:224C DLen: 36 STAGE: Dictionaries)
: :
 SP@ CSP ! CURRENT @ CONTEXT ! CREATE SMUDGE ] (;CODE) 
 Address @224C
   224C 43                   INC        BX
   224D 43                   INC        BX
   224E 4D                   DEC        BP
   224F 4D                   DEC        BP
   2250 89 76 00             MOV        WORD PTR [BP], SI
   2253 8B F3                MOV        SI, BX
   2255 AD                   LODSW      
   2256 8B D8                MOV        BX, AX
   2258 FF 27                JMP        WORD PTR [BX]

( @225A-227E XT:2264 CFA:224C DLen: 26 STAGE: Dictionaries)
: DOES> IMMEDIATE
 ?CSP COMPILE (;CODE) $00E8 C, ' _does ( $1649 ) HERE 2+ - , ; 

( @227E-229F XT:2287 CFA:224C DLen: 24 STAGE: Dictionaries)
: ELSE IMMEDIATE
 2 ?PAIRS COMPILE BRANCH HERE 0 , SWAP 2 [COMPILE] THEN 2 ; 

( @229F-22E6 XT:22AB CFA:22AB DLen: 59 STAGE: Dictionaries)
CODE ENCLOSE
(Address @22AB
   22AB 58                   POP        AX
   22AC 5B                   POP        BX
   22AD 53                   PUSH       BX
   22AE 28 E4                SUB        AH, AH
   22B0 BA FF FF             MOV        DX, -1
   22B3 4B                   DEC        BX
 .STARFLT_22B4:
   22B4 43                   INC        BX
   22B5 42                   INC        DX
   22B6 3A 07                CMP        AL, BYTE PTR [BX]
   22B8 74 FA                JZ         22B4h                            ; .STARFLT_22B4
   22BA 52                   PUSH       DX
   22BB 3A 27                CMP        AH, BYTE PTR [BX]
   22BD 75 0A                JNZ        22C9h                            ; .STARFLT_22C9
   22BF 8B C2                MOV        AX, DX
   22C1 42                   INC        DX
   22C2 52                   PUSH       DX
   22C3 50                   PUSH       AX
   22C4 AD                   LODSW      
   22C5 8B D8                MOV        BX, AX
   22C7 FF 27                JMP        WORD PTR [BX]
 .STARFLT_22C9:
 .STARFLT_22C9:
   22C9 43                   INC        BX
   22CA 42                   INC        DX
   22CB 3A 07                CMP        AL, BYTE PTR [BX]
   22CD 74 0D                JZ         22DCh                            ; .STARFLT_22DC
   22CF 3A 27                CMP        AH, BYTE PTR [BX]
   22D1 75 F6                JNZ        22C9h                            ; .STARFLT_22C9
   22D3 8B C2                MOV        AX, DX
   22D5 52                   PUSH       DX
   22D6 50                   PUSH       AX
   22D7 AD                   LODSW      
   22D8 8B D8                MOV        BX, AX
   22DA FF 27                JMP        WORD PTR [BX]
 .STARFLT_22DC:
   22DC 8B C2                MOV        AX, DX
   22DE 40                   INC        AX
   22DF 52                   PUSH       DX
   22E0 50                   PUSH       AX
   22E1 AD                   LODSW      
   22E2 8B D8                MOV        BX, AX
   22E4 FF 27                JMP        WORD PTR [BX]
) CODE-END

( @22E6-22F5 XT:22EF CFA:224C DLen: 6 STAGE: Dictionaries)
: HERE
 DP @ ; 

( @22F5-2307 XT:22FD CFA:224C DLen: 10 STAGE: Dictionaries)
: HEX
 16 BASE ! ; 

( @2307-231C XT:230E CFA:224C DLen: 14 STAGE: Dictionaries)
: IF IMMEDIATE
 COMPILE 0BRANCH HERE 0 , 2 ; 

( @231C-2334 XT:232A CFA:224C DLen: 10 STAGE: Dictionaries)
: IMMEDIATE
 LATEST 64 TOGGLE ; 

( @2334-234D XT:233F CFA:224C DLen: 14 STAGE: Dictionaries)
: LATEST
 CURRENT @ 4 + @ ; 

( @234D-235B XT:2355 CFA:224C DLen: 6 STAGE: Dictionaries)
: LFA
 NFA 2- ; 

( @235B-237D XT:2367 CFA:224C DLen: 22 STAGE: Dictionaries)
: LITERAL IMMEDIATE
 STATE @ IF 
  COMPILE LIT , 
 ELSE 
  [FORTHOUGHT:21C9] 
 THEN 
 ; 

( @237D-2398 XT:2386 CFA:224C DLen: 18 STAGE: Dictionaries)
: LOOP IMMEDIATE
 3 ?PAIRS COMPILE (LOOP) HERE - , ; 

( @2398-23BF XT:23A5 CFA:224C DLen: 26 STAGE: Dictionaries)
: 2LITERAL IMMEDIATE
 STATE @ IF 
  COMPILE 2LIT SWAP , , 
 ELSE 
  [FORTHOUGHT:21C9] 
 THEN 
 ; 

( @23BF-23D5 XT:23C7 CFA:224C DLen: 14 STAGE: Dictionaries)
: NFA
 3 - -1 TRAVERSE ; 

( @23D5-23E7 XT:23DD CFA:224C DLen: 10 STAGE: Dictionaries)
: PAD
 HERE 68 + ; 

( @23E7-23FB XT:23EF CFA:224C DLen: 12 STAGE: Dictionaries)
: PFA
 1 TRAVERSE 3 + ; 

( @23FB-2417 XT:2405 CFA:224C DLen: 18 STAGE: Dictionaries)
: QUERY
 TIB @ 80 EXPECT 0 >IN ! ; 

( @2417-245C XT:2420 CFA:224C DLen: 60 STAGE: Dictionaries)
: QUIT
 BYE BLK ! STATE @ [COMPILE] [ IF 
  LATEST C@ 32 AND IF 
   LATEST (FORGET) 
  THEN 
 THEN 
 BEGIN 
  CR RP! QUERY INTERPRET STATE @ 0= IF 
   _ok 
  THEN 
 AGAIN 
 ; 

( @245C-2477 XT:2467 CFA:224C DLen: 16 STAGE: Dictionaries)
: REPEAT IMMEDIATE
 >R >R [COMPILE] AGAIN R> R> 2- [COMPILE] THEN ; 

( @2477-248C XT:2482 CFA:224C DLen: 10 STAGE: Dictionaries)
: SMUDGE
 LATEST 32 TOGGLE ; 

( @248C-24B7 XT:2495 CFA:224C DLen: 34 STAGE: Dictionaries)
: TEXT
 HERE C/L 1+ BLANK WORD BL OVER DUP C@ + 1+ C! PAD C/L 1+ CMOVE ; 

( @24B7-24D2 XT:24C0 CFA:224C DLen: 18 STAGE: Dictionaries)
: THEN IMMEDIATE
 ?COMP 2 ?PAIRS HERE OVER - SWAP ! ; 

( @24D2-24F9 XT:24DF CFA:224C DLen: 26 STAGE: Dictionaries)
: TRAVERSE
 SWAP BEGIN 
  OVER + 127 OVER C@ < 
 UNTIL 
 SWAP DROP ; 

( @24F9-2513 XT:2503 CFA:224C DLen: 16 STAGE: Dictionaries)
: UNTIL IMMEDIATE
 1 ?PAIRS COMPILE 0BRANCH HERE - , ; 

( @2513-2528 XT:2520 CFA:224C DLen: 8 STAGE: Dictionaries)
: VARIABLE
 CREATE 2 ALLOT ; 

( @2528-2538 XT:2532 CFA:224C DLen: 6 STAGE: Dictionaries)
: WHILE IMMEDIATE
 [COMPILE] IF 2+ ; 

( @2538-2552 XT:253E CFA:224C DLen: 20 STAGE: Dictionaries)
: _?blk_input IMMEDIATE
 BLK @ IF 
  STATE @ _?input 
 THEN 
 R> DROP ; 

( @2552-2560 XT:2558 CFA:224C DLen: 8 STAGE: Dictionaries)
: [ IMMEDIATE
 0 STATE ! ; 

( @2560-2578 XT:256E CFA:224C DLen: 10 STAGE: Dictionaries)
: [COMPILE] IMMEDIATE
 ?COMP ?FIND CFA , ; 

( @2578-259C XT:257E CFA:224C DLen: 30 STAGE: Dictionaries)
: \ IMMEDIATE
 >IN @ 64 /MOD SWAP IF 
  1+ 
 THEN 
 64 * >IN ! ; 

( @259C-25AC XT:25A2 CFA:224C DLen: 10 STAGE: Dictionaries)
: ]
 $00C0 STATE ! ; 

( @25AC-25CD XT:25BC CFA:25BC DLen: 17 STAGE: Dictionaries)
CODE (?TERMINAL)
(Address @25BC
   25BC B4 01                MOV        SPL, 1
   25BE CD 16                INT        16h
   25C0 B8 01 00             MOV        AX, 1
   25C3 75 02                JNZ        25C7h                            ; .STARFLT_25C7
   25C5 29 C0                SUB        AX, AX
 .STARFLT_25C7:
   25C7 50                   PUSH       AX
   25C8 AD                   LODSW      
   25C9 8B D8                MOV        BX, AX
   25CB FF 27                JMP        WORD PTR [BX]
) CODE-END

( @25CD-25F3 XT:25D7 CFA:25D7 DLen: 28 STAGE: Dictionaries)
CODE (KEY)
(Address @25D7
 .STARFLT_25D7:
   25D7 B4 01                MOV        SPL, 1
   25D9 CD 16                INT        16h
   25DB 74 FA                JZ         25D7h                            ; .STARFLT_25D7
   25DD 29 C0                SUB        AX, AX
   25DF CD 16                INT        16h
   25E1 8B C8                MOV        CX, AX
   25E3 28 E4                SUB        AH, AH
   25E5 08 C0                OR         AL, AL
   25E7 75 04                JNZ        25EDh                            ; .STARFLT_25ED
   25E9 8A C5                MOV        AL, CH
   25EB B4 01                MOV        SPL, 1
 .STARFLT_25ED:
   25ED 50                   PUSH       AX
   25EE AD                   LODSW      
   25EF 8B D8                MOV        BX, AX
   25F1 FF 27                JMP        WORD PTR [BX]
) CODE-END

( Data:Variable @25F3-2600 XT:25FE CFA:1D29 DLen: 2 STAGE: Dictionaries)
VARIABLE BEEPMS ( @25FE=$0096)

( Data:Variable @2600-260F XT:260D CFA:1D29 DLen: 2 STAGE: Dictionaries)
VARIABLE BEEPTONE ( @260D=$0533)

( @260F-262D XT:2618 CFA:2618 DLen: 21 STAGE: Dictionaries)
CODE TONE
(Address @2618
   2618 59                   POP        CX
   2619 B0 B6                MOV        AL, FFB6h
   261B BA 43 00             MOV        DX, 0043h
   261E FA                   CLI        
   261F EE                   OUT        DX, AL
   2620 4A                   DEC        DX
   2621 8A C1                MOV        AL, CL
   2623 EE                   OUT        DX, AL
   2624 8A C5                MOV        AL, CH
   2626 EE                   OUT        DX, AL
   2627 FB                   STI        
   2628 AD                   LODSW      
   2629 8B D8                MOV        BX, AX
   262B FF 27                JMP        WORD PTR [BX]
) CODE-END

( @262D-2647 XT:2638 CFA:2638 DLen: 15 STAGE: Dictionaries)
CODE BEEPON
(Address @2638
   2638 FA                   CLI        
   2639 BA 61 00             MOV        DX, 0061h
   263C EC                   IN         AL, DX
   263D 80 C8 03             OR         AL, 3
   2640 EE                   OUT        DX, AL
   2641 FB                   STI        
   2642 AD                   LODSW      
   2643 8B D8                MOV        BX, AX
   2645 FF 27                JMP        WORD PTR [BX]
) CODE-END

( @2647-2662 XT:2653 CFA:2653 DLen: 15 STAGE: Dictionaries)
CODE BEEPOFF
(Address @2653
   2653 FA                   CLI        
   2654 BA 61 00             MOV        DX, 0061h
   2657 EC                   IN         AL, DX
   2658 80 E0 FC             AND        AL, -4
   265B EE                   OUT        DX, AL
   265C FB                   STI        
   265D AD                   LODSW      
   265E 8B D8                MOV        BX, AX
   2660 FF 27                JMP        WORD PTR [BX]
) CODE-END

( @2662-2685 XT:266B CFA:224C DLen: 26 STAGE: Dictionaries)
: BEEP
 ?SOUND @ IF 
  BEEPTONE @ TONE BEEPON BEEPMS @ MS BEEPOFF 
 THEN 
 ; 

( @2685-26C6 XT:2690 CFA:224C DLen: 54 STAGE: Dictionaries)
: (TYPE)
 BEGIN 
  DUP WHILE 
  2DUP COLMAX C@ COL C@ - 1+ UMIN >R CUR>ADDR R@ >VMOVE R@ CURFWD R@ - SWAP R> + 
  SWAP 
 REPEAT 
 2DROP ; 

( @26C6-26E5 XT:26CF CFA:224C DLen: 22 STAGE: Dictionaries)
: (BS)
 ?POSITION DUP IF 
  1- POSITION 
 ELSE 
  2DROP BEEP 
 THEN 
 ; 

( @26E5-270E XT:26EE CFA:224C DLen: 32 STAGE: Dictionaries)
: (CR)
 ?POSITION DROP DUP ROWMAX C@ = IF 
  1 SCROLLUP 
 ELSE 
  1+ 
 THEN 
 0 POSITION ; 

( RAW @270E-2726 DLen: 24 STAGE: Words)
CODE [FORTHOUGHT:270E]
(Address @270E
   270E 8B 5D 1A             MOV        BX, WORD PTR [DI+26]             ; USER:CURSORLOC
   2711 8A 45 1C             MOV        AL, BYTE PTR [DI+28]             ; USER:ROWMIN
   2714 00 D8                ADD        AL, BL
   2716 B3 50                MOV        BL, 50h
   2718 F6 E3                MUL        BL
   271A 8A DF                MOV        BL, BH
   271C 8A 7D 1D             MOV        BH, BYTE PTR [DI+29]             ; USER:COLMIN
   271F 00 FB                ADD        BL, BH
   2721 28 FF                SUB        BH, BH
   2723 01 D8                ADD        AX, BX
   2725 C3                   RET        
) CODE-END

( @2726-2741 XT:2731 CFA:224C DLen: 16 STAGE: Dictionaries)
: (EMIT)
 ATTRIBUTE @ + CUR>ADDR V! 1 CURFWD ; 

( @2741-2758 XT:274C CFA:224C DLen: 12 STAGE: Dictionaries)
: (PAGE)
 0 SCROLLUP 0 0 (POSITION) ; 

( @2758-2782 XT:2767 CFA:2767 DLen: 27 STAGE: Dictionaries)
CODE (POSITION)
(Address @2767
   2767 58                   POP        AX
   2768 88 45 1B             MOV        BYTE PTR [DI+27], AL             ; USER:COL
   276B 8A D0                MOV        DL, AL
   276D 58                   POP        AX
   276E 88 45 1A             MOV        BYTE PTR [DI+26], AL             ; USER:CURSORLOC
   2771 8A F0                MOV        DH, AL
   2773 29 DB                SUB        BX, BX
   2775 B4 02                MOV        SPL, 2
   2777 55                   PUSH       BP
   2778 56                   PUSH       SI
   2779 CD 10                INT        10h
   277B 5E                   POP        SI
   277C 5D                   POP        BP
   277D AD                   LODSW      
   277E 8B D8                MOV        BX, AX
   2780 FF 27                JMP        WORD PTR [BX]
) CODE-END

( @2782-27B4 XT:2790 CFA:224C DLen: 36 STAGE: Dictionaries)
: -TRAILING
 DUP 0 DO 
  2DUP + 1- C@ BL - IF 
   LEAVE 
  ELSE 
   1- 
  THEN 
 LOOP 
 ; 

( @27B4-27C0 XT:27BA CFA:224C DLen: 6 STAGE: Dictionaries)
: .
 S->D D. ; 

( @27C0-27DC XT:27CA CFA:224C DLen: 18 STAGE: Dictionaries)
: .LINE
 BLOCK SWAP C/L * + C/L -TRAILING TYPE ; 

( @27DC-27ED XT:27E3 CFA:224C DLen: 10 STAGE: Dictionaries)
: .R
 >R S->D R> D.R ; 

( @27ED-281C XT:27F8 CFA:27F8 DLen: 36 STAGE: Dictionaries)
CODE >VMOVE
(Address @27F8
   27F8 8B 45 18             MOV        AX, WORD PTR [DI+24]             ; USER:VIDEOMEM
   27FB 8E C0                MOV        ES, AX
   27FD 8B 45 20             MOV        AX, WORD PTR [DI+32]             ; USER:ATTRIBUTE
   2800 8B D7                MOV        DX, DI
   2802 8B DE                MOV        BX, SI
   2804 59                   POP        CX
   2805 5F                   POP        DI
   2806 5E                   POP        SI
   2807 E3 0A                JCXZ       2813h                            ; .STARFLT_2813
 .STARFLT_2809:
   2809 8A 04                MOV        AL, BYTE PTR [SI]
   280B 26 89 05             MOV        WORD PTR [ES:DI], AX
   280E 46                   INC        SI
   280F 47                   INC        DI
   2810 47                   INC        DI
   2811 E2 F6                LOOP       2809h                            ; .STARFLT_2809
 .STARFLT_2813:
   2813 8B F3                MOV        SI, BX
   2815 8B FA                MOV        DI, DX
   2817 AD                   LODSW      
   2818 8B D8                MOV        BX, AX
   281A FF 27                JMP        WORD PTR [BX]
) CODE-END

( @281C-2828 XT:2822 CFA:224C DLen: 6 STAGE: Dictionaries)
: ?
 @ . ; 

( @2828-2845 XT:2836 CFA:2836 DLen: 15 STAGE: Dictionaries)
CODE ?POSITION
(Address @2836
   2836 29 C0                SUB        AX, AX
   2838 8A 45 1A             MOV        AL, BYTE PTR [DI+26]             ; USER:CURSORLOC
   283B 50                   PUSH       AX
   283C 8A 45 1B             MOV        AL, BYTE PTR [DI+27]             ; USER:COL
   283F 50                   PUSH       AX
   2840 AD                   LODSW      
   2841 8B D8                MOV        BX, AX
   2843 FF 27                JMP        WORD PTR [BX]
) CODE-END

( @2845-285D XT:2852 CFA:2852 DLen: 11 STAGE: Dictionaries)
CODE CUR>ADDR
(Address @2852
   2852 E8 B9 FE             CALL       270Eh                            ; [FORTHOUGHT:270E]
   2855 D1 E0                SHL        AX, 1
   2857 50                   PUSH       AX
   2858 AD                   LODSW      
   2859 8B D8                MOV        BX, AX
   285B FF 27                JMP        WORD PTR [BX]
) CODE-END

( @285D-288E XT:2868 CFA:224C DLen: 38 STAGE: Dictionaries)
: CURFWD
 0 DO 
  ?POSITION DUP COLMAX @ < NOT IF 
   2DROP CR 
  ELSE 
   1+ POSITION 
  THEN 
 LOOP 
 ; 

( @288E-289D XT:2895 CFA:224C DLen: 8 STAGE: Dictionaries)
: D.
 0 D.R SPACE ; 

( @289D-28CB XT:28A5 CFA:224C DLen: 38 STAGE: Dictionaries)
: D.R
 3 ?ENOUGH >R SWAP OVER DUP D+- <# #S ROT SIGN #> R> OVER - SPACES TYPE ; 

( @28CB-291F XT:28D3 CFA:224C DLen: 76 STAGE: Dictionaries)
: ID.
 HERE 32 95 FILL DUP 1 TRAVERSE OVER - OVER 1+ SWAP 0 DO 
  I OVER + C@ 127 AND I HERE + C! 
 LOOP 
 DROP HERE SWAP C@ 31 AND TYPE ; 

( @291F-2966 XT:2928 CFA:224C DLen: 62 STAGE: Dictionaries)
: LIST
 CR DUP SCR ! ." Scr #" . 16 0 DO 
  CR I 3 .R SPACE I SCR @ .LINE ?TERMINAL IF 
   LEAVE 
  THEN 
 LOOP 
 CR ; 

( @2966-298C XT:2973 CFA:2973 DLen: 25 STAGE: Dictionaries)
CODE SCROLLUP
(Address @2973
   2973 58                   POP        AX
   2974 B4 06                MOV        SPL, 6
   2976 29 C9                SUB        CX, CX
   2978 8A 75 1E             MOV        DH, BYTE PTR [DI+30]             ; USER:ROWMAX
   297B 8A 55 1F             MOV        DL, BYTE PTR [DI+31]             ; USER:COLMAX
   297E 8B 5D 20             MOV        BX, WORD PTR [DI+32]             ; USER:ATTRIBUTE
   2981 55                   PUSH       BP
   2982 56                   PUSH       SI
   2983 CD 10                INT        10h
   2985 5E                   POP        SI
   2986 5D                   POP        BP
   2987 AD                   LODSW      
   2988 8B D8                MOV        BX, AX
   298A FF 27                JMP        WORD PTR [BX]
) CODE-END

( @298C-299C XT:2996 CFA:224C DLen: 6 STAGE: Dictionaries)
: SPACE
 BL EMIT ; 

( @299C-29BD XT:29A7 CFA:224C DLen: 22 STAGE: Dictionaries)
: SPACES
 0 MAX ?DUP IF 
  0 DO 
   SPACE 
  LOOP 
 THEN 
 ; 

( @29BD-29CA XT:29C4 CFA:224C DLen: 6 STAGE: Dictionaries)
: U.
 0 D. ; 

( @29CA-29DA XT:29D2 CFA:224C DLen: 8 STAGE: Dictionaries)
: U.R
 0 SWAP D.R ; 

( @29DA-29F5 XT:29E1 CFA:29E1 DLen: 20 STAGE: Dictionaries)
CODE V@
(Address @29E1
   29E1 8C D9                MOV        CX, DS
   29E3 8B 45 18             MOV        AX, WORD PTR [DI+24]             ; USER:VIDEOMEM
   29E6 8E D8                MOV        DS, AX
   29E8 5B                   POP        BX
   29E9 8B 07                MOV        AX, WORD PTR [BX]
   29EB B4 00                MOV        SPL, 0
   29ED 50                   PUSH       AX
   29EE 8E D9                MOV        DS, CX
   29F0 AD                   LODSW      
   29F1 8B D8                MOV        BX, AX
   29F3 FF 27                JMP        WORD PTR [BX]
) CODE-END

( @29F5-2A0E XT:29FC CFA:29FC DLen: 18 STAGE: Dictionaries)
CODE V!
(Address @29FC
   29FC 8C D9                MOV        CX, DS
   29FE 8B 45 18             MOV        AX, WORD PTR [DI+24]             ; USER:VIDEOMEM
   2A01 8E D8                MOV        DS, AX
   2A03 5B                   POP        BX
   2A04 58                   POP        AX
   2A05 89 07                MOV        WORD PTR [BX], AX
   2A07 8E D9                MOV        DS, CX
   2A09 AD                   LODSW      
   2A0A 8B D8                MOV        BX, AX
   2A0C FF 27                JMP        WORD PTR [BX]
) CODE-END

( @2A0E-2A2C XT:2A18 CFA:2A18 DLen: 20 STAGE: Dictionaries)
CODE VFILL
(Address @2A18
   2A18 8B 45 18             MOV        AX, WORD PTR [DI+24]             ; USER:VIDEOMEM
   2A1B 8B D7                MOV        DX, DI
   2A1D 8E C0                MOV        ES, AX
   2A1F 58                   POP        AX
   2A20 59                   POP        CX
   2A21 5F                   POP        DI
   2A22 FC                   CLD        
   2A23 F3 AB                STOSW      
   2A25 8B FA                MOV        DI, DX
   2A27 AD                   LODSW      
   2A28 8B D8                MOV        BX, AX
   2A2A FF 27                JMP        WORD PTR [BX]
) CODE-END

( @2A2C-2A54 XT:2A36 CFA:2A36 DLen: 30 STAGE: Dictionaries)
CODE VMOVE
(Address @2A36
   2A36 8B 45 18             MOV        AX, WORD PTR [DI+24]             ; USER:VIDEOMEM
   2A39 8B D7                MOV        DX, DI
   2A3B 8E C0                MOV        ES, AX
   2A3D 8E D8                MOV        DS, AX
   2A3F 59                   POP        CX
   2A40 5F                   POP        DI
   2A41 8B DE                MOV        BX, SI
   2A43 5E                   POP        SI
   2A44 F3 A5                MOVSW      
   2A46 8B F3                MOV        SI, BX
   2A48 8B FA                MOV        DI, DX
   2A4A 8C C8                MOV        AX, CS
   2A4C 8E D8                MOV        DS, AX
   2A4E FC                   CLD        
   2A4F AD                   LODSW      
   2A50 8B D8                MOV        BX, AX
   2A52 FF 27                JMP        WORD PTR [BX]
) CODE-END

( @2A54-2A66 XT:2A5F CFA:2A5F DLen: 7 STAGE: Dictionaries)
CODE VMOVE-
(Address @2A5F
   2A5F 8B 1E 34 2A          MOV        BX, WORD PTR [2A34h]             ; VMOVE-2
   2A63 FD                   STD        
   2A64 FF 27                JMP        WORD PTR [BX]
) CODE-END

( Data:Word @2A66-2A74 XT:2A72 CFA:2214 DLen: 2 STAGE: Dictionaries)
$01A0 CONSTANT MS/TICK

( Data:Word @2A74-2A84 XT:2A82 CFA:2214 DLen: 2 STAGE: Dictionaries)
$01AE CONSTANT TICKS/ADJ

( Data:Word @2A84-2A91 XT:2A8F CFA:2214 DLen: 2 STAGE: Dictionaries)
$01B5 CONSTANT MS/ADJ

( @2A91-2AEA XT:2A9A CFA:2A9A DLen: 80 STAGE: Dictionaries)
CODE TIME
(Address @2A9A
   2A9A BA 43 00             MOV        DX, 0043h
   2A9D 29 C0                SUB        AX, AX
   2A9F FA                   CLI        
   2AA0 EE                   OUT        DX, AL
   2AA1 BA 40 00             MOV        DX, 64
   2AA4 EC                   IN         AL, DX
   2AA5 8A C8                MOV        CL, AL
   2AA7 EC                   IN         AL, DX
   2AA8 8A E8                MOV        CH, AL
   2AAA F7 D9                NEG        CX
   2AAC 8A C5                MOV        AL, CH
   2AAE D1 E8                SHR        AX, 1
   2AB0 09 C0                OR         AX, AX
   2AB2 D1 D8                RCR        AX, 1
   2AB4 10 E0                ADC        AL, AH
   2AB6 8B 0E 93 01          MOV        CX, WORD PTR [0193h]             ; _clock-hdl+5
   2ABA 39 C8                CMP        AX, CX
   2ABC 7D 02                JNL        2AC0h                            ; .STARFLT_2AC0
   2ABE 8B C8                MOV        CX, AX
 .STARFLT_2AC0:
   2AC0 A1 8A 01             MOV        AX, WORD PTR [018Ah]             ; (TIME)+2
   2AC3 01 C8                ADD        AX, CX
   2AC5 A3 8A 01             MOV        WORD PTR [018Ah], AX             ; (TIME)+2
   2AC8 73 0A                JNB        2AD4h                            ; .STARFLT_2AD4
   2ACA A1 88 01             MOV        AX, WORD PTR [0188h]             ; (TIME)
   2ACD 81 D0 00 00          ADC        AX, 0
   2AD1 A3 88 01             MOV        WORD PTR [0188h], AX             ; (TIME)
 .STARFLT_2AD4:
   2AD4 A1 93 01             MOV        AX, WORD PTR [0193h]             ; _clock-hdl+5
   2AD7 29 C8                SUB        AX, CX
   2AD9 7D 02                JNL        2ADDh                            ; .STARFLT_2ADD
   2ADB 29 C0                SUB        AX, AX
 .STARFLT_2ADD:
   2ADD A3 93 01             MOV        WORD PTR [0193h], AX             ; _clock-hdl+5
   2AE0 FB                   STI        
   2AE1 B8 88 01             MOV        AX, 0188h                        ; (TIME)
   2AE4 50                   PUSH       AX
   2AE5 AD                   LODSW      
   2AE6 8B D8                MOV        BX, AX
   2AE8 FF 27                JMP        WORD PTR [BX]
) CODE-END

( @2AEA-2B15 XT:2AF1 CFA:224C DLen: 36 STAGE: Dictionaries)
: MS
 0 TIME 2@ D+ DNEGATE BEGIN 
  2DUP TIME 2@ D+ 0< WHILE 
  DROP 
 REPEAT 
 DROP 2DROP ; 

( Data:Word @2B15-2B23 XT:2B21 CFA:2214 DLen: 2 STAGE: Dictionaries)
3 CONSTANT #DRIVES

( Data:Word @2B23-2B2F XT:2B2D CFA:2214 DLen: 2 STAGE: Dictionaries)
2 CONSTANT #FCBS

( Data:Word @2B2F-2B3C XT:2B3A CFA:2214 DLen: 2 STAGE: Dictionaries)
4 CONSTANT #FILES

( Data:Word @2B3C-2B4B XT:2B49 CFA:2214 DLen: 2 STAGE: Dictionaries)
9 CONSTANT #SEC/TRK

( Data:Word @2B4B-2B5A XT:2B58 CFA:2214 DLen: 2 STAGE: Dictionaries)
2 CONSTANT DOS-FILE

( Data:Word @2B5A-2B68 XT:2B66 CFA:2214 DLen: 2 STAGE: Dictionaries)
8 CONSTANT RETRIES

( Data:Word @2B68-2B78 XT:2B76 CFA:2214 DLen: 2 STAGE: Dictionaries)
1 CONSTANT SECORIGIN

( Data:Variable @2B78-2B85 XT:2B83 CFA:1D29 DLen: 2 STAGE: Dictionaries)
VARIABLE 'SVBUF ( @2B83=$7B23 ( ' [STARFLT:7B23] ))

( Data:Variable @2B85-2B92 XT:2B90 CFA:1D29 DLen: 2 STAGE: Dictionaries)
VARIABLE 'MTBUF ( @2B90=$B3B8 ( ' ICINIT ))

( Data:Variable @2B92-2B9E XT:2B9C CFA:1D29 DLen: 2 STAGE: Dictionaries)
VARIABLE #SECS ( @2B9C=2)

( Data:Variable @2B9E-2BA9 XT:2BA7 CFA:1D29 DLen: 2 STAGE: Dictionaries)
VARIABLE 'FCB ( @2BA7=$2DCA)

( Data:Variable @2BA9-2BB6 XT:2BB4 CFA:1D29 DLen: 2 STAGE: Dictionaries)
VARIABLE 'CACHE ( @2BB4=$00CF)

( Data:Variable @2BB6-2BC6 XT:2BC4 CFA:1D29 DLen: 2 STAGE: Dictionaries)
VARIABLE 'DOSMOUNT ( @2BC4=$4705 ( ' DOSMOUNT ))

( Data:Variable @2BC6-2BD8 XT:2BD6 CFA:1D29 DLen: 2 STAGE: Dictionaries)
VARIABLE 'DOSUNMOUNT ( @2BD6=$4766 ( ' DOSUNMOUNT ))

( Data:Variable @2BD8-2BE5 XT:2BE3 CFA:1D29 DLen: 2 STAGE: Dictionaries)
VARIABLE REUSEC ( @2BE3=$00CF)

( Data:Variable @2BE5-2BF7 XT:2BF5 CFA:1D29 DLen: 2 STAGE: Dictionaries)
VARIABLE 1STCACHEBUF ( @2BF5=$2727)

( Data:Variable @2BF7-2C06 XT:2C04 CFA:1D29 DLen: 2 STAGE: Dictionaries)
VARIABLE BLKCACHE ( @2C04=$26F1)

( Data:Variable @2C06-2C17 XT:2C15 CFA:1D29 DLen: 2 STAGE: Dictionaries)
VARIABLE DEFAULTDRV ( @2C15=$6F2C)

( Data:Variable @2C17-2C28 XT:2C26 CFA:1D29 DLen: 2 STAGE: Dictionaries)
VARIABLE DISK-ERROR ( @2C26=0)

( Data:Variable @2C28-2C34 XT:2C32 CFA:1D29 DLen: 2 STAGE: Dictionaries)
VARIABLE DRIVE ( @2C32=3)

( Data @2C34-2C40 XT:2C3C CFA:1D29 DLen: 4 STAGE: Dictionaries)
CREATE DTA 4 ALLOT ( @2C3C =
@2C3C 00 01 F1 16                                       ....            
 )

( Data:Variable @2C40-2C4B XT:2C49 CFA:1D29 DLen: 2 STAGE: Dictionaries)
VARIABLE FILE ( @2C49=2)

( Data:Variable @2C4B-2C57 XT:2C55 CFA:1D29 DLen: 2 STAGE: Dictionaries)
VARIABLE FRESH ( @2C55=$C54C)

( Data:Variable @2C57-2C62 XT:2C60 CFA:1D29 DLen: 2 STAGE: Dictionaries)
VARIABLE HEAD ( @2C60=0)

( Data:Variable @2C62-2C6E XT:2C6C CFA:1D29 DLen: 2 STAGE: Dictionaries)
VARIABLE LPREV ( @2C6C=$26AF)

( Data:Variable @2C6E-2C7B XT:2C79 CFA:1D29 DLen: 2 STAGE: Dictionaries)
VARIABLE OFFSET ( @2C79=$02D0)

( Data:Variable @2C7B-2C86 XT:2C84 CFA:1D29 DLen: 2 STAGE: Dictionaries)
VARIABLE PREV ( @2C84=$26AF)

( Data:Variable @2C86-2C90 XT:2C8E CFA:1D29 DLen: 2 STAGE: Dictionaries)
VARIABLE SEC ( @2C8E=5)

( Data:Variable @2C90-2C9F XT:2C9D CFA:1D29 DLen: 2 STAGE: Dictionaries)
VARIABLE SEGCACHE ( @2C9D=$270C)

( Data:Variable @2C9F-2CAA XT:2CA8 CFA:1D29 DLen: 2 STAGE: Dictionaries)
VARIABLE SYSK ( @2CA8=$025B)

( Data:Variable @2CAA-2CB6 XT:2CB4 CFA:1D29 DLen: 2 STAGE: Dictionaries)
VARIABLE TRACK ( @2CB4=0)

( Data:Variable @2CB6-2CC0 XT:2CBE CFA:1D29 DLen: 2 STAGE: Dictionaries)
VARIABLE USE ( @2CBE=$266E)

( Data @2CC0-2CD6 XT:2CD0 CFA:1D29 DLen: 6 STAGE: Dictionaries)
CREATE =DRIVESIZES 6 ALLOT ( @2CD0 =
@2CD0 68 01 68 01 00 50                                 h.h..P          
 )

( @2CD6-2CEF XT:2CE5 CFA:224C DLen: 10 STAGE: Dictionaries)
: DRIVESIZES
 2* =DRIVESIZES + @ ; 

( @2CEF-2CFE XT:2CFA CFA:224C DLen: 4 STAGE: Dictionaries)
: BARRAY
 + ; 

( @2CFE-2D11 XT:2D09 CFA:224C DLen: 8 STAGE: Dictionaries)
: WARRAY
 SWAP 2* + ; 

( Data @2D11-2D27 XT:2D23 CFA:1D29 DLen: 4 STAGE: Dictionaries)
CREATE =DRIVENUMBERS 4 ALLOT ( @2D23 =
@2D23 00 00 00 00                                       ....            
 )

( Data @2D27-2D3C XT:2D34 CFA:1D29 DLen: 8 STAGE: Dictionaries)
CREATE =FCBPFAS 8 ALLOT ( @2D34 =
@2D34 00 27 00 00 9E 2D CA 2D                           .'...-.-        
 )

( Data @2D3C-2D54 XT:2D4C CFA:1D29 DLen: 8 STAGE: Dictionaries)
CREATE =FILEBLOCKS 8 ALLOT ( @2D4C =
@2D4C 00 00 00 00 00 00 00 00                           ........        
 )

( Data @2D54-2D67 XT:2D63 CFA:1D29 DLen: 4 STAGE: Dictionaries)
CREATE =FILETYPES 4 ALLOT ( @2D63 =
@2D63 FF FF FF FF                                       ....            
 )

( Data @2D67-2D7C XT:2D74 CFA:1D29 DLen: 8 STAGE: Dictionaries)
CREATE =OFFSETS 8 ALLOT ( @2D74 =
@2D74 FF FF FF FF FF FF FF FF                           ........        
 )

( Data:WordArray @2D7C-2D8F XT:2D87 CFA:1D29 DLen: 8 STAGE: Dictionaries)
CREATE =R/W'S
  $3631 ( ' DRIVES )
  $3344 ( ' [DIRECT] )
  $4425 ( ' [FILE] )
  $4425 ( ' [FILE] )

( Data @2D8F-2DEF XT:2D97 CFA:1D29 DLen: 88 STAGE: Dictionaries)
CREATE FCB 88 ALLOT ( @2D97 =
@2D97 00 00 00 00 00 00 00 04 42 4F 56 52 20 20 20 20   ........BOVR    
@2DA7 43 4D 50 02 00 00 04 01 94 21 00 24 10 7C 85 00   CMP......!.$.|..
@2DB7 03 02 A7 07 09 4A 04 62 62 01 00 00 00 00 00 00   .....J.bb.......
@2DC7 00 00 00 04 53 54 41 52 46 4C 54 20 43 4F 4D 00   ....STARFLT COM.
@2DD7 00 A7 D3 00 00 00 00 24 10 9A 85 00 03 42 00 00   .......$.....B..
@2DE7 7A 3F 0A 00 00 00 00 00                           z?......        
 )

( Data @2DEF-2E29 XT:2DFD CFA:1D29 DLen: 44 STAGE: Dictionaries)
CREATE FILENAMES 44 ALLOT ( @2DFD =
@2DFD 20 20 20 20 20 20 20 20 20 20 20 20 20 20 20 20                   
@2E0D 20 20 20 20 20 20 20 20 20 20 20 20 20 20 20 20                   
@2E1D 20 20 20 20 20 20 20 20 20 20 20 20                               
 )

( @2E29-2E40 XT:2E3A CFA:224C DLen: 6 STAGE: Dictionaries)
: DRIVENUMBERS
 =DRIVENUMBERS BARRAY ; 

( @2E40-2E52 XT:2E4C CFA:224C DLen: 6 STAGE: Dictionaries)
: FCBPFAS
 =FCBPFAS WARRAY ; 

( @2E52-2E67 XT:2E61 CFA:224C DLen: 6 STAGE: Dictionaries)
: FILEBLOCKS
 =FILEBLOCKS WARRAY ; 

( @2E67-2E7B XT:2E75 CFA:224C DLen: 6 STAGE: Dictionaries)
: FILETYPES
 =FILETYPES BARRAY ; 

( @2E7B-2E8D XT:2E87 CFA:224C DLen: 6 STAGE: Dictionaries)
: OFFSETS
 =OFFSETS WARRAY ; 

( @2E8D-2E9D XT:2E97 CFA:224C DLen: 6 STAGE: Dictionaries)
: R/W'S
 =R/W'S WARRAY ; 

( @2E9D-2EB1 XT:2EA4 CFA:2EA4 DLen: 13 STAGE: Dictionaries)
CODE L@
(Address @2EA4
   2EA4 8C DA                MOV        DX, DS
   2EA6 5B                   POP        BX
   2EA7 1F                   POP        DS
   2EA8 FF 37                PUSH       WORD PTR [BX]
   2EAA 8E DA                MOV        DS, DX
   2EAC AD                   LODSW      
   2EAD 8B D8                MOV        BX, AX
   2EAF FF 27                JMP        WORD PTR [BX]
) CODE-END

( @2EB1-2EC5 XT:2EB8 CFA:2EB8 DLen: 13 STAGE: Dictionaries)
CODE L!
(Address @2EB8
   2EB8 8C DA                MOV        DX, DS
   2EBA 5B                   POP        BX
   2EBB 1F                   POP        DS
   2EBC 8F 07                POP        WORD PTR [BX]
   2EBE 8E DA                MOV        DS, DX
   2EC0 AD                   LODSW      
   2EC1 8B D8                MOV        BX, AX
   2EC3 FF 27                JMP        WORD PTR [BX]
) CODE-END

( @2EC5-2EDD XT:2ECD CFA:2ECD DLen: 16 STAGE: Dictionaries)
CODE LC@
(Address @2ECD
   2ECD 8C DA                MOV        DX, DS
   2ECF 5B                   POP        BX
   2ED0 1F                   POP        DS
   2ED1 33 C0                XOR        AX, AX
   2ED3 8A 07                MOV        AL, BYTE PTR [BX]
   2ED5 50                   PUSH       AX
   2ED6 8E DA                MOV        DS, DX
   2ED8 AD                   LODSW      
   2ED9 8B D8                MOV        BX, AX
   2EDB FF 27                JMP        WORD PTR [BX]
) CODE-END

( @2EDD-2EF3 XT:2EE5 CFA:2EE5 DLen: 14 STAGE: Dictionaries)
CODE LC!
(Address @2EE5
   2EE5 8C DA                MOV        DX, DS
   2EE7 5B                   POP        BX
   2EE8 1F                   POP        DS
   2EE9 58                   POP        AX
   2EEA 88 07                MOV        BYTE PTR [BX], AL
   2EEC 8E DA                MOV        DS, DX
   2EEE AD                   LODSW      
   2EEF 8B D8                MOV        BX, AX
   2EF1 FF 27                JMP        WORD PTR [BX]
) CODE-END

( @2EF3-2F2A XT:2EFE CFA:2EFE DLen: 44 STAGE: Dictionaries)
CODE LCMOVE
(Address @2EFE
   2EFE 89 7E FE             MOV        WORD PTR [BP-2], DI
   2F01 8C C0                MOV        AX, ES
   2F03 8C DA                MOV        DX, DS
   2F05 8B DE                MOV        BX, SI
   2F07 59                   POP        CX
   2F08 5F                   POP        DI
   2F09 07                   POP        ES
   2F0A 5E                   POP        SI
   2F0B 1F                   POP        DS
   2F0C 52                   PUSH       DX
   2F0D D1 E9                SHR        CX, 1
   2F0F D1 D2                RCL        DX, 1
   2F11 0B C9                OR         CX, CX
   2F13 74 02                JZ         2F17h                            ; .STARFLT_2F17
   2F15 F3 A5                MOVSW      
 .STARFLT_2F17:
   2F17 83 E2 01             AND        DX, 1
   2F1A 74 01                JZ         2F1Dh                            ; .STARFLT_2F1D
   2F1C A4                   MOVSB      
 .STARFLT_2F1D:
   2F1D 8B F3                MOV        SI, BX
   2F1F 1F                   POP        DS
   2F20 8E C0                MOV        ES, AX
   2F22 8B 7E FE             MOV        DI, WORD PTR [BP-2]
   2F25 AD                   LODSW      
   2F26 8B D8                MOV        BX, AX
   2F28 FF 27                JMP        WORD PTR [BX]
) CODE-END

( @2F2A-2F46 XT:2F36 CFA:1D29 DLen: 16 STAGE: Dictionaries)
CREATE {LXCHG}
(Address @2F36
   2F36 51                   PUSH       CX
   2F37 26 8B 0F             MOV        CX, WORD PTR [ES:BX]
   2F3A 87 D8                XCHG       AX, BX
   2F3C 26 87 0F             XCHG       WORD PTR [ES:BX], CX
   2F3F 87 D8                XCHG       AX, BX
   2F41 26 89 0F             MOV        WORD PTR [ES:BX], CX
   2F44 59                   POP        CX
   2F45 C3                   RET        
) CODE-END

( @2F46-2F7A XT:2F51 CFA:2F51 DLen: 41 STAGE: Dictionaries)
CODE LWSCAN
(Address @2F51
   2F51 58                   POP        AX
   2F52 59                   POP        CX
   2F53 0B C9                OR         CX, CX
   2F55 75 06                JNZ        2F5Dh                            ; .STARFLT_2F5D
   2F57 83 C4 04             ADD        SP, 4
   2F5A 51                   PUSH       CX
   2F5B EB 18                JMP        2F75h                            ; .STARFLT_2F75
 .STARFLT_2F5D:
   2F5D 8C C2                MOV        DX, ES
   2F5F 8B DF                MOV        BX, DI
   2F61 5F                   POP        DI
   2F62 07                   POP        ES
   2F63 F2 AF                SCASW      
   2F65 4F                   DEC        DI
   2F66 4F                   DEC        DI
   2F67 26 3B 05             CMP        AX, WORD PTR [ES:DI]
   2F6A 75 04                JNZ        2F70h                            ; .STARFLT_2F70
   2F6C 57                   PUSH       DI
   2F6D B9 01 00             MOV        CX, 1
 .STARFLT_2F70:
   2F70 51                   PUSH       CX
   2F71 8B FB                MOV        DI, BX
   2F73 8E C2                MOV        ES, DX
 .STARFLT_2F75:
   2F75 AD                   LODSW      
   2F76 8B D8                MOV        BX, AX
   2F78 FF 27                JMP        WORD PTR [BX]
) CODE-END

( @2F7A-2F97 XT:2F89 CFA:224C DLen: 14 STAGE: Dictionaries)
: [SEGCACHE]
 'CACHE @ 2* SEGCACHE @ SWAP ; 

( @2F97-2FB4 XT:2FA6 CFA:224C DLen: 14 STAGE: Dictionaries)
: [BLKCACHE]
 'CACHE @ 2* BLKCACHE @ SWAP ; 

( @2FB4-2FCD XT:2FBF CFA:224C DLen: 14 STAGE: Dictionaries)
: UPDATE
 $00FF LPREV @ 2 LC! ; 

( @2FCD-2FDF XT:2FD9 CFA:224C DLen: 6 STAGE: Dictionaries)
: REFRESH
 FRESH ON ; 

( @2FDF-301F XT:2FE9 CFA:224C DLen: 54 STAGE: Dictionaries)
: MTBUF
 >R 0 I 0 L! 0 I 2 LC! $00FF I 3 LC! -1 I 6 L! 0 R> $0408 L! ; 

( @301F-303B XT:302D CFA:224C DLen: 14 STAGE: Dictionaries)
: MTBUFFERS
 USE @ MTBUF PREV @ MTBUF ; 

( @303B-309C XT:3048 CFA:3048 DLen: 84 STAGE: Dictionaries)
CODE (BUFFER)
(Address @3048
   3048 59                   POP        CX
   3049 8C C2                MOV        DX, ES
   304B 33 DB                XOR        BX, BX
   304D 33 C0                XOR        AX, AX
   304F FF 36 84 2C          PUSH       WORD PTR [2C84h]                 ; PREV
   3053 07                   POP        ES
   3054 26 39 4F 06          CMP        WORD PTR [ES:BX+6], CX
   3058 75 0A                JNZ        3064h                            ; .STARFLT_3064
   305A 26 82 7F 03 00       CMP        BYTE PTR [ES:BX+3], 0
   305F 75 01                JNZ        3062h                            ; .STARFLT_3062
   3061 40                   INC        AX
 .STARFLT_3062:
   3062 EB 20                JMP        3084h                            ; .STARFLT_3084
 .STARFLT_3064:
   3064 FF 36 BE 2C          PUSH       WORD PTR [2CBEh]                 ; USE
   3068 07                   POP        ES
   3069 26 39 4F 06          CMP        WORD PTR [ES:BX+6], CX
   306D 75 15                JNZ        3084h                            ; .STARFLT_3084
   306F 26 82 7F 03 00       CMP        BYTE PTR [ES:BX+3], 0
   3074 75 0E                JNZ        3084h                            ; .STARFLT_3084
   3076 40                   INC        AX
   3077 FF 36 84 2C          PUSH       WORD PTR [2C84h]                 ; PREV
   307B 06                   PUSH       ES
   307C 8F 06 84 2C          POP        WORD PTR [2C84h]                 ; PREV
   3080 8F 06 BE 2C          POP        WORD PTR [2CBEh]                 ; USE
 .STARFLT_3084:
 .STARFLT_3084:
 .STARFLT_3084:
   3084 0B C0                OR         AX, AX
   3086 75 03                JNZ        308Bh                            ; .STARFLT_308B
   3088 51                   PUSH       CX
   3089 EB 09                JMP        3094h                            ; .STARFLT_3094
 .STARFLT_308B:
   308B 06                   PUSH       ES
   308C 8B 0E 84 2C          MOV        CX, WORD PTR [2C84h]             ; PREV
   3090 89 0E 6C 2C          MOV        WORD PTR [2C6Ch], CX             ; LPREV
 .STARFLT_3094:
   3094 50                   PUSH       AX
   3095 8E C2                MOV        ES, DX
   3097 AD                   LODSW      
   3098 8B D8                MOV        BX, AX
   309A FF 27                JMP        WORD PTR [BX]
) CODE-END

( @309C-30C9 XT:30A8 CFA:30A8 DLen: 33 STAGE: Dictionaries)
CODE ADVANCE
(Address @30A8
   30A8 58                   POP        AX
   30A9 0B C0                OR         AX, AX
   30AB 74 17                JZ         30C4h                            ; .STARFLT_30C4
   30AD 8B D8                MOV        BX, AX
   30AF 83 EB 02             SUB        BX, 2
   30B2 06                   PUSH       ES
   30B3 FF 36 04 2C          PUSH       WORD PTR [2C04h]                 ; BLKCACHE
   30B7 07                   POP        ES
   30B8 E8 7B FE             CALL       2F36h                            ; {LXCHG}
   30BB FF 36 9D 2C          PUSH       WORD PTR [2C9Dh]                 ; SEGCACHE
   30BF 07                   POP        ES
   30C0 E8 73 FE             CALL       2F36h                            ; {LXCHG}
   30C3 07                   POP        ES
 .STARFLT_30C4:
   30C4 AD                   LODSW      
   30C5 8B D8                MOV        BX, AX
   30C7 FF 27                JMP        WORD PTR [BX]
) CODE-END

( @30C9-3107 XT:30D5 CFA:224C DLen: 50 STAGE: Dictionaries)
: MTCACHE
 #CACHE @ ?DUP IF 
  0 DO 
   I 'CACHE ! [SEGCACHE] L@ MTBUF -1 [BLKCACHE] L! 
  LOOP 
 THEN 
 #CACHE @ 1- REUSEC ! ; 

( @3107-316B XT:3115 CFA:224C DLen: 86 STAGE: Dictionaries)
: INITCACHE
 #CACHE @ IF 
  BLKCACHE @ #CACHE @ 2* 16 / 1+ DUP >R + DUP SEGCACHE ! R> + 1STCACHEBUF ! #CACHE 
  @ 0 DO 
   I 65 * 1STCACHEBUF @ + I 'CACHE ! [SEGCACHE] L! 
  LOOP 
 THEN 
 MTCACHE ; 

( @316B-31AD XT:3177 CFA:224C DLen: 54 STAGE: Dictionaries)
: (CACHE)
 >R BLKCACHE @ 0 #CACHE @ I LWSCAN IF 
  SEGCACHE @ OVER L@ SWAP ADVANCE DUP LPREV ! 1 
 ELSE 
  I 0 
 THEN 
 R> DROP ; 

( @31AD-31D7 XT:31BB CFA:224C DLen: 28 STAGE: Dictionaries)
: CACHE>USE
 USE @ >R 0 I 0 $0410 LCMOVE 0 R> 2 L! ; 

( @31D7-320B XT:31E5 CFA:224C DLen: 38 STAGE: Dictionaries)
: ?INBCACHE
 DUP 0 L@ ?DUP IF 
  6 L@ SWAP 6 L@ = 
 ELSE 
  DROP 0 
 THEN 
 ; 

( @320B-3237 XT:321B CFA:224C DLen: 28 STAGE: Dictionaries)
: [BUF>CACHE]
 DUP 0 OVER 0 L@ 0 $0410 LCMOVE 0 SWAP 2 LC! ; 

( @3237-325F XT:3245 CFA:224C DLen: 26 STAGE: Dictionaries)
: BUF>CACHE
 DUP ?INBCACHE OVER 2 LC@ AND IF 
  [BUF>CACHE] 
 ELSE 
  DROP 
 THEN 
 ; 

( @325F-32C9 XT:326B CFA:224C DLen: 94 STAGE: Dictionaries)
: SEC-I/O
 #SECS @ $16B6 C! $16B6 1+ C! DTA 2@ $16B8 ! $16C6 ! DRIVE @ $16BC C! HEAD @ $16BC 
 1+ C! TRACK @ $16BA 1+ C! SEC @ $16BA C! 19 INTERRUPT $16B6 1+ C@ ; 

( @32C9-32F3 XT:32D5 CFA:224C DLen: 30 STAGE: Dictionaries)
: T&SCALC
 2* #SEC/TRK /MOD 40 /MOD HEAD ! TRACK ! SECORIGIN + SEC ! ; 

( @32F3-3337 XT:32FD CFA:224C DLen: 58 STAGE: Dictionaries)
: [R/W]
 0 >R BEGIN 
  DUP SEC-I/O DUP RETRIES R> DUP 1+ >R > NEGATE AND WHILE 
  DROP 0 SEC-I/O DROP 
 REPEAT 
 R> $0100 * + DISK-ERROR ! ; 

( @3337-338C XT:3344 CFA:224C DLen: 72 STAGE: Dictionaries)
: [DIRECT]
 SWAP T&SCALC NOT 2+ SEC @ #SEC/TRK = IF 
  1 
 ELSE 
  2 
 THEN 
 #SECS ! [R/W] #SECS @ 1 = IF 
  SECORIGIN SEC ! 1 TRACK +! $0200 DTA +! [R/W] 
 THEN 
 DROP ; 

( @338C-33FC XT:3398 CFA:224C DLen: 100 STAGE: Dictionaries)
: <MOUNT>
 >R >R I I' FILETYPES C! I' DRIVENUMBERS C! FILENAMES I' 11 * + 11 CMOVE I' FCBPFAS 
 ! I' OFFSETS ! I' R/W'S ! R> 1 = IF 
  I 'DOSMOUNT @ EXECUTE 
 ELSE 
  0 I DRIVESIZES 
 THEN 
 I FILEBLOCKS ! R> OFFSETS @ OFFSET ! ; 

( Data @33FC-3413 XT:3408 CFA:1D29 DLen: 11 STAGE: Dictionaries)
CREATE DIRNAME 11 ALLOT ( @3408 =
@3408 2D 2D 64 69 72 65 63 74 2D 2D 20                  --direct--      
 )

( @3413-3431 XT:341B CFA:224C DLen: 22 STAGE: Dictionaries)
: DR0
 ' [DIRECT] ( $3344 ) 0 0 DIRNAME 1 0 0 <MOUNT> DROP ; 

( @3431-3451 XT:3439 CFA:224C DLen: 24 STAGE: Dictionaries)
: DR1
 ' [DIRECT] ( $3344 ) $0168 0 DIRNAME 2 0 1 <MOUNT> DROP ; 

( @3451-34BD XT:345F CFA:224C DLen: 94 STAGE: Dictionaries)
: <UNMOUNT>
 FLUSH >R I FILETYPES C@ 1 = IF 
  I 'DOSUNMOUNT @ EXECUTE 
 ELSE 
  0 
 THEN 
 0 I DRIVENUMBERS C! -1 I OFFSETS ! 0 I FILEBLOCKS ! $00FF I FILETYPES C! FILENAMES 
 I 11 * + 11 BL FILL R> DROP ; 

( @34BD-34E0 XT:34C9 CFA:224C DLen: 23 STAGE: Dictionaries)
: UNMOUNT
 <UNMOUNT> ABORT" Unable to close." ; 

( @34E0-3500 XT:34EC CFA:224C DLen: 20 STAGE: Dictionaries)
: NOFILES
 EMPTY-BUFFERS #FILES 0 DO 
  I <UNMOUNT> DROP 
 LOOP 
 ; 

( @3500-3511 XT:350D CFA:224C DLen: 4 STAGE: Dictionaries)
: NODRIVES
 NOFILES ; 

( @3511-3531 XT:351B CFA:224C DLen: 22 STAGE: Dictionaries)
: EMITS
 ?DUP IF 
  0 DO 
   DUP EMIT 
  LOOP 
 THEN 
 DROP ; 

( @3531-3628 XT:353B CFA:224C DLen: 237 STAGE: Dictionaries)
: FILES
 CR ." File#    Name     Drv   #Blocks    At   " CR 45 46 EMITS #FILES 0 DO 
  CR SPACE I 2 .R 3 SPACES I FILETYPES C@ $00FF = IF 
   ." <unassigned>" 
  ELSE 
   I 11 * FILENAMES + 11 TYPE SPACE I DRIVENUMBERS C@ 65 + 1- EMIT 58 EMIT 4 SPACES 
   I FILEBLOCKS @ 6 .R 2 SPACES I OFFSETS @ DUP 6 .R SPACE OFFSET @ = IF 
    27 EMIT ." OFFSET" 
   THEN 
  THEN 
 LOOP 
 CR 45 46 EMITS ; 

( @3628-3637 XT:3633 CFA:224C DLen: 4 STAGE: Dictionaries)
: DRIVES
 FILES ; 

( Data:WordArray @3637-3670 XT:3648 CFA:224C DLen: 40 STAGE: Dictionaries)
: (DISKERROR?)
  $2C24 ( ' DISK-ERROR )
  $0C92 ( ' C@ )
  $3AB1 ( ' ?UNRAVEL )
  $1690 ( ' EXIT )
  $2C82 ( ' PREV )
  $0BAE ( ' @ )
  $2FE7 ( ' MTBUF )
  $0630 ( ' BELL )
  $0642 ( ' CR )
  $0F20 ( ' 0 )
  $2C24 ( ' DISK-ERROR )
  $0C5E ( ' C! )
  $1C13 ( ' (ABORT") )
  $440B
  $7369
  $206B
  $7265
  $6F72
  $2172 ( ' AGAIN )
  $1690 ( ' EXIT )

( @3670-367D XT:3672 CFA:3672 DLen: 11 STAGE: Words)
CODE [FORTHOUGHT:3672]
(Address @3672
   3672 58                   POP        AX
   3673 03 06 79 2C          ADD        AX, WORD PTR [2C79h]             ; OFFSET
   3677 50                   PUSH       AX
   3678 AD                   LODSW      
   3679 8B D8                MOV        BX, AX
   367B FF 27                JMP        WORD PTR [BX]
) CODE-END

( @367D-36B9 XT:367F CFA:367F DLen: 58 STAGE: Words)
CODE [FORTHOUGHT:367F]
(Address @367F
   367F 5A                   POP        DX
   3680 57                   PUSH       DI
   3681 56                   PUSH       SI
   3682 55                   PUSH       BP
   3683 8B 0E 3A 2B          MOV        CX, WORD PTR [2B3Ah]             ; #FILES
   3687 BF 74 2D             MOV        DI, 2D74h                        ; =OFFSETS
   368A 33 DB                XOR        BX, BX
 .STARFLT_368C:
   368C 8B E9                MOV        BP, CX
   368E 4D                   DEC        BP
   368F D1 E5                SHL        BP, 1
   3691 8B F7                MOV        SI, DI
   3693 03 F5                ADD        SI, BP
   3695 8B C2                MOV        AX, DX
   3697 2B 04                SUB        AX, WORD PTR [SI]
   3699 78 0D                JS         36A8h                            ; .STARFLT_36A8
   369B BE 4C 2D             MOV        SI, 2D4Ch                        ; =FILEBLOCKS
   369E 03 F5                ADD        SI, BP
   36A0 39 04                CMP        WORD PTR [SI], AX
   36A2 78 04                JS         36A8h                            ; .STARFLT_36A8
   36A4 43                   INC        BX
   36A5 B9 01 00             MOV        CX, 1
 .STARFLT_36A8:
 .STARFLT_36A8:
   36A8 E2 E2                LOOP       368Ch                            ; .STARFLT_368C
   36AA D1 ED                SHR        BP, 1
   36AC 8B CD                MOV        CX, BP
   36AE 5D                   POP        BP
   36AF 5E                   POP        SI
   36B0 5F                   POP        DI
   36B1 50                   PUSH       AX
   36B2 51                   PUSH       CX
   36B3 53                   PUSH       BX
   36B4 AD                   LODSW      
   36B5 8B D8                MOV        BX, AX
   36B7 FF 27                JMP        WORD PTR [BX]
) CODE-END

( @36B9-36D5 XT:36BB CFA:36BB DLen: 26 STAGE: Words)
CODE [FORTHOUGHT:36BB]
(Address @36BB
   36BB 96                   XCHG       SI, AX
   36BC 33 C9                XOR        CX, CX
   36BE 5E                   POP        SI
   36BF 81 C6 23 2D          ADD        SI, 2D23h                        ; =DRIVENUMBERS
   36C3 8A 0C                MOV        CL, BYTE PTR [SI]
   36C5 0B C9                OR         CX, CX
   36C7 75 04                JNZ        36CDh                            ; .STARFLT_36CD
   36C9 8B 0E 15 2C          MOV        CX, WORD PTR [2C15h]             ; DEFAULTDRV
 .STARFLT_36CD:
   36CD 49                   DEC        CX
   36CE 51                   PUSH       CX
   36CF 96                   XCHG       SI, AX
   36D0 AD                   LODSW      
   36D1 8B D8                MOV        BX, AX
   36D3 FF 27                JMP        WORD PTR [BX]
) CODE-END

( @36D5-3713 XT:36D7 CFA:224C DLen: 60 STAGE: Words)
: USER:R/W
 SWAP [FORTHOUGHT:367F] IF 
  DUP FILE ! DUP [FORTHOUGHT:36BB] DRIVE ! >R 2SWAP DTA 2! SWAP R> R/W'S @ EXECUTE 
 ELSE 
  2DROP 2DROP DROP -1 DISK-ERROR ! 
 THEN 
 ; 

( @3713-3751 XT:3715 CFA:224C DLen: 60 STAGE: Words)
: [FORTHOUGHT:3715]
 >R USE @ >R I 8 I' 1 R/W I I 6 L! 0 I 0 L! 0 I 2 L! R> R> SWAP 6 L! ; 

( @3751-3781 XT:3753 CFA:224C DLen: 46 STAGE: Words)
: [FORTHOUGHT:3753]
 DUP 2 LC@ IF 
  DUP DUP 6 L@ 8 SWAP 0 R/W 0 SWAP 2 LC! 
 ELSE 
  DROP 
 THEN 
 ; 

( @3781-37AD XT:3783 CFA:224C DLen: 42 STAGE: Words)
: [FORTHOUGHT:3783]
 REUSEC @ 1+ DUP #CACHE @ = IF 
  DROP 0 
 THEN 
 DUP REUSEC ! DUP 'CACHE ! [SEGCACHE] L@ [FORTHOUGHT:3753] ; 

( @37AD-37D1 XT:37AF CFA:224C DLen: 34 STAGE: Words)
: [FORTHOUGHT:37AF]
 'CACHE ! >R [SEGCACHE] L@ I 0 L! I 6 L@ [BLKCACHE] L! R> [BUF>CACHE] ; 

( @37D1-3821 XT:37D3 CFA:224C DLen: 78 STAGE: Words)
: [FORTHOUGHT:37D3]
 USE @ >R I 3 LC@ NOT IF 
  #CACHE @ IF 
   I ?INBCACHE IF 
    I 2 LC@ IF 
     I BUF>CACHE 
    THEN 
   ELSE 
    I [FORTHOUGHT:3783] [FORTHOUGHT:37AF] 
   THEN 
  ELSE 
   I [FORTHOUGHT:3753] 
  THEN 
  I MTBUF 
 THEN 
 R> DROP ; 

( @3821-3847 XT:3823 CFA:224C DLen: 36 STAGE: Words)
: [FORTHOUGHT:3823]
 (BUFFER) IF 
  1 
 ELSE 
  DUP [FORTHOUGHT:37D3] (CACHE) IF 
   CACHE>USE (BUFFER) 
  ELSE 
   DROP 0 
  THEN 
 THEN 
 ; 

( @3847-3855 XT:3849 CFA:224C DLen: 12 STAGE: Words)
: [FORTHOUGHT:3849]
 DUP [FORTHOUGHT:3715] (BUFFER) DROP DISKERROR? ; 

( @3855-3875 XT:385F CFA:224C DLen: 22 STAGE: Dictionaries)
: BLOCK
 [FORTHOUGHT:3672] [FORTHOUGHT:3823] NOT IF 
  [FORTHOUGHT:3849] 
 THEN 
 SEG>ADDR 8 + ; 

( @3875-389C XT:3880 CFA:224C DLen: 28 STAGE: Dictionaries)
: LBLOCK
 [FORTHOUGHT:3672] (BUFFER) NOT IF 
  (CACHE) NOT IF 
   [FORTHOUGHT:37D3] [FORTHOUGHT:3849] 
  THEN 
 THEN 
 8 ; 

( @389C-38EB XT:38AD CFA:224C DLen: 62 STAGE: Dictionaries)
: SAVE-BUFFERS
 'SVBUF @ EXECUTE #CACHE @ ?DUP IF 
  USE @ BUF>CACHE PREV @ BUF>CACHE 0 DO 
   I 'CACHE ! [SEGCACHE] L@ [FORTHOUGHT:3753] 
  LOOP 
 THEN 
 USE @ [FORTHOUGHT:3753] PREV @ [FORTHOUGHT:3753] ; 

( @38EB-3909 XT:38FD CFA:224C DLen: 12 STAGE: Dictionaries)
: EMPTY-BUFFERS
 'MTBUF @ EXECUTE MTBUFFERS MTCACHE ; 

( @3909-3919 XT:3913 CFA:224C DLen: 6 STAGE: Dictionaries)
: FLUSH
 SAVE-BUFFERS EMPTY-BUFFERS ; 

( @3919-3934 XT:3922 CFA:224C DLen: 18 STAGE: Dictionaries)
: COPY
 SWAP BLOCK SWAP BLOCK $0400 CMOVE UPDATE ; 

( @3934-3989 XT:393F CFA:224C DLen: 74 STAGE: Dictionaries)
: BLOCKS
 >R 2DUP > IF 
  R> 0 DO 
   OVER I + OVER I + COPY 
  LOOP 
 ELSE 
  0 R> 1- DO 
   OVER I + OVER I + COPY -1 
  +LOOP 
 THEN 
 2DROP SAVE-BUFFERS ; 

( Data:Word @3989-3993 XT:3991 CFA:2214 DLen: 2 STAGE: Dictionaries)
$16B4 ( ' REGISTERS ) CONSTANT PSW

( Data:Word @3993-399C XT:399A CFA:2214 DLen: 2 STAGE: Dictionaries)
$16B6 CONSTANT AX

( Data:Word @399C-39A5 XT:39A3 CFA:2214 DLen: 2 STAGE: Dictionaries)
$16B8 CONSTANT BX

( Data:Word @39A5-39AE XT:39AC CFA:2214 DLen: 2 STAGE: Dictionaries)
$16BA CONSTANT CX

( Data:Word @39AE-39B7 XT:39B5 CFA:2214 DLen: 2 STAGE: Dictionaries)
$16BC CONSTANT DX

( Data:Word @39B7-39C0 XT:39BE CFA:2214 DLen: 2 STAGE: Dictionaries)
$16BE CONSTANT BP

( Data:Word @39C0-39C9 XT:39C7 CFA:2214 DLen: 2 STAGE: Dictionaries)
$16C0 CONSTANT DI

( Data:Word @39C9-39D2 XT:39D0 CFA:2214 DLen: 2 STAGE: Dictionaries)
$16C2 CONSTANT SI

( Data:Word @39D2-39DB XT:39D9 CFA:2214 DLen: 2 STAGE: Dictionaries)
$16C4 CONSTANT DS

( Data:Word @39DB-39E4 XT:39E2 CFA:2214 DLen: 2 STAGE: Dictionaries)
$16C6 CONSTANT ES

( @39E4-3A2C XT:39EE CFA:39EE DLen: 62 STAGE: Dictionaries)
CODE MATCH
(Address @39EE
   39EE 5A                   POP        DX
   39EF 5B                   POP        BX
   39F0 58                   POP        AX
   39F1 59                   POP        CX
   39F2 57                   PUSH       DI
   39F3 56                   PUSH       SI
   39F4 51                   PUSH       CX
   39F5 8B F9                MOV        DI, CX
   39F7 8C C9                MOV        CX, CS
   39F9 8E C1                MOV        ES, CX
 .STARFLT_39FB:
   39FB 39 D0                CMP        AX, DX
   39FD 72 15                JB         3A14h                            ; .STARFLT_3A14
   39FF 8B CA                MOV        CX, DX
   3A01 8B F3                MOV        SI, BX
   3A03 F3 A6                CMPSB      
   3A05 74 0A                JZ         3A11h                            ; .STARFLT_3A11
   3A07 29 D0                SUB        AX, DX
   3A09 01 C8                ADD        AX, CX
   3A0B 75 EE                JNZ        39FBh                            ; .STARFLT_39FB
   3A0D 8C C9                MOV        CX, CS
   3A0F 74 03                JZ         3A14h                            ; .STARFLT_3A14
 .STARFLT_3A11:
   3A11 B8 FF FF             MOV        AX, -1
 .STARFLT_3A14:
 .STARFLT_3A14:
   3A14 8B DF                MOV        BX, DI
   3A16 01 D8                ADD        AX, BX
   3A18 5B                   POP        BX
   3A19 29 D8                SUB        AX, BX
   3A1B 5E                   POP        SI
   3A1C 5F                   POP        DI
   3A1D 81 E9 01 00          SUB        CX, 1
   3A21 19 C9                SBB        CX, CX
   3A23 F7 D9                NEG        CX
   3A25 51                   PUSH       CX
   3A26 50                   PUSH       AX
   3A27 AD                   LODSW      
   3A28 8B D8                MOV        BX, AX
   3A2A FF 27                JMP        WORD PTR [BX]
) CODE-END

( @3A2C-3A40 XT:3A39 CFA:3A39 DLen: 7 STAGE: Dictionaries)
CODE @EXECUTE
(Address @3A39
   3A39 5B                   POP        BX
   3A3A 8B 1F                MOV        BX, WORD PTR [BX]
   3A3C 4B                   DEC        BX
   3A3D 4B                   DEC        BX
   3A3E FF 27                JMP        WORD PTR [BX]
) CODE-END

( @3A40-3A4A XT:3A48 CFA:224C DLen: 2 STAGE: Dictionaries)
: NOP
 ; 

( @3A4A-3A53 XT:3A51 CFA:224C DLen: 2 STAGE: Dictionaries)
: ** IMMEDIATE
 ; 

( Data:Variable @3A53-3A62 XT:3A60 CFA:1D29 DLen: 2 STAGE: Dictionaries)
VARIABLE 'UNRAVEL ( @3A60=$3A48 ( ' NOP ))

( @3A62-3AA6 XT:3A6E CFA:224C DLen: 56 STAGE: Dictionaries)
: UNRAVEL
 GAMEOP_ @EXECUTE R> DROP BEGIN 
  R> 2- @ CR DUP 0 8 D.R 3 SPACES 2+ NFA ID. RP@ R0 @ U< NOT 
 UNTIL 
 QUIT ; 

( @3AA6-3ABB XT:3AB3 CFA:224C DLen: 8 STAGE: Dictionaries)
: ?UNRAVEL
 IF 
  UNRAVEL 
 THEN 
 ; 

( @3ABB-3B05 XT:3AC3 CFA:224C DLen: 66 STAGE: Dictionaries)
: SYN
 CREATE FIND DUP , IMMEDIATE 2+ NFA C@ 64 AND IF 
  DOES> ( CFA @3ADF ) 
   @ CFAEXEC 
  ELSE 
   DOES> ( CFA @3AEC ) 
    STATE @ IF 
     @ , 
    ELSE 
     @ CFAEXEC 
    THEN 
   THEN 
   ; 

( Data:Variable @3B05-3B11 XT:3B0F CFA:1D29 DLen: 2 STAGE: Dictionaries)
VARIABLE TRACE ( @3B0F=0)

( Data:Variable @3B11-3B1E XT:3B1C CFA:1D29 DLen: 2 STAGE: Dictionaries)
VARIABLE [TRACE ( @3B1C=$3A48 ( ' NOP ))

( Data:Variable @3B1E-3B2B XT:3B29 CFA:1D29 DLen: 2 STAGE: Dictionaries)
VARIABLE TRACE] ( @3B29=$3A48 ( ' NOP ))

( Data:Syn @3B2B-3B34 XT:3B32 CFA:3AEC DLen: 2 STAGE: Dictionaries)
SYN D@ 2@

( Data:Syn @3B34-3B3D XT:3B3B CFA:3AEC DLen: 2 STAGE: Dictionaries)
SYN V= VARIABLE

( Data:Syn @3B3D-3B46 XT:3B44 CFA:3AEC DLen: 2 STAGE: Dictionaries)
SYN C= CONSTANT

( @3B46-3B58 XT:3B4E CFA:224C DLen: 10 STAGE: Dictionaries)
: 2V=
 CREATE 4 ALLOT ; 

( @3B58-3B6F XT:3B60 CFA:224C DLen: 15 STAGE: Dictionaries)
: 2C=
 CREATE , , DOES> ( CFA @3B68 ) 
  2@ ; 

( Data:Word @3B6F-3B77 XT:3B75 CFA:2214 DLen: 2 STAGE: Dictionaries)
3 CONSTANT 3

( Data:Word @3B77-3B7F XT:3B7D CFA:2214 DLen: 2 STAGE: Dictionaries)
4 CONSTANT 4

( Data:Word @3B7F-3B87 XT:3B85 CFA:2214 DLen: 2 STAGE: Dictionaries)
5 CONSTANT 5

( Data:Word @3B87-3B8F XT:3B8D CFA:2214 DLen: 2 STAGE: Dictionaries)
6 CONSTANT 6

( Data:Word @3B8F-3B97 XT:3B95 CFA:2214 DLen: 2 STAGE: Dictionaries)
7 CONSTANT 7

( Data:Word @3B97-3B9F XT:3B9D CFA:2214 DLen: 2 STAGE: Dictionaries)
8 CONSTANT 8

( Data:Word @3B9F-3BA7 XT:3BA5 CFA:2214 DLen: 2 STAGE: Dictionaries)
9 CONSTANT 9

( Data:Word @3BA7-3BB0 XT:3BAE CFA:2214 DLen: 2 STAGE: Dictionaries)
-1 CONSTANT -1

( Data:Word @3BB0-3BB9 XT:3BB7 CFA:2214 DLen: 2 STAGE: Dictionaries)
-2 CONSTANT -2

( @3BB9-3BE2 XT:3BC2 CFA:224C DLen: 32 STAGE: Dictionaries)
: THRU
 2DUP = IF 
  DROP LOAD 
 ELSE 
  1+ SWAP DO 
   I LOAD 
  LOOP 
 THEN 
 ; 

( @3BE2-3BF0 XT:3BEE CFA:224C DLen: 2 STAGE: Dictionaries)
: (TRACE)
 ; 

( Data:Variable @3BF0-3BFA XT:3BF8 CFA:1D29 DLen: 2 STAGE: Dictionaries)
VARIABLE OVA ( @3BF8=$DE40)

( Data @3BFA-3C09 XT:3C03 CFA:1D29 DLen: 6 STAGE: Dictionaries)
CREATE T-DP 6 ALLOT ( @3C03 =
@3C03 D4 D6 25 F5 D4 D6                                 ..%...          
 )

( @3C09-3C27 XT:3C19 CFA:224C DLen: 14 STAGE: Dictionaries)
: TRANS-ALLOT
 OVA @ SWAP - T-DP ! ; 

( @3C27-3C41 XT:3C33 CFA:224C DLen: 14 STAGE: Dictionaries)
: NEWT-DP
 T-DP @ T-DP 4 + ! ; 

( @3C41-3C65 XT:3C4F CFA:224C DLen: 22 STAGE: Dictionaries)
: TRANSIENT
 HERE T-DP 2+ ! T-DP 4 + @ DP ! ; 

( @3C65-3C88 XT:3C72 CFA:224C DLen: 22 STAGE: Dictionaries)
: RESIDENT
 HERE T-DP 4 + ! T-DP 2+ @ DP ! ; 

( @3C88-3CB9 XT:3C92 CFA:224C DLen: 39 STAGE: Dictionaries)
: HEAD:
 HERE TRANSIENT CREATE , IMMEDIATE RESIDENT DOES> ( CFA @3CA0 ) 
  @ STATE @ IF 
   , 
  ELSE 
   2+ EXECUTE 
  THEN 
  ; 

( @3CB9-3CD8 XT:3CC0 CFA:224C DLen: 24 STAGE: Dictionaries)
: T: IMMEDIATE
 $224C , SP@ CSP ! CURRENT @ CONTEXT ! ] ; 

( @3CD8-3CE9 XT:3CDF CFA:224C DLen: 10 STAGE: Dictionaries)
: T; IMMEDIATE
 ?CSP COMPILE EXIT [COMPILE] [ ; 

( @3CE9-3D37 XT:3CEB CFA:224C DLen: 76 STAGE: Words)
: [FORTHOUGHT:3CEB]
 BEGIN 
  DUP 2- @ ?DUP WHILE 
  DUP T-DP @ U< NOT OVER OVA @ U< AND IF 
   TRACE @ IF 
    DUP ID. SPACE 
   THEN 
   2- @ OVER 2- ! 
  ELSE 
   SWAP DROP 
  THEN 
 REPEAT 
 DROP ; 

( @3D37-3D83 XT:3D39 CFA:224C DLen: 74 STAGE: Words)
: [FORTHOUGHT:3D39]
 VOC-LINK BEGIN 
  DUP @ ?DUP WHILE 
  DUP T-DP @ U< NOT OVER OVA @ U< AND IF 
   TRACE @ IF 
    DUP 2- NFA ID. 
   THEN 
   @ OVER ! 
  ELSE 
   SWAP DROP 
  THEN 
 REPEAT 
 DROP ; 

( @3D83-3DF1 XT:3D8F CFA:224C DLen: 98 STAGE: Dictionaries)
: DISPOSE
 CR VOC-LINK @ 4 - NFA ID. T-DP 4 + @ T-DP @ - ."  Transbytes= " . NEWT-DP [FORTHOUGHT:3D39] 
 VOC-LINK BEGIN 
  DUP @ ?DUP WHILE 
  4 0 DO 
   I 2* 6 + OVER + [FORTHOUGHT:3CEB] 
  LOOP 
  DROP @ 
 REPEAT 
 DROP ; 

( @3DF1-3E17 XT:3DF7 CFA:224C DLen: 32 STAGE: Dictionaries)
: ' IMMEDIATE
 ?FIND DUP 2- @ ' HEAD: ( $3C92 ) 14 + = IF 
  @ 2+ 
 THEN 
 [COMPILE] LITERAL ; 

( Data @3E17-3E25 XT:3E21 CFA:1D29 DLen: 4 STAGE: Dictionaries)
CREATE (2V:) 4 ALLOT ( @3E21 =
@3E21 54 20 2D 20                                       T -             
 )

( Data:Word @3E25-3E30 XT:3E2E CFA:2214 DLen: 2 STAGE: Dictionaries)
0 CONSTANT (C:)

( Data:DoubleWord @3E30-3E3E XT:3E3A CFA:3B68 DLen: 4 STAGE: Dictionaries)
$000000. ( CLASS: ) 2C= (2C:)

( @3E3E-3E53 XT:3E45 CFA:224C DLen: 14 STAGE: Dictionaries)
: V:
 HEAD: $1D29 , 2 ALLOT ; 

( @3E53-3E69 XT:3E5B CFA:224C DLen: 14 STAGE: Dictionaries)
: 2V:
 HEAD: $1D29 , 4 ALLOT ; 

( @3E69-3E7C XT:3E70 CFA:224C DLen: 12 STAGE: Dictionaries)
: C:
 HEAD: $2214 , , ; 

( @3E7C-3E92 XT:3E84 CFA:224C DLen: 14 STAGE: Dictionaries)
: 2C:
 HEAD: $3B68 , , , ; 

( @3E92-3EB2 XT:3E9A CFA:224C DLen: 24 STAGE: Dictionaries)
: TAB
 COL C@ OVER + OVER / * ROW C@ SWAP POSITION ; 

( @3EB2-3ED0 XT:3EBC CFA:224C DLen: 20 STAGE: Dictionaries)
: ROOM?
 COL C@ + COLMAX @ > IF 
  CR 
 THEN 
 ; 

( @3ED0-3EE7 XT:3EDD CFA:224C DLen: 10 STAGE: Dictionaries)
: EXECUTES
 @ ME + ! ; 

( @3EE7-3EFA XT:3EF2 CFA:224C DLen: 8 STAGE: Dictionaries)
: BINARY
 2 BASE ! ; 

( @3EFA-3F11 XT:3F01 CFA:224C DLen: 16 STAGE: Dictionaries)
: H.
 BASE @ SWAP HEX U. BASE ! ; 

( @3F11-3F23 XT:3F1B CFA:224C DLen: 8 STAGE: Dictionaries)
: RANGE
 OVER + SWAP ; 

( @3F23-3F39 XT:3F2D CFA:224C DLen: 12 STAGE: Dictionaries)
: ASCII IMMEDIATE
 BL WORD 1+ C@ [COMPILE] LITERAL ; 

( @3F39-3F4B XT:3F3B CFA:224C DLen: 16 STAGE: Internal)
: (")
 R@ COUNT DUP 1+ R> + >R ; 

( @3F4B-3F87 XT:3F51 CFA:224C DLen: 54 STAGE: Dictionaries)
: " IMMEDIATE
 STATE @ IF 
  COMPILE (") 
 THEN 
 34 WORD STATE @ IF 
  C@ 1+ ALLOT 
 ELSE 
  DUP C@ 1+ PAD SWAP CMOVE PAD COUNT 
 THEN 
 ; 

( @3F87-3FA7 XT:3F8F CFA:224C DLen: 24 STAGE: Dictionaries)
: DU<
 >R >R $8000 + R> R> $8000 + D< ; 

( @3FA7-3FC6 XT:3FB0 CFA:224C DLen: 22 STAGE: Dictionaries)
: PICK
 DUP 1 < IF 
  UNRAVEL 
 THEN 
 2* SP@ + @ ; 

( @3FC6-4005 XT:3FCF CFA:224C DLen: 54 STAGE: Dictionaries)
: ROLL
 DUP 1 < IF 
  UNRAVEL 
 THEN 
 1+ DUP PICK SWAP 2* SP@ + BEGIN 
  DUP 2- @ OVER ! 2- SP@ OVER U< NOT 
 UNTIL 
 2DROP ; 

( @4005-4019 XT:400F CFA:224C DLen: 10 STAGE: Dictionaries)
: 2OVER
 4 PICK 4 PICK ; 

( @4019-4026 XT:4020 CFA:224C DLen: 6 STAGE: Dictionaries)
: D-
 DNEGATE D+ ; 

( @4026-4034 XT:402E CFA:224C DLen: 6 STAGE: Dictionaries)
: D0=
 OR 0= ; 

( @4034-4041 XT:403B CFA:224C DLen: 6 STAGE: Dictionaries)
: D=
 D- D0= ; 

( @4041-404E XT:4048 CFA:224C DLen: 6 STAGE: Dictionaries)
: D>
 2SWAP D< ; 

( @404E-406D XT:4059 CFA:224C DLen: 20 STAGE: Dictionaries)
: WITHIN
 ROT >R I > SWAP 1- R> < AND ; 

( @406D-4086 XT:4076 CFA:224C DLen: 16 STAGE: Dictionaries)
: DMIN
 2OVER 2OVER D> IF 
  2SWAP 
 THEN 
 2DROP ; 

( @4086-409F XT:408F CFA:224C DLen: 16 STAGE: Dictionaries)
: DMAX
 2OVER 2OVER D< IF 
  2SWAP 
 THEN 
 2DROP ; 

( @409F-40C6 XT:40AA CFA:224C DLen: 28 STAGE: Dictionaries)
: MYSELF IMMEDIATE
 LATEST PFA CFA DUP @ $3CA0 = IF 
  2+ @ 
 THEN 
 , ; 

( @40C6-40E3 XT:40CF CFA:224C DLen: 20 STAGE: Dictionaries)
: >TIB
 TIB @ 2DUP + OFF SWAP CMOVE >IN OFF ; 

( @40E3-40FB XT:40EF CFA:224C DLen: 12 STAGE: Dictionaries)
: DOSPARM
 $0080 COUNT >TIB INTERPRET ; 

( @40FB-410E XT:4104 CFA:224C DLen: 10 STAGE: Dictionaries)
: XFCB
 'FCB @ 7 - ; 

( @410E-411C XT:4116 CFA:224C DLen: 6 STAGE: Dictionaries)
: DRV
 'FCB @ ; 

( @411C-412C XT:4124 CFA:224C DLen: 8 STAGE: Dictionaries)
: NAM
 'FCB @ 1+ ; 

( @412C-4140 XT:4134 CFA:224C DLen: 12 STAGE: Dictionaries)
: TYP
 'FCB @ 9 + ; 

( @4140-4157 XT:414B CFA:224C DLen: 12 STAGE: Dictionaries)
: CURBLK
 'FCB @ 12 + ; 

( @4157-416F XT:4163 CFA:224C DLen: 12 STAGE: Dictionaries)
: RECSIZE
 'FCB @ 14 + ; 

( @416F-4188 XT:417C CFA:224C DLen: 12 STAGE: Dictionaries)
: FILESIZE
 'FCB @ 16 + ; 

( @4188-419F XT:4193 CFA:224C DLen: 12 STAGE: Dictionaries)
: CURREC
 'FCB @ 32 + ; 

( @419F-41B6 XT:41AA CFA:224C DLen: 12 STAGE: Dictionaries)
: RELREC
 'FCB @ 33 + ; 

( @41B6-41DD XT:41C1 CFA:224C DLen: 28 STAGE: Dictionaries)
: CLRFCB
 XFCB 44 0 FILL NAM 11 BL FILL 0 XFCB C! ; 

( @41DD-41F6 XT:41E8 CFA:224C DLen: 14 STAGE: Dictionaries)
: SYSTEM
 ' FCB ( $2D97 ) 7 + 'FCB ! ; 

( @41F6-4212 XT:4202 CFA:224C DLen: 16 STAGE: Dictionaries)
: SYSUTIL
 ' FCB ( $2D97 ) 51 + 'FCB ! ; 

( @4212-422C XT:421E CFA:224C DLen: 14 STAGE: Dictionaries)
: DOSCALL
 AX 1+ C! 33 INTERRUPT ; 

( @422C-424B XT:4237 CFA:224C DLen: 20 STAGE: Dictionaries)
: SELDSK
 DUP DEFAULTDRV ! 1- DX ! 14 DOSCALL ; 

( @424B-4259 XT:4253 CFA:224C DLen: 6 STAGE: Dictionaries)
: A::
 1 SELDSK ; 

( @4259-4267 XT:4261 CFA:224C DLen: 6 STAGE: Dictionaries)
: B::
 2 SELDSK ; 

( @4267-4275 XT:426F CFA:224C DLen: 6 STAGE: Dictionaries)
: C::
 3 SELDSK ; 

( @4275-42C6 XT:4280 CFA:224C DLen: 70 STAGE: Dictionaries)
: SETFCB
 CLRFCB BL WORD 1+ SI ! 'FCB @ DI ! (CS?) DUP DS ! ES ! 5 AX ! 41 DOSCALL AX C@ $00FF 
 = DI @ 1+ C@ BL = OR ; 

( @42C6-42D7 XT:42CF CFA:224C DLen: 8 STAGE: Dictionaries)
: INIT
 13 DOSCALL ; 

( @42D7-42F9 XT:42E3 CFA:224C DLen: 22 STAGE: Dictionaries)
: FCBCALL
 'FCB @ DX ! (CS?) DS ! DOSCALL AX C@ ; 

( @42F9-430A XT:4302 CFA:224C DLen: 8 STAGE: Dictionaries)
: OPEN
 15 FCBCALL ; 

( @430A-431C XT:4314 CFA:224C DLen: 8 STAGE: Dictionaries)
: CLOSE
 16 FCBCALL ; 

( @431C-4332 XT:432A CFA:224C DLen: 8 STAGE: Dictionaries)
: SEARCH1ST
 17 FCBCALL ; 

( @4332-4347 XT:433F CFA:224C DLen: 8 STAGE: Dictionaries)
: READNEXT
 20 FCBCALL ; 

( @4347-435D XT:4355 CFA:224C DLen: 8 STAGE: Dictionaries)
: WRITENEXT
 21 FCBCALL ; 

( @435D-436E XT:4366 CFA:224C DLen: 8 STAGE: Dictionaries)
: MAKE
 22 FCBCALL ; 

( @436E-438E XT:437A CFA:224C DLen: 20 STAGE: Dictionaries)
: DOS-DTA
 DTA 2@ DX ! DS ! 26 DOSCALL ; 

( @438E-43A6 XT:439E CFA:224C DLen: 8 STAGE: Dictionaries)
: READ-RANDOM
 33 FCBCALL ; 

( @43A6-43BF XT:43B7 CFA:224C DLen: 8 STAGE: Dictionaries)
: WRITE-RANDOM
 34 FCBCALL ; 

( @43BF-43CE XT:43C1 CFA:224C DLen: 13 STAGE: Words)
: [FORTHOUGHT:43C1]
 ABORT" Bad name" ; 

( @43CE-43F5 XT:43DD CFA:224C DLen: 24 STAGE: Dictionaries)
: MAKE<NAME>
 SETFCB [FORTHOUGHT:43C1] MAKE ABORT" Can't create." ; 

( @43F5-441A XT:4404 CFA:224C DLen: 22 STAGE: Dictionaries)
: OPEN<NAME>
 SETFCB [FORTHOUGHT:43C1] OPEN ABORT" Can't open." ; 

( @441A-444B XT:4425 CFA:224C DLen: 38 STAGE: Dictionaries)
: [FILE]
 DOS-DTA FILE @ FCBPFAS @ 'FCB ! SWAP RELREC ! IF 
  READ-RANDOM 
 ELSE 
  WRITE-RANDOM 
 THEN 
 DISK-ERROR ! ; 

( @444B-4486 XT:4456 CFA:224C DLen: 48 STAGE: Dictionaries)
: SYSGEN
 CR FREEZE (RESTORE) SYSUTIL INIT MAKE<NAME> (CS?) $0100 DTA 2! DOS-DTA HERE $0100 
 - RECSIZE ! WRITENEXT (SETUP) ?UNRAVEL CLOSE ?UNRAVEL ; 

( @4486-44C0 XT:4492 CFA:224C DLen: 46 STAGE: Dictionaries)
: 4TH>DOS
 SYSUTIL MAKE<NAME> $0400 RECSIZE ! 1+ SWAP DO 
  (CS?) I BLOCK DTA 2! DOS-DTA SYSUTIL WRITENEXT ?UNRAVEL 
 LOOP 
 CLOSE ?UNRAVEL ; 

( @44C0-4518 XT:44C2 CFA:224C DLen: 86 STAGE: Words)
: _find_stara
 'FCB @ >R 0 PAD C! PAD 7 + 'FCB ! CLRFCB " STARA   COM" NAM SWAP CMOVE (CS?) PAD 
 50 + DTA 2! DOS-DTA SEARCH1ST 66 NAM 4 + C! SEARCH1ST OR R> 'FCB ! ; 

( @4518-4534 XT:451A CFA:224C DLen: 26 STAGE: Words)
: _bios_floppy_count
 17 INTERRUPT AX @ $00C0 AND 64 / 1+ ; 

( @4534-454C XT:4536 CFA:224C DLen: 22 STAGE: Words)
: _dos-valid-drive
 DX ! 54 DOSCALL AX @ -1 = NOT ; 

( @454C-455C XT:454E CFA:224C DLen: 14 STAGE: Words)
: _dos-current-drive
 25 DOSCALL AX C@ 1+ ; 

( Data:Variable @455C-4569 XT:4567 CFA:1D29 DLen: 2 STAGE: Dictionaries)
VARIABLE MAXDRV ( @4567=4)

( @4569-45C3 XT:4577 CFA:224C DLen: 76 STAGE: Dictionaries)
: SETMAXDRV
 _bios_floppy_count 2 MAX _dos-current-drive MAX MAXDRV ! _find_stara IF 
  7 MAXDRV @ 1+ DO 
   I _dos-valid-drive IF 
    I MAXDRV ! 
   THEN 
  LOOP 
  MAXDRV @ 2 = _bios_floppy_count 1 = AND IF 
   1 MAXDRV ! 
  THEN 
 THEN 
 ; 

( @45C3-45D7 XT:45C5 CFA:224C DLen: 18 STAGE: Words)
: [STARFLT:45C5]
 DRV C@ 0= IF 
  _dos-current-drive DRV C! 
 THEN 
 ; 

( @45D7-45ED XT:45D9 CFA:224C DLen: 20 STAGE: Words)
: [STARFLT:45D9]
 1+ MAXDRV @ OVER < IF 
  DROP 1 
 THEN 
 ; 

( @45ED-464B XT:45FB CFA:224C DLen: 80 STAGE: Dictionaries)
: SMARTOPEN
 OPEN DUP IF 
  DRV C@ 0= IF 
   >R [STARFLT:45C5] DRV C@ BEGIN 
    DRV C@ [STARFLT:45D9] 2DUP = NOT I AND WHILE 
    DRV C! OPEN R> DROP >R 
   REPEAT 
   2DROP R> DUP IF 
    0 DRV C! 
   THEN 
  THEN 
 THEN 
 ; 

( Data:Variable @464B-465A XT:4658 CFA:1D29 DLen: 2 STAGE: Dictionaries)
VARIABLE ASKMOUNT ( @4658=$4669 ( ' <ASKMOUNT> ))

( @465A-46F8 XT:4669 CFA:224C DLen: 143 STAGE: Dictionaries)
: <ASKMOUNT>
 CR ." Place disk containing file" CR NAM 8 -TRAILING TYPE ." ." TYP 3 TYPE ."  into " 
 DRV C@ ?DUP IF 
  ." drive " 64 + EMIT 
 ELSE 
  ." any drive" 
 THEN 
 CR ." and press any key when ready." KEY DROP ; 

( @46F8-4757 XT:4705 CFA:224C DLen: 82 STAGE: Dictionaries)
: DOSMOUNT
 >R INIT BEGIN 
  I FCBPFAS @ 'FCB ! SMARTOPEN DUP WHILE 
  DROP FLUSH INIT I FCBPFAS @ 'FCB ! ASKMOUNT @EXECUTE 
 REPEAT 
 $0400 RECSIZE ! FILESIZE 2@ SWAP $0400 M/ SWAP DROP DRV C@ R> DRIVENUMBERS C! ; 

( @4757-4776 XT:4766 CFA:224C DLen: 16 STAGE: Dictionaries)
: DOSUNMOUNT
 FCBPFAS @ 'FCB ! CLOSE DROP 0 ; 

( @4776-479C XT:477E CFA:224C DLen: 30 STAGE: Dictionaries)
: DR2
 ' [FILE] ( $4425 ) $02D0 SYSTEM 'FCB @ NAM DRV C@ 1 DOS-FILE <MOUNT> DROP ; 

( @479C-47C4 XT:47A4 CFA:224C DLen: 32 STAGE: Dictionaries)
: DR3
 ' [FILE] ( $4425 ) $05DC SYSUTIL 'FCB @ NAM DRV C@ 1 DOS-FILE 1+ <MOUNT> DROP ; 

( @47C4-47DC XT:47CE CFA:224C DLen: 14 STAGE: Dictionaries)
: USING
 DOS-FILE UNMOUNT SYSTEM SETFCB [FORTHOUGHT:43C1] DR2 ; 

( @47DC-4810 XT:47DE CFA:224C DLen: 50 STAGE: Words)
: _dos-remalloc
 ES ! DUP BX ! 74 DOSCALL PSW @ 1 AND IF 
  DROP BX @ 1 
 ELSE 
  0 
 THEN 
 (CS?) ES ! ; 

( @4810-4864 XT:481C CFA:224C DLen: 72 STAGE: Dictionaries)
: SETSYSK
 $8000 (CS?) _dos-remalloc DROP DUP (CS?) + 0 64 U/MOD SYSK ! DROP (CS?) _dos-remalloc 
 DROP $2000 U< IF 
  ." Out of memory" $0BB8 MS BYE 
 THEN 
 ; 

( @4864-486C XT:4866 CFA:224C DLen: 6 STAGE: Memory)
: [STARFLT:4866]
 SETMAXDRV DOSPARM ; 

( @486C-487E XT:4873 CFA:4873 DLen: 11 STAGE: Dictionaries)
CODE ON
(Address @4873
   4873 5B                   POP        BX
   4874 B8 01 00             MOV        AX, 1
   4877 89 07                MOV        WORD PTR [BX], AX
   4879 AD                   LODSW      
   487A 8B D8                MOV        BX, AX
   487C FF 27                JMP        WORD PTR [BX]
) CODE-END

( @487E-4890 XT:4886 CFA:4886 DLen: 10 STAGE: Dictionaries)
CODE OFF
(Address @4886
   4886 5B                   POP        BX
   4887 33 C0                XOR        AX, AX
   4889 89 07                MOV        WORD PTR [BX], AX
   488B AD                   LODSW      
   488C 8B D8                MOV        BX, AX
   488E FF 27                JMP        WORD PTR [BX]
) CODE-END

( @4890-48A3 XT:4892 CFA:4892 DLen: 17 STAGE: Words)
CODE [STARFLT:4892]
(Address @4892
   4892 1E                   PUSH       DS
   4893 B8 40 00             MOV        AX, 64
   4896 8E D8                MOV        DS, AX
   4898 BB 17 00             MOV        BX, 23
   489B 88 07                MOV        BYTE PTR [BX], AL
   489D 1F                   POP        DS
   489E AD                   LODSW      
   489F 8B D8                MOV        BX, AX
   48A1 FF 27                JMP        WORD PTR [BX]
) CODE-END

( @48A3-48B1 XT:48AB CFA:224C DLen: 6 STAGE: Dictionaries)
: KEY
 [STARFLT:4892] KEY ; 

( Data:DoubleWord @48B1-48BE XT:48BA CFA:3B68 DLen: 4 STAGE: Dictionaries)
$000000. ( CLASS: ) 2C= NULL

( Data @48BE-48D0 XT:48C6 CFA:1D29 DLen: 10 STAGE: Dictionaries)
CREATE ZZZ 10 ALLOT ( @48C6 =
@48C6 36 00 19 00 4F 54 20 20 6D 65                     6...OT  me      
 )

( @48D0-4908 XT:48DC CFA:48DC DLen: 44 STAGE: Dictionaries)
CODE <LCMOVE
(Address @48DC
   48DC 8B DF                MOV        BX, DI
   48DE 59                   POP        CX
   48DF 8C C0                MOV        AX, ES
   48E1 8C DA                MOV        DX, DS
   48E3 5F                   POP        DI
   48E4 07                   POP        ES
   48E5 89 36 C6 48          MOV        WORD PTR [48C6h], SI             ; ZZZ
   48E9 5E                   POP        SI
   48EA 1F                   POP        DS
   48EB 0B C9                OR         CX, CX
   48ED 74 0A                JZ         48F9h                            ; .STARFLT_48F9
   48EF FD                   STD        
   48F0 03 F9                ADD        DI, CX
   48F2 4F                   DEC        DI
   48F3 03 F1                ADD        SI, CX
   48F5 4E                   DEC        SI
   48F6 F3 A4                MOVSB      
   48F8 FC                   CLD        
 .STARFLT_48F9:
   48F9 8E C0                MOV        ES, AX
   48FB 8E DA                MOV        DS, DX
   48FD 8B 36 C6 48          MOV        SI, WORD PTR [48C6h]             ; ZZZ
   4901 8B FB                MOV        DI, BX
   4903 AD                   LODSW      
   4904 8B D8                MOV        BX, AX
   4906 FF 27                JMP        WORD PTR [BX]
) CODE-END

( @4908-491F XT:4910 CFA:4910 DLen: 15 STAGE: Dictionaries)
CODE 2^N
(Address @4910
   4910 59                   POP        CX
   4911 33 C0                XOR        AX, AX
   4913 F9                   STC        
   4914 41                   INC        CX
   4915 E3 02                JCXZ       4919h                            ; .STARFLT_4919
   4917 D3 D0                RCL        AX, CL
 .STARFLT_4919:
   4919 50                   PUSH       AX
   491A AD                   LODSW      
   491B 8B D8                MOV        BX, AX
   491D FF 27                JMP        WORD PTR [BX]
) CODE-END

( @491F-492D XT:4927 CFA:224C DLen: 6 STAGE: Dictionaries)
: BIT
 1- 2^N ; 

( @492D-4941 XT:4935 CFA:4935 DLen: 12 STAGE: Dictionaries)
CODE 16/
(Address @4935
   4935 58                   POP        AX
   4936 B9 04 00             MOV        CX, 4
   4939 D3 E8                SHR        AX, CL
   493B 50                   PUSH       AX
   493C AD                   LODSW      
   493D 8B D8                MOV        BX, AX
   493F FF 27                JMP        WORD PTR [BX]
) CODE-END

( @4941-4955 XT:4949 CFA:4949 DLen: 12 STAGE: Dictionaries)
CODE 16*
(Address @4949
   4949 58                   POP        AX
   494A B9 04 00             MOV        CX, 4
   494D D3 E0                SHL        AX, CL
   494F 50                   PUSH       AX
   4950 AD                   LODSW      
   4951 8B D8                MOV        BX, AX
   4953 FF 27                JMP        WORD PTR [BX]
) CODE-END

( @4955-4970 XT:495E CFA:495E DLen: 18 STAGE: Dictionaries)
CODE D16*
(Address @495E
   495E 58                   POP        AX
   495F 5A                   POP        DX
   4960 B9 04 00             MOV        CX, 4
 .STARFLT_4963:
   4963 D1 E2                SHL        DX, 1
   4965 D1 D0                RCL        AX, 1
   4967 E2 FA                LOOP       4963h                            ; .STARFLT_4963
   4969 52                   PUSH       DX
   496A 50                   PUSH       AX
   496B AD                   LODSW      
   496C 8B D8                MOV        BX, AX
   496E FF 27                JMP        WORD PTR [BX]
) CODE-END

( @4970-497D XT:4977 CFA:224C DLen: 6 STAGE: Dictionaries)
: 3*
 3 * ; 

( @497D-498E XT:4984 CFA:4984 DLen: 10 STAGE: Dictionaries)
CODE 3+
(Address @4984
   4984 58                   POP        AX
   4985 05 03 00             ADD        AX, 3
   4988 50                   PUSH       AX
   4989 AD                   LODSW      
   498A 8B D8                MOV        BX, AX
   498C FF 27                JMP        WORD PTR [BX]
) CODE-END

( @498E-49A5 XT:4997 CFA:4997 DLen: 14 STAGE: Dictionaries)
CODE 1.5@
(Address @4997
   4997 5B                   POP        BX
   4998 FF 37                PUSH       WORD PTR [BX]
   499A 33 C0                XOR        AX, AX
   499C 8A 47 02             MOV        AL, BYTE PTR [BX+2]
   499F 50                   PUSH       AX
   49A0 AD                   LODSW      
   49A1 8B D8                MOV        BX, AX
   49A3 FF 27                JMP        WORD PTR [BX]
) CODE-END

( @49A5-49BA XT:49AE CFA:49AE DLen: 12 STAGE: Dictionaries)
CODE 1.5!
(Address @49AE
   49AE 5B                   POP        BX
   49AF 58                   POP        AX
   49B0 88 47 02             MOV        BYTE PTR [BX+2], AL
   49B3 8F 07                POP        WORD PTR [BX]
   49B5 AD                   LODSW      
   49B6 8B D8                MOV        BX, AX
   49B8 FF 27                JMP        WORD PTR [BX]
) CODE-END

( @49BA-49C8 XT:49C2 CFA:49C2 DLen: 6 STAGE: Dictionaries)
CODE @DS
(Address @49C2
   49C2 1E                   PUSH       DS
   49C3 AD                   LODSW      
   49C4 8B D8                MOV        BX, AX
   49C6 FF 27                JMP        WORD PTR [BX]
) CODE-END

( @49C8-49DA XT:49CA CFA:1D29 DLen: 16 STAGE: Words)
CREATE [STARFLT:49CA]
(Address @49CA
   49CA 51                   PUSH       CX
   49CB 26 8A 0F             MOV        CL, BYTE PTR [ES:BX]
   49CE 87 D8                XCHG       AX, BX
   49D0 26 86 0F             XCHG       BYTE PTR [ES:BX], CL
   49D3 87 D8                XCHG       AX, BX
   49D5 26 88 0F             MOV        BYTE PTR [ES:BX], CL
   49D8 59                   POP        CX
   49D9 C3                   RET        
) CODE-END

( @49DA-49E7 XT:49E1 CFA:224C DLen: 6 STAGE: Dictionaries)
: +@
 + @ ; 

( @49E7-4A01 XT:49F0 CFA:49F0 DLen: 17 STAGE: Dictionaries)
CODE L+-@
(Address @49F0
   49F0 8C DA                MOV        DX, DS
   49F2 5B                   POP        BX
   49F3 1F                   POP        DS
   49F4 33 C0                XOR        AX, AX
   49F6 8A 07                MOV        AL, BYTE PTR [BX]
   49F8 98                   CBW        
   49F9 50                   PUSH       AX
   49FA 8E DA                MOV        DS, DX
   49FC AD                   LODSW      
   49FD 8B D8                MOV        BX, AX
   49FF FF 27                JMP        WORD PTR [BX]
) CODE-END

( @4A01-4A13 XT:4A0C CFA:4A0C DLen: 7 STAGE: Dictionaries)
CODE PRTSCR
(Address @4A0C
   4A0C CD 05                INT        05h
   4A0E AD                   LODSW      
   4A0F 8B D8                MOV        BX, AX
   4A11 FF 27                JMP        WORD PTR [BX]
) CODE-END

( @4A13-4A38 XT:4A15 CFA:4A15 DLen: 35 STAGE: Words)
CODE [STARFLT:4A15]
(Address @4A15
   4A15 5B                   POP        BX
   4A16 58                   POP        AX
   4A17 8B 0F                MOV        CX, WORD PTR [BX]
   4A19 83 C3 02             ADD        BX, 2
   4A1C 8B 17                MOV        DX, WORD PTR [BX]
   4A1E 83 C3 02             ADD        BX, 2
 .STARFLT_4A21:
   4A21 3B 07                CMP        AX, WORD PTR [BX]
   4A23 75 08                JNZ        4A2Dh                            ; .STARFLT_4A2D
   4A25 83 C3 02             ADD        BX, 2
   4A28 8B 17                MOV        DX, WORD PTR [BX]
   4A2A B9 01 00             MOV        CX, 1
 .STARFLT_4A2D:
   4A2D 83 C3 04             ADD        BX, 4
   4A30 E2 EF                LOOP       4A21h                            ; .STARFLT_4A21
   4A32 52                   PUSH       DX
   4A33 AD                   LODSW      
   4A34 8B D8                MOV        BX, AX
   4A36 FF 27                JMP        WORD PTR [BX]
) CODE-END

( @4A38-4A58 XT:4A41 CFA:224C DLen: 23 STAGE: Dictionaries)
: CASE
 CREATE HERE NULL , , 0 DOES> ( CFA @4A4F ) 
  [STARFLT:4A15] EXECUTE ; 

( @4A58-4A69 XT:4A5F CFA:224C DLen: 10 STAGE: Dictionaries)
: IS
 , [COMPILE] ' , 1+ ; 

( @4A69-4A84 XT:4A74 CFA:224C DLen: 16 STAGE: Dictionaries)
: OTHERS
 [COMPILE] ' 3 PICK 2+ ! SWAP ! ; 

( @4A84-4AA7 XT:4A8E CFA:224C DLen: 25 STAGE: Dictionaries)
: CASE:
 CREATE SMUDGE ] DOES> ( CFA @4A96 ) 
  SWAP DUP + + @ CFAEXEC ; 

( Data:Variable @4AA7-4AB2 XT:4AB0 CFA:1D29 DLen: 2 STAGE: Dictionaries)
VARIABLE SEED ( @4AB0=$39E4)

( @4AB2-4AD1 XT:4ABB CFA:4ABB DLen: 22 STAGE: Dictionaries)
CODE FRND
(Address @4ABB
   4ABB 8B 06 B0 4A          MOV        AX, WORD PTR [4AB0h]             ; SEED
   4ABF B9 BD 7A             MOV        CX, 7ABDh
   4AC2 F7 E9                IMUL       CX
   4AC4 05 0F 1B             ADD        AX, 1B0Fh
   4AC7 89 06 B0 4A          MOV        WORD PTR [4AB0h], AX             ; SEED
   4ACB 50                   PUSH       AX
   4ACC AD                   LODSW      
   4ACD 8B D8                MOV        BX, AX
   4ACF FF 27                JMP        WORD PTR [BX]
) CODE-END

( @4AD1-4AEA XT:4ADA CFA:224C DLen: 16 STAGE: Dictionaries)
: RRND
 OVER - FRND U* SWAP DROP + ; 

( @4AEA-4B06 XT:4AF3 CFA:4AF3 DLen: 19 STAGE: Dictionaries)
CODE +BIT
(Address @4AF3
   4AF3 33 D2                XOR        DX, DX
   4AF5 58                   POP        AX
   4AF6 B9 10 00             MOV        CX, 16
 .STARFLT_4AF9:
   4AF9 D1 E8                SHR        AX, 1
   4AFB 73 01                JNB        4AFEh                            ; .STARFLT_4AFE
   4AFD 42                   INC        DX
 .STARFLT_4AFE:
   4AFE E2 F9                LOOP       4AF9h                            ; .STARFLT_4AF9
   4B00 52                   PUSH       DX
   4B01 AD                   LODSW      
   4B02 8B D8                MOV        BX, AX
   4B04 FF 27                JMP        WORD PTR [BX]
) CODE-END

( @4B06-4B15 XT:4B08 CFA:4B08 DLen: 13 STAGE: Words)
CODE [STARFLT:4B08]
(Address @4B08
   4B08 58                   POP        AX
   4B09 59                   POP        CX
   4B0A D1 E1                SHL        CX, 1
   4B0C D1 D0                RCL        AX, 1
   4B0E 51                   PUSH       CX
   4B0F 50                   PUSH       AX
   4B10 AD                   LODSW      
   4B11 8B D8                MOV        BX, AX
   4B13 FF 27                JMP        WORD PTR [BX]
) CODE-END

( @4B15-4B3C XT:4B17 CFA:4B17 DLen: 37 STAGE: Words)
CODE [STARFLT:4B17]
(Address @4B17
   4B17 59                   POP        CX
   4B18 58                   POP        AX
   4B19 5A                   POP        DX
   4B1A 5B                   POP        BX
 .STARFLT_4B1B:
   4B1B D1 E3                SHL        BX, 1
   4B1D D1 D2                RCL        DX, 1
   4B1F D1 E3                SHL        BX, 1
   4B21 D1 D2                RCL        DX, 1
   4B23 2B D0                SUB        DX, AX
   4B25 79 07                JNS        4B2Eh                            ; .STARFLT_4B2E
   4B27 03 D0                ADD        DX, AX
   4B29 D1 E0                SHL        AX, 1
   4B2B 48                   DEC        AX
   4B2C EB 04                JMP        4B32h                            ; .STARFLT_4B32
 .STARFLT_4B2E:
   4B2E 40                   INC        AX
   4B2F D1 E0                SHL        AX, 1
   4B31 40                   INC        AX
 .STARFLT_4B32:
   4B32 E2 E7                LOOP       4B1Bh                            ; .STARFLT_4B1B
   4B34 53                   PUSH       BX
   4B35 52                   PUSH       DX
   4B36 50                   PUSH       AX
   4B37 AD                   LODSW      
   4B38 8B D8                MOV        BX, AX
   4B3A FF 27                JMP        WORD PTR [BX]
) CODE-END

( @4B3C-4B76 XT:4B3E CFA:224C DLen: 56 STAGE: Words)
: [STARFLT:4B3E]
 >R [STARFLT:4B08] DUP 0< IF 
  [STARFLT:4B08] R@ - R> 1+ 
 ELSE 
  [STARFLT:4B08] R@ 2DUP U< IF 
   DROP R> 1- 
  ELSE 
   - R> 1+ 
  THEN 
 THEN 
 ; 

( @4B76-4B9E XT:4B78 CFA:224C DLen: 38 STAGE: Words)
: [STARFLT:4B78]
 >R DUP 0< IF 
  2DROP R> 1+ 
 ELSE 
  [STARFLT:4B08] $8000 R@ DU< 0= R> + 
 THEN 
 ; 

( @4B9E-4BBD XT:4BA7 CFA:224C DLen: 22 STAGE: Dictionaries)
: SQRT
 0 1 8 [STARFLT:4B17] ROT DROP 6 [STARFLT:4B17] [STARFLT:4B3E] [STARFLT:4B78] ; 

( @4BBD-4BCF XT:4BC5 CFA:4BC5 DLen: 10 STAGE: Dictionaries)
CODE +-@
(Address @4BC5
   4BC5 5B                   POP        BX
   4BC6 8A 07                MOV        AL, BYTE PTR [BX]
   4BC8 98                   CBW        
   4BC9 50                   PUSH       AX
   4BCA AD                   LODSW      
   4BCB 8B D8                MOV        BX, AX
   4BCD FF 27                JMP        WORD PTR [BX]
) CODE-END

( @4BCF-4BEE XT:4BD9 CFA:4BD9 DLen: 21 STAGE: Dictionaries)
CODE L1.5@
(Address @4BD9
   4BD9 5B                   POP        BX
   4BDA 59                   POP        CX
   4BDB 8C D8                MOV        AX, DS
   4BDD 8E D9                MOV        DS, CX
   4BDF FF 37                PUSH       WORD PTR [BX]
   4BE1 33 C9                XOR        CX, CX
   4BE3 8A 4F 02             MOV        CL, BYTE PTR [BX+2]
   4BE6 51                   PUSH       CX
   4BE7 8E D8                MOV        DS, AX
   4BE9 AD                   LODSW      
   4BEA 8B D8                MOV        BX, AX
   4BEC FF 27                JMP        WORD PTR [BX]
) CODE-END

( @4BEE-4BF7 XT:4BF7 CFA:0C60 DLen: 0 STAGE: Dictionaries)
ALIAS <C!> C!

( @4BF7-4BFF XT:4BFF CFA:0BE1 DLen: 0 STAGE: Dictionaries)
ALIAS <!> !

( @4BFF-4C0A XT:4C0A CFA:49AE DLen: 0 STAGE: Dictionaries)
ALIAS <1.5!> 1.5!

( @4C0A-4C13 XT:4C13 CFA:0F85 DLen: 0 STAGE: Dictionaries)
ALIAS <+!> +!

( @4C13-4C1C XT:4C1C CFA:0C24 DLen: 0 STAGE: Dictionaries)
ALIAS <D!> 2!

( Data:Syn @4C1C-4C28 XT:4C26 CFA:3AEC DLen: 2 STAGE: Dictionaries)
SYN <OFF> OFF

( Data:Syn @4C28-4C33 XT:4C31 CFA:3AEC DLen: 2 STAGE: Dictionaries)
SYN <ON> ON

( Data:Syn @4C33-4C41 XT:4C3F CFA:3AEC DLen: 2 STAGE: Dictionaries)
SYN <BLOCK> BLOCK

( Data:Variable @4C41-4C4E XT:4C4C CFA:1D29 DLen: 2 STAGE: Dictionaries)
VARIABLE FILTER ( @4C4C=$2053)

( Data:Variable @4C4E-4C59 XT:4C57 CFA:1D29 DLen: 2 STAGE: Dictionaries)
VARIABLE PEAK ( @4C57=$2054)

( Data @4C59-4C7B XT:4C5B CFA:1D29 DLen: 32 STAGE: Words)
CREATE [STARFLT:4C5B] 32 ALLOT ( @4C5B =
@4C5B 00 08 10 88 88 89 25 55 55 57 75 77 77 7F 7F FF   ......%UUWuww...
@4C6B FF FE F7 EE EE AE AE AA A4 A4 91 11 11 08 10 00   ................
 )

( @4C7B-4CBE XT:4C87 CFA:4C87 DLen: 55 STAGE: Dictionaries)
CODE (SLIPPE__
(Address @4C87
   4C87 58                   POP        AX
   4C88 8B D8                MOV        BX, AX
   4C8A 8B 0E 57 4C          MOV        CX, WORD PTR [4C57h]             ; PEAK
   4C8E 2B D9                SUB        BX, CX
   4C90 81 C3 80 00          ADD        BX, 0080h
   4C94 80 FF 00             CMP        BH, 0
   4C97 75 18                JNZ        4CB1h                            ; .STARFLT_4CB1
   4C99 8B D3                MOV        DX, BX
   4C9B 81 E2 07 00          AND        DX, 7
   4C9F B1 03                MOV        CL, 3
   4CA1 D3 EB                SHR        BX, CL
   4CA3 8A 8F 5B 4C          MOV        CL, BYTE PTR [BX+4C5Bh]          ; [STARFLT:4C5B]
   4CA7 8B 1E 4C 4C          MOV        BX, WORD PTR [4C4Ch]             ; FILTER
   4CAB 87 CA                XCHG       DX, CX
   4CAD D3 EB                SHR        BX, CL
   4CAF EB 02                JMP        4CB3h                            ; .STARFLT_4CB3
 .STARFLT_4CB1:
   4CB1 2B DB                SUB        BX, BX
 .STARFLT_4CB3:
   4CB3 23 DA                AND        BX, DX
   4CB5 74 01                JZ         4CB8h                            ; .STARFLT_4CB8
   4CB7 50                   PUSH       AX
 .STARFLT_4CB8:
   4CB8 53                   PUSH       BX
   4CB9 AD                   LODSW      
   4CBA 8B D8                MOV        BX, AX
   4CBC FF 27                JMP        WORD PTR [BX]
) CODE-END

( Data:Variable @4CBE-4CCC XT:4CCA CFA:1D29 DLen: 2 STAGE: Dictionaries)
VARIABLE SPHEREW___ ( @4CCA=$2050)

( Data:Variable @4CCC-4CDA XT:4CD8 CFA:1D29 DLen: 2 STAGE: Dictionaries)
VARIABLE SIGNEXT___ ( @4CD8=$2044)

( Data:Variable @4CDA-4CDE XT:4CDC CFA:1D29 DLen: 2 STAGE: Words)
VARIABLE [STARFLT:4CDC] ( @4CDC=$203A)

( Data:Variable @4CDE-4CE2 XT:4CE0 CFA:1D29 DLen: 2 STAGE: Words)
VARIABLE [STARFLT:4CE0] ( @4CE0=$203A)

( Data:Variable @4CE2-4CE6 XT:4CE4 CFA:1D29 DLen: 2 STAGE: Words)
VARIABLE [STARFLT:4CE4] ( @4CE4=$203A)

( Data:Variable @4CE6-4CF3 XT:4CF1 CFA:1D29 DLen: 2 STAGE: Dictionaries)
VARIABLE 'ARRAY ( @4CF1=$6AC1 ( ' CONTOUR ))

( @4CF3-4D09 XT:4CFF CFA:224C DLen: 10 STAGE: Dictionaries)
: ARRAYSE_
 'ARRAY @ 6 +@ ; 

( @4D09-4D1E XT:4D14 CFA:224C DLen: 10 STAGE: Dictionaries)
: #BYTES
 'ARRAY @ 4 +@ ; 

( @4D1E-4D30 XT:4D28 CFA:224C DLen: 8 STAGE: Dictionaries)
: #COLZ
 'ARRAY @ @ ; 

( @4D30-4D44 XT:4D3A CFA:224C DLen: 10 STAGE: Dictionaries)
: #ROWZ
 'ARRAY @ 2+ @ ; 

( @4D44-4D5A XT:4D50 CFA:224C DLen: 10 STAGE: Dictionaries)
: ACELLAD__
 'ARRAY @ [STARFLT:4CDC] @EXECUTE ; 

( @4D5A-4D7E XT:4D5C CFA:4D5C DLen: 34 STAGE: Words)
CODE [STARFLT:4D5C]
(Address @4D5C
   4D5C 5B                   POP        BX
   4D5D 83 C3 06             ADD        BX, 6
   4D60 8B 07                MOV        AX, WORD PTR [BX]
   4D62 83 EB 02             SUB        BX, 2
   4D65 8B 0F                MOV        CX, WORD PTR [BX]
   4D67 8B D9                MOV        BX, CX
   4D69 59                   POP        CX
   4D6A D1 E1                SHL        CX, 1
   4D6C 03 D9                ADD        BX, CX
   4D6E 1E                   PUSH       DS
   4D6F 8E D8                MOV        DS, AX
   4D71 8B 0F                MOV        CX, WORD PTR [BX]
   4D73 1F                   POP        DS
   4D74 5A                   POP        DX
   4D75 03 CA                ADD        CX, DX
   4D77 50                   PUSH       AX
   4D78 51                   PUSH       CX
   4D79 AD                   LODSW      
   4D7A 8B D8                MOV        BX, AX
   4D7C FF 27                JMP        WORD PTR [BX]
) CODE-END

( @4D7E-4D8B XT:4D85 CFA:224C DLen: 6 STAGE: Dictionaries)
: A!
 [STARFLT:4CE0] @EXECUTE ; 

( @4D8B-4D98 XT:4D92 CFA:224C DLen: 6 STAGE: Dictionaries)
: A@
 [STARFLT:4CE4] @EXECUTE ; 

( @4D98-4DD0 XT:4DA4 CFA:4DA4 DLen: 44 STAGE: Dictionaries)
CODE !OFFSET_
(Address @4DA4
   4DA4 5B                   POP        BX
   4DA5 56                   PUSH       SI
   4DA6 57                   PUSH       DI
   4DA7 55                   PUSH       BP
   4DA8 06                   PUSH       ES
   4DA9 8B 37                MOV        SI, WORD PTR [BX]
   4DAB 8B 4F 02             MOV        CX, WORD PTR [BX+2]
   4DAE 8B 6F 04             MOV        BP, WORD PTR [BX+4]
   4DB1 FF 77 06             PUSH       WORD PTR [BX+6]
   4DB4 07                   POP        ES
   4DB5 8B F9                MOV        DI, CX
   4DB7 D1 E7                SHL        DI, 1
   4DB9 03 FD                ADD        DI, BP
   4DBB FD                   STD        
 .STARFLT_4DBC:
   4DBC 8B C6                MOV        AX, SI
   4DBE F7 E1                MUL        CX
   4DC0 AB                   STOSW      
   4DC1 E2 F9                LOOP       4DBCh                            ; .STARFLT_4DBC
   4DC3 33 C0                XOR        AX, AX
   4DC5 AB                   STOSW      
   4DC6 FC                   CLD        
   4DC7 07                   POP        ES
   4DC8 5D                   POP        BP
   4DC9 5F                   POP        DI
   4DCA 5E                   POP        SI
   4DCB AD                   LODSW      
   4DCC 8B D8                MOV        BX, AX
   4DCE FF 27                JMP        WORD PTR [BX]
) CODE-END

( @4DD0-4E07 XT:4DDA CFA:224C DLen: 45 STAGE: Dictionaries)
: ARRAY
 CREATE HERE >R >R SWAP , , I' @ I' 2+ @ * , R> , R> DROP DOES> ( CFA @4E00 ) 
  [STARFLT:4D5C] ; 

( @4E07-4E41 XT:4E13 CFA:224C DLen: 46 STAGE: Dictionaries)
: SETLARR__
 'ARRAY ! ' [STARFLT:4D5C] ( $4D5C ) [STARFLT:4CDC] ! ' LC! ( $2EE5 ) [STARFLT:4CE0] 
 ! SIGNEXT___ @ IF 
  ' L+-@ ( $49F0 ) 
 ELSE 
  ' LC@ ( $2ECD ) 
 THEN 
 [STARFLT:4CE4] ! ; 

( Data:Variable @4E41-4E4B XT:4E49 CFA:1D29 DLen: 2 STAGE: Dictionaries)
VARIABLE XLL ( @4E49=$4441)

( Data:Variable @4E4B-4E55 XT:4E53 CFA:1D29 DLen: 2 STAGE: Dictionaries)
VARIABLE YLL ( @4E53=$6572)

( Data:Variable @4E55-4E5F XT:4E5D CFA:1D29 DLen: 2 STAGE: Dictionaries)
VARIABLE XUR ( @4E5D=$6572)

( Data:Variable @4E5F-4E69 XT:4E67 CFA:1D29 DLen: 2 STAGE: Dictionaries)
VARIABLE YUR ( @4E67=$6572)

( @4E69-4E83 XT:4E75 CFA:224C DLen: 14 STAGE: Dictionaries)
: FULLARR__
 0 0 #COLZ 1- #ROWZ 1- ; 

( @4E83-4EA1 XT:4E8F CFA:224C DLen: 18 STAGE: Dictionaries)
: SETREGI__
 YUR ! XUR ! YLL ! XLL ! ; 

( @4EA1-4EDB XT:4EAD CFA:224C DLen: 46 STAGE: Dictionaries)
: FILLREG___
 YUR @ 1+ YLL @ DO 
  XUR @ 1+ XLL @ DO 
   DUP I J ACELLAD__ A! 
  LOOP 
 LOOP 
 DROP ; 

( Data @4EDB-4EED XT:4EDD CFA:1D29 DLen: 16 STAGE: Words)
CREATE _colorTable 16 ALLOT ( @4EDD =
@4EDD 00 22 11 99 44 66 88 AA 55 77 BB 33 EE CC DD FF   ."..Df..Uw.3....
 )

( @4EED-4F02 XT:4EEF CFA:224C DLen: 19 STAGE: CodePointers)
: _color_c
 CREATE C, DOES> ( CFA @4EF5 ) 
  C@ _colorTable + C@ ; 

( Data:Byte @4F02-4F0D XT:4F0C CFA:4EF5 DLen: 1 STAGE: Dictionaries)
0 _color_c BLACK

( Data:Byte @4F0D-4F1A XT:4F19 CFA:4EF5 DLen: 1 STAGE: Dictionaries)
1 _color_c DK-BLUE

( Data:Byte @4F1A-4F27 XT:4F26 CFA:4EF5 DLen: 1 STAGE: Dictionaries)
2 _color_c DK-GREE_

( Data:Byte @4F27-4F32 XT:4F31 CFA:4EF5 DLen: 1 STAGE: Dictionaries)
3 _color_c GREEN

( Data:Byte @4F32-4F3B XT:4F3A CFA:4EF5 DLen: 1 STAGE: Dictionaries)
4 _color_c RED

( Data:Byte @4F3B-4F47 XT:4F46 CFA:4EF5 DLen: 1 STAGE: Dictionaries)
5 _color_c VIOLET

( Data:Byte @4F47-4F52 XT:4F51 CFA:4EF5 DLen: 1 STAGE: Dictionaries)
6 _color_c BROWN

( Data:Byte @4F52-4F5D XT:4F5C CFA:4EF5 DLen: 1 STAGE: Dictionaries)
7 _color_c GREY1

( Data:Byte @4F5D-4F68 XT:4F67 CFA:4EF5 DLen: 1 STAGE: Dictionaries)
8 _color_c GREY2

( Data:Byte @4F68-4F72 XT:4F71 CFA:4EF5 DLen: 1 STAGE: Dictionaries)
9 _color_c BLUE

( Data:Byte @4F72-4F7F XT:4F7E CFA:4EF5 DLen: 1 STAGE: Dictionaries)
10 _color_c LT-GREE_

( Data:Byte @4F7F-4F8C XT:4F8B CFA:4EF5 DLen: 1 STAGE: Dictionaries)
11 _color_c LT-BLUE

( Data:Byte @4F8C-4F96 XT:4F95 CFA:4EF5 DLen: 1 STAGE: Dictionaries)
12 _color_c PINK

( Data:Byte @4F96-4FA2 XT:4FA1 CFA:4EF5 DLen: 1 STAGE: Dictionaries)
13 _color_c ORANGE

( Data:Byte @4FA2-4FAE XT:4FAD CFA:4EF5 DLen: 1 STAGE: Dictionaries)
14 _color_c YELLOW

( Data:Byte @4FAE-4FB9 XT:4FB8 CFA:4EF5 DLen: 1 STAGE: Dictionaries)
15 _color_c WHITE

( Data @4FB9-4FCB XT:4FBB CFA:1D29 DLen: 16 STAGE: Words)
CREATE _cga_colorTable 16 ALLOT ( @4FBB =
@4FBB 00 22 11 99 44 66 88 AA 55 77 BB 33 EE CC DD FF   ."..Df..Uw.3....
 )

( Data @4FCB-4FDD XT:4FCD CFA:1D29 DLen: 16 STAGE: Words)
CREATE _ega_colorTable 16 ALLOT ( @4FCD =
@4FCD 00 01 02 0A 04 05 06 07 08 0B 03 09 0C 06 0E 0F   ................
 )

( Data @4FDD-4FEF XT:4FDF CFA:1D29 DLen: 16 STAGE: Memory)
CREATE [STARFLT:4FDF] 16 ALLOT ( @4FDF =
@4FDF 00 00 00 00 00 00 00 00 01 01 01 01 01 01 01 01   ................
 )

( Data:Word @4FEF-4FFD XT:4FFB CFA:2214 DLen: 2 STAGE: Dictionaries)
11 CONSTANT IHEADLE_

( Data:Word @4FFD-5001 XT:4FFF CFA:2214 DLen: 2 STAGE: Words)
$6398 CONSTANT [STARFLT:4FFF]

( Data:Word @5001-5005 XT:5003 CFA:2214 DLen: 2 STAGE: Words)
$63DF CONSTANT [STARFLT:5003]

( Data:Word @5005-5009 XT:5007 CFA:2214 DLen: 2 STAGE: Words)
$F560 CONSTANT [STARFLT:5007]

( Data:Word @5009-5017 XT:5015 CFA:2214 DLen: 2 STAGE: Dictionaries)
8 CONSTANT *MAPSCA__

( Data:Word @5017-5024 XT:5022 CFA:2214 DLen: 2 STAGE: Dictionaries)
3 CONSTANT SIGBLK

( Data:Word @5024-5031 XT:502F CFA:2214 DLen: 2 STAGE: Dictionaries)
0 CONSTANT ALOVSA

( Data:Word @5031-503E XT:503C CFA:2214 DLen: 2 STAGE: Dictionaries)
$3E7F CONSTANT AHIVSA

( Data:Word @503E-504B XT:5049 CFA:2214 DLen: 2 STAGE: Dictionaries)
$3E80 CONSTANT BLOVSA

( Data:Word @504B-5058 XT:5056 CFA:2214 DLen: 2 STAGE: Dictionaries)
$96FF CONSTANT BHIVSA

( Data:Word @5058-5066 XT:5064 CFA:2214 DLen: 2 STAGE: Dictionaries)
$D196 ( ' OVBAC_ ) CONSTANT 'OVBACK

( Data:Word @5066-5073 XT:5071 CFA:2214 DLen: 2 STAGE: Dictionaries)
$8BE4 CONSTANT MUSSEG

( Data:Word @5073-5081 XT:507F CFA:2214 DLen: 2 STAGE: Dictionaries)
$00E1 CONSTANT #REMOTE

( Data:Word @5081-508C XT:508A CFA:2214 DLen: 2 STAGE: Dictionaries)
1 CONSTANT #HRS

( Data:Word @508C-509A XT:5098 CFA:2214 DLen: 2 STAGE: Dictionaries)
0 CONSTANT ?FIRED-_______

( Data:Word @509A-50A8 XT:50A6 CFA:2214 DLen: 2 STAGE: Dictionaries)
0 CONSTANT ?A-SHIE______

( Data:Word @50A8-50B6 XT:50B4 CFA:2214 DLen: 2 STAGE: Dictionaries)
0 CONSTANT ?A-WEAP_________

( Data:Word @50B6-50C4 XT:50C2 CFA:2214 DLen: 2 STAGE: Dictionaries)
$4000 CONSTANT DBUF-SI__

( Data:Word @50C4-50D2 XT:50D0 CFA:2214 DLen: 2 STAGE: Dictionaries)
50 CONSTANT NULL-IC__

( Data:Word @50D2-50E0 XT:50DE CFA:2214 DLen: 2 STAGE: Dictionaries)
$00FD CONSTANT SYS-ICO_

( Data:Word @50E0-50EE XT:50EC CFA:2214 DLen: 2 STAGE: Dictionaries)
$00FE CONSTANT INVIS-I___

( Data:Word @50EE-50FC XT:50FA CFA:2214 DLen: 2 STAGE: Dictionaries)
$00FF CONSTANT FLUX-IC__

( Data:Word @50FC-510A XT:5108 CFA:2214 DLen: 2 STAGE: Dictionaries)
2 CONSTANT DEAD-IC

( Data:Word @510A-5118 XT:5116 CFA:2214 DLen: 2 STAGE: Dictionaries)
1 CONSTANT DEFAULT___

( Data:Word @5118-5126 XT:5124 CFA:2214 DLen: 2 STAGE: Dictionaries)
38 CONSTANT TEXTC/L

( Data:Word @5126-512A XT:5128 CFA:2214 DLen: 2 STAGE: Words)
$02D0 CONSTANT [STARFLT:5128]

( Data:Word @512A-5138 XT:5136 CFA:2214 DLen: 2 STAGE: Dictionaries)
5 CONSTANT FUEL/SE____

( Data:Word @5138-5146 XT:5144 CFA:2214 DLen: 2 STAGE: Dictionaries)
$9503 CONSTANT POLYSEG

( Data:Word @5146-5153 XT:5151 CFA:2214 DLen: 2 STAGE: Dictionaries)
$D2BA ( ' OV/ANALYSIS ) CONSTANT 'ANSYS

( Data:DoubleWord @5153-515E XT:515A CFA:3B68 DLen: 4 STAGE: Dictionaries)
$000000. ( CLASS: ) 2C= 0.

( Data:DoubleWord @515E-516E XT:516A CFA:3B68 DLen: 4 STAGE: Dictionaries)
4096. 2C= VANEWSP___

( Data:DoubleWord @516E-517C XT:5178 CFA:3B68 DLen: 4 STAGE: Dictionaries)
$001006. ( CLASS:IROOT ) 2C= IROOT

( Data:DoubleWord @517C-518C XT:5188 CFA:3B68 DLen: 4 STAGE: Dictionaries)
$001032. ( CLASS:INACTIVE ) 2C= INACTIV_

( Data:DoubleWord @518C-519C XT:5198 CFA:3B68 DLen: 4 STAGE: Dictionaries)
$001027. ( CLASS:FRAGMENT ) 2C= FRAGMEN_

( Data:DoubleWord @519C-51AA XT:51A6 CFA:3B68 DLen: 4 STAGE: Dictionaries)
$001050. ( BOX:SECS ) 2C= *SECS

( Data:DoubleWord @51AA-51BA XT:51B6 CFA:3B68 DLen: 4 STAGE: Dictionaries)
$009A99. ( CLASS:ASSIGN-CREW ) 2C= *ASSIGN_____

( Data:DoubleWord @51BA-51C8 XT:51C4 CFA:3B68 DLen: 4 STAGE: Dictionaries)
$009AF0. ( CLASS:SHIP ) 2C= *SHIP

( Data:DoubleWord @51C8-51D6 XT:51D2 CFA:3B68 DLen: 4 STAGE: Dictionaries)
$001621. ( CLASS:STARSYSTEM ) 2C= *ASYS

( Data:DoubleWord @51D6-51E4 XT:51E0 CFA:3B68 DLen: 4 STAGE: Dictionaries)
$001655. ( CLASS:PLANET ) 2C= *ARTH

( Data:DoubleWord @51E4-51F2 XT:51EE CFA:3B68 DLen: 4 STAGE: Dictionaries)
$0017DA. ( CLASS:PLANET ) 2C= *ELAN

( Data:DoubleWord @51F2-5201 XT:51FD CFA:3B68 DLen: 4 STAGE: Dictionaries)
$00194E. ( CLASS:PLANET ) 2C= *BRAIN

( Data:DoubleWord @5201-5211 XT:520D CFA:3B68 DLen: 4 STAGE: Dictionaries)
$00741C. ( CLASS:ENCOUNTER ) 2C= *HEAVEN_

( Data:DoubleWord @5211-5221 XT:521D CFA:3B68 DLen: 4 STAGE: Dictionaries)
$007470. ( CLASS:ENCOUNTER ) 2C= *ARREST

( Data:DoubleWord @5221-5231 XT:522D CFA:3B68 DLen: 4 STAGE: Dictionaries)
$0018BA. ( CLASS:PLANET ) 2C= *SPHEXI

( Data:DoubleWord @5231-523D XT:5239 CFA:3B68 DLen: 4 STAGE: Dictionaries)
$000000. ( CLASS: ) 2C= *SP

( Data:Word @523D-5247 XT:5245 CFA:2214 DLen: 2 STAGE: Dictionaries)
1 CONSTANT MPS

( Data @5247-5267 XT:5253 CFA:1D29 DLen: 20 STAGE: Dictionaries)
CREATE CLIP-TA___ 20 ALLOT ( @5253 =
@5253 08 08 01 C7 00 02 02 00 9F 00 04 04 01 00 00 01   ................
@5263 01 00 00 00                                       ....            
 )

( @5267-5282 XT:5271 CFA:224C DLen: 17 STAGE: Dictionaries)
: TABLE
 CREATE DOES> ( CFA @5275 ) 
  SWAP 2* + @ ; 

( Data:Word @5282-528C XT:528A CFA:2214 DLen: 2 STAGE: Dictionaries)
$4000 CONSTANT 16K

( Data:Variable @528C-529A XT:5298 CFA:1D29 DLen: 2 STAGE: Dictionaries)
VARIABLE FONTSEG ( @5298=$8D1E)

( Data:Variable @529A-52A7 XT:52A5 CFA:1D29 DLen: 2 STAGE: Dictionaries)
VARIABLE REMSEG ( @52A5=$8C16)

( Data:Variable @52A7-52B5 XT:52B3 CFA:1D29 DLen: 2 STAGE: Dictionaries)
VARIABLE XBUF-SE_ ( @52B3=$90F0)

( Data:Variable @52B5-52C0 XT:52BE CFA:1D29 DLen: 2 STAGE: Dictionaries)
VARIABLE ?ALL ( @52BE=$3738)

( Data:Variable @52C0-52CB XT:52C9 CFA:1D29 DLen: 2 STAGE: Dictionaries)
VARIABLE ?YOK ( @52C9=$2020)

( Data:Word @52CB-52CF XT:52CD CFA:2214 DLen: 2 STAGE: Words)
0 CONSTANT _1Font3Offset

( Data:Word @52CF-52D3 XT:52D1 CFA:2214 DLen: 2 STAGE: Words)
118 CONSTANT _1Font5Offset

( Data:Word @52D3-52D7 XT:52D5 CFA:2214 DLen: 2 STAGE: Words)
$0086 CONSTANT _2FontOffset

( Data:Word @52D7-52DB XT:52D9 CFA:2214 DLen: 2 STAGE: Words)
$01E8 CONSTANT _FontWidthOfset

( Data:Word @52DB-52DF XT:52DD CFA:2214 DLen: 2 STAGE: Words)
$0223 CONSTANT _3FontOffset

( Data:BLT @52DF-52EF XT:52E1 CFA:1D29 DLen: 14 STAGE: Words)
CREATE _starflight_1logo 14 ALLOT ( BLT: 10x10, @52E1 =
@52E1 1F 3F DF EE 0C 33 0C 03 B7 CF 8F 7F 00 C0         .?...3........  
 )

( Data:BLT @52EF-52FB XT:52F1 CFA:1D29 DLen: 10 STAGE: Words)
CREATE _button 10 ALLOT ( BLT: 8x9, @52F1 =
@52F1 C3 7E A5 BD A5 A5 C3 BD 00 7E                     .~.......~      
 )

( Data @52FB-5303 XT:52FD CFA:1D29 DLen: 6 STAGE: Words)
CREATE [STARFLT:52FD] 6 ALLOT ( @52FD =
@52FD 18 7A 86 61 80 17                                 .z.a..          
 )

( Data:Variable @5303-5307 XT:5305 CFA:1D29 DLen: 2 STAGE: Words)
VARIABLE [STARFLT:5305] ( @5305=$FC00)

( Data:Variable @5307-5314 XT:5312 CFA:1D29 DLen: 2 STAGE: Dictionaries)
VARIABLE 'XCOMM ( @5312=$C2BE ( ' XCOMM ))

( Data:Variable @5314-531F XT:531D CFA:1D29 DLen: 2 STAGE: Dictionaries)
VARIABLE TCLR ( @531D=$00FF)

( Data:Variable @531F-532B XT:5329 CFA:1D29 DLen: 2 STAGE: Dictionaries)
VARIABLE 'HEAT ( @5329=$CAF0 ( ' MHEAT ))

( Data:Variable @532B-5337 XT:5335 CFA:1D29 DLen: 2 STAGE: Dictionaries)
VARIABLE 'TRAK ( @5335=$CADE ( ' MTRAK-ENCS ))

( Data:Variable @5337-5345 XT:5343 CFA:1D29 DLen: 2 STAGE: Dictionaries)
VARIABLE TRAK-HR ( @5343=$3738)

( Data:Variable @5345-5353 XT:5351 CFA:1D29 DLen: 2 STAGE: Dictionaries)
VARIABLE A-STREN___ ( @5351=$2048)

( Data:Variable @5353-5360 XT:535E CFA:1D29 DLen: 2 STAGE: Dictionaries)
VARIABLE DIRBLK ( @535E=0)

( Data:Variable @5360-536E XT:536C CFA:1D29 DLen: 2 STAGE: Dictionaries)
VARIABLE TIMESTA__ ( @536C=$2020)

( Data:Variable @536E-537C XT:537A CFA:1D29 DLen: 2 STAGE: Dictionaries)
VARIABLE RELAXTI__ ( @537A=$2020)

( Data @537C-538C XT:5388 CFA:1D29 DLen: 4 STAGE: Dictionaries)
CREATE VERSION 4 ALLOT ( @5388 =
@5388 C9 20 01 00                                       . ..            
 )

( Data:Variable @538C-539A XT:5398 CFA:1D29 DLen: 2 STAGE: Dictionaries)
VARIABLE ICONFON_ ( @5398=1)

( Data:Variable @539A-53A7 XT:53A5 CFA:1D29 DLen: 2 STAGE: Dictionaries)
VARIABLE LFRAME ( @53A5=$07D4 ( ' USER:WIDTH ))

( Data:Variable @53A7-53B3 XT:53B1 CFA:1D29 DLen: 2 STAGE: Dictionaries)
VARIABLE ?AUTO ( @53B1=$2020)

( Data:Variable @53B3-53C1 XT:53BF CFA:1D29 DLen: 2 STAGE: Dictionaries)
VARIABLE ?CRITIC__ ( @53BF=$2020)

( Data:Variable @53C1-53CF XT:53CD CFA:1D29 DLen: 2 STAGE: Dictionaries)
VARIABLE ELEM-AM_ ( @53CD=$2D20)

( Data:Variable @53CF-53DD XT:53DB CFA:1D29 DLen: 2 STAGE: Dictionaries)
VARIABLE 'INJURE ( @53DB=$CFC6 ( ' INJURE ))

( Data @53DD-53EC XT:53E9 CFA:1D29 DLen: 3 STAGE: Dictionaries)
CREATE P-COLOR 3 ALLOT ( @53E9 =
@53E9 41 4E 05                                          AN.             
 )

( Data @53EC-53FB XT:53F8 CFA:1D29 DLen: 3 STAGE: Dictionaries)
CREATE P-PHRASe 3 ALLOT ( @53F8 =
@53F8 32 35 05                                          25.             
 )

( Data @53FB-5409 XT:5406 CFA:1D29 DLen: 3 STAGE: Dictionaries)
CREATE P-CARP 3 ALLOT ( @5406 =
@5406 61 6E 05                                          an.             
 )

( Data @5409-5418 XT:5415 CFA:1D29 DLen: 3 STAGE: Dictionaries)
CREATE O-COLOR 3 ALLOT ( @5415 =
@5415 20 20 05                                            .             
 )

( Data:Variable @5418-5424 XT:5422 CFA:1D29 DLen: 2 STAGE: Dictionaries)
VARIABLE HYDRO ( @5422=$2020)

( Data:Variable @5424-542F XT:542D CFA:1D29 DLen: 2 STAGE: Dictionaries)
VARIABLE ATMO ( @542D=$2020)

( Data:Variable @542F-543C XT:543A CFA:1D29 DLen: 2 STAGE: Dictionaries)
VARIABLE LCOLOR ( @543A=$2020)

( Data:Variable @543C-5449 XT:5447 CFA:1D29 DLen: 2 STAGE: Dictionaries)
VARIABLE 'FLARE ( @5447=$CA11 ( ' DO-FLARE ))

( Data:Variable @5449-5457 XT:5455 CFA:1D29 DLen: 2 STAGE: Dictionaries)
VARIABLE (FLARE) ( @5455=$012C)

( Data:Variable @5457-5461 XT:545F CFA:1D29 DLen: 2 STAGE: Dictionaries)
VARIABLE ?TV ( @545F=$2020)

( Data:Variable @5461-546D XT:546B CFA:1D29 DLen: 2 STAGE: Dictionaries)
VARIABLE OLDHR ( @546B=$2020)

( Data:Variable @546D-5479 XT:5477 CFA:1D29 DLen: 2 STAGE: Dictionaries)
VARIABLE AVCNT ( @5477=$4941)

( Data:Variable @5479-547D XT:547B CFA:1D29 DLen: 2 STAGE: Words)
VARIABLE [STARFLT:547B] ( @547B=0)

( Data:Variable @547D-5481 XT:547F CFA:1D29 DLen: 2 STAGE: Words)
VARIABLE [STARFLT:547F] ( @547F=0)

( Data:Variable @5481-5485 XT:5483 CFA:1D29 DLen: 2 STAGE: Words)
VARIABLE [STARFLT:5483] ( @5483=$F976)

( Data:Variable @5485-5491 XT:548F CFA:1D29 DLen: 2 STAGE: Dictionaries)
VARIABLE FILE# ( @548F=18)

( Data:Variable @5491-549F XT:549D CFA:1D29 DLen: 2 STAGE: Dictionaries)
VARIABLE RECORD# ( @549D=0)

( Data:Variable @549F-54A3 XT:54A1 CFA:1D29 DLen: 2 STAGE: Words)
VARIABLE [STARFLT:54A1] ( @54A1=$F7D0)

( Data:Variable @54A3-54A7 XT:54A5 CFA:1D29 DLen: 2 STAGE: Words)
VARIABLE [STARFLT:54A5] ( @54A5=$FBE0)

( Data:Variable @54A7-54B2 XT:54B0 CFA:1D29 DLen: 2 STAGE: Dictionaries)
VARIABLE CXSP ( @54B0=$638C)

( Data:Variable @54B2-54B6 XT:54B4 CFA:1D29 DLen: 2 STAGE: Words)
VARIABLE [STARFLT:54B4] ( @54B4=$63DF)

( Data:Variable @54B6-54BA XT:54B8 CFA:1D29 DLen: 2 STAGE: Words)
VARIABLE [STARFLT:54B8] ( @54B8=$203A)

( Data:Variable @54BA-54C4 XT:54C2 CFA:1D29 DLen: 2 STAGE: Dictionaries)
VARIABLE EDL ( @54C2=$726F)

( Data:Variable @54C4-54D2 XT:54D0 CFA:1D29 DLen: 2 STAGE: Dictionaries)
VARIABLE A-POSTU__ ( @54D0=$7020)

( Data:Variable @54D2-54D6 XT:54D4 CFA:1D29 DLen: 2 STAGE: Words)
VARIABLE [STARFLT:54D4] ( @54D4=80)

( Data:Variable @54D6-54DA XT:54D8 CFA:1D29 DLen: 2 STAGE: Words)
VARIABLE [STARFLT:54D8] ( @54D8=6)

( Data:Variable @54DA-54E8 XT:54E6 CFA:1D29 DLen: 2 STAGE: Dictionaries)
VARIABLE P-RACES ( @54E6=$2D20)

( Data:Variable @54E8-54EC XT:54EA CFA:1D29 DLen: 2 STAGE: Words)
VARIABLE [STARFLT:54EA] ( @54EA=$8F3E)

( Data:Variable @54EC-54F0 XT:54EE CFA:1D29 DLen: 2 STAGE: Words)
VARIABLE [STARFLT:54EE] ( @54EE=$8F1F)

( Data:Variable @54F0-54F4 XT:54F2 CFA:1D29 DLen: 2 STAGE: Words)
VARIABLE [STARFLT:54F2] ( @54F2=$8F7C)

( Data:Variable @54F4-54F8 XT:54F6 CFA:1D29 DLen: 2 STAGE: Words)
VARIABLE [STARFLT:54F6] ( @54F6=$8FBA)

( Data:Variable @54F8-54FC XT:54FA CFA:1D29 DLen: 2 STAGE: Words)
VARIABLE [STARFLT:54FA] ( @54FA=$203A)

( Data:Variable @54FC-550A XT:5508 CFA:1D29 DLen: 2 STAGE: Dictionaries)
VARIABLE 'THROW-____ ( @5508=$3A6E ( ' UNRAVEL ))

( Data:Variable @550A-5515 XT:5513 CFA:1D29 DLen: 2 STAGE: Dictionaries)
VARIABLE 'MAP ( @5513=$3A48 ( ' NOP ))

( Data:Variable @5515-5523 XT:5521 CFA:1D29 DLen: 2 STAGE: Dictionaries)
VARIABLE 'TRAVER_ ( @5521=$7A86 ( ' INEXT ))

( Data:Variable @5523-5530 XT:552E CFA:1D29 DLen: 2 STAGE: Dictionaries)
VARIABLE '?EXIT ( @552E=$7DB2 ( ' ?>FIRST ))

( Data:Variable @5530-5534 XT:5532 CFA:1D29 DLen: 2 STAGE: Words)
VARIABLE [STARFLT:5532] ( @5532=$203A)

( Data:Variable @5534-5542 XT:5540 CFA:1D29 DLen: 2 STAGE: Dictionaries)
VARIABLE '.FLUX-____ ( @5540=$E442)

( Data:Variable @5542-554E XT:554C CFA:1D29 DLen: 2 STAGE: Dictionaries)
VARIABLE ???IT ( @554C=$4D43)

( Data:Variable @554E-5558 XT:5556 CFA:1D29 DLen: 2 STAGE: Dictionaries)
VARIABLE ?TD ( @5556=0)

( Data:Variable @5558-5564 XT:5562 CFA:1D29 DLen: 2 STAGE: Dictionaries)
VARIABLE ?BOMB ( @5562=0)

( Data:Variable @5564-5572 XT:5570 CFA:1D29 DLen: 2 STAGE: Dictionaries)
VARIABLE ?LANDED ( @5570=0)

( Data:Variable @5572-5576 XT:5574 CFA:1D29 DLen: 2 STAGE: Words)
VARIABLE [STARFLT:5574] ( @5574=$01F0)

( Data:Variable @5576-557A XT:5578 CFA:1D29 DLen: 2 STAGE: Words)
VARIABLE [STARFLT:5578] ( @5578=0)

( Data:Variable @557A-557E XT:557C CFA:1D29 DLen: 2 STAGE: Words)
VARIABLE [STARFLT:557C] ( @557C=$1360)

( Data:Variable @557E-5582 XT:5580 CFA:1D29 DLen: 2 STAGE: Words)
VARIABLE [STARFLT:5580] ( @5580=0)

( Data:Variable @5582-5586 XT:5584 CFA:1D29 DLen: 2 STAGE: Words)
VARIABLE [STARFLT:5584] ( @5584=$1227)

( Data:Variable @5586-558A XT:5588 CFA:1D29 DLen: 2 STAGE: Words)
VARIABLE [STARFLT:5588] ( @5588=$124E)

( Data:Variable @558A-558E XT:558C CFA:1D29 DLen: 2 STAGE: Words)
VARIABLE [STARFLT:558C] ( @558C=0)

( Data:Variable @558E-5592 XT:5590 CFA:1D29 DLen: 2 STAGE: Words)
VARIABLE [STARFLT:5590] ( @5590=14)

( Data:Variable @5592-559D XT:559B CFA:1D29 DLen: 2 STAGE: Dictionaries)
VARIABLE -END ( @559B=4)

( Data:Variable @559D-55A7 XT:55A5 CFA:1D29 DLen: 2 STAGE: Dictionaries)
VARIABLE OV# ( @55A5=0)

( Data:Variable @55A7-55B2 XT:55B0 CFA:1D29 DLen: 2 STAGE: Dictionaries)
VARIABLE ^VES ( @55B0=0)

( Data:Variable @55B2-55C0 XT:55BE CFA:1D29 DLen: 2 STAGE: Dictionaries)
VARIABLE REPAIRT___ ( @55BE=-1)

( Data:Variable @55C0-55CC XT:55CA CFA:1D29 DLen: 2 STAGE: Dictionaries)
VARIABLE ?ELAN ( @55CA=1)

( Data:Variable @55CC-55DA XT:55D8 CFA:1D29 DLen: 2 STAGE: Dictionaries)
VARIABLE HBUF-SE_ ( @55D8=$90F0)

( Data:Variable @55DA-55E8 XT:55E6 CFA:1D29 DLen: 2 STAGE: Dictionaries)
VARIABLE DBUF-SE_ ( @55E6=$B800)

( Data:Variable @55E8-55F4 XT:55F2 CFA:1D29 DLen: 2 STAGE: Dictionaries)
VARIABLE COLOR ( @55F2=$00FF)

( Data:Variable @55F4-5601 XT:55FF CFA:1D29 DLen: 2 STAGE: Dictionaries)
VARIABLE DCOLOR ( @55FF=$00FF)

( Data:Variable @5601-560C XT:560A CFA:1D29 DLen: 2 STAGE: Dictionaries)
VARIABLE YTAB ( @560A=$6696)

( Data:Variable @560C-5615 XT:5613 CFA:1D29 DLen: 2 STAGE: Dictionaries)
VARIABLE Y1 ( @5613=-1)

( Data:Variable @5615-561E XT:561C CFA:1D29 DLen: 2 STAGE: Dictionaries)
VARIABLE X1 ( @561C=0)

( Data:Variable @561E-5627 XT:5625 CFA:1D29 DLen: 2 STAGE: Dictionaries)
VARIABLE Y2 ( @5625=$00A0)

( Data:Variable @5627-5630 XT:562E CFA:1D29 DLen: 2 STAGE: Dictionaries)
VARIABLE X2 ( @562E=$0F03 ( ' SP! ))

( Data:Variable @5630-563C XT:563A CFA:1D29 DLen: 2 STAGE: Dictionaries)
VARIABLE YTABL ( @563A=$6508 ( ' YTABLE ))

( Data:Variable @563C-564A XT:5648 CFA:1D29 DLen: 2 STAGE: Dictionaries)
VARIABLE BUF-SEG ( @5648=$B800)

( Data:Variable @564A-5658 XT:5656 CFA:1D29 DLen: 2 STAGE: Dictionaries)
VARIABLE BUF-CNT ( @5656=$4000)

( Data:Variable @5658-5665 XT:5663 CFA:1D29 DLen: 2 STAGE: Dictionaries)
VARIABLE RETURN ( @5663=$0611)

( Data:Variable @5665-5673 XT:5671 CFA:1D29 DLen: 2 STAGE: Dictionaries)
VARIABLE ?SPHEXI ( @5671=1)

( Data:Variable @5673-567E XT:567C CFA:1D29 DLen: 2 STAGE: Dictionaries)
VARIABLE ?WIN ( @567C=0)

( Data:Variable @567E-5688 XT:5686 CFA:1D29 DLen: 2 STAGE: Dictionaries)
VARIABLE #IN ( @5686=2)

( Data:Variable @5688-5693 XT:5691 CFA:1D29 DLen: 2 STAGE: Dictionaries)
VARIABLE #OUT ( @5691=$4241)

( Data:Variable @5693-569D XT:569B CFA:1D29 DLen: 2 STAGE: Dictionaries)
VARIABLE VIN ( @569B=$69B4 ( ' [STARFLT:69B4] ))

( Data:Variable @569D-56A8 XT:56A6 CFA:1D29 DLen: 2 STAGE: Dictionaries)
VARIABLE VOUT ( @56A6=$6972 ( ' [STARFLT:6972] ))

( Data:Variable @56A8-56B2 XT:56B0 CFA:1D29 DLen: 2 STAGE: Dictionaries)
VARIABLE OIN ( @56B0=$69F6 ( ' [STARFLT:69F6] ))

( Data:Variable @56B2-56BD XT:56BB CFA:1D29 DLen: 2 STAGE: Dictionaries)
VARIABLE OOUT ( @56BB=$69F6 ( ' [STARFLT:69F6] ))

( Data:Variable @56BD-56C1 XT:56BF CFA:1D29 DLen: 2 STAGE: Words)
VARIABLE [STARFLT:56BF] ( @56BF=$203A)

( Data:Variable @56C1-56C5 XT:56C3 CFA:1D29 DLen: 2 STAGE: Words)
VARIABLE [STARFLT:56C3] ( @56C3=$203A)

( Data:Variable @56C5-56C9 XT:56C7 CFA:1D29 DLen: 2 STAGE: Words)
VARIABLE [STARFLT:56C7] ( @56C7=$203A)

( Data:Variable @56C9-56CD XT:56CB CFA:1D29 DLen: 2 STAGE: Words)
VARIABLE [STARFLT:56CB] ( @56CB=$203A)

( Data:Variable @56CD-56D1 XT:56CF CFA:1D29 DLen: 2 STAGE: Words)
VARIABLE [STARFLT:56CF] ( @56CF=$203A)

( Data:Variable @56D1-56DE XT:56DC CFA:1D29 DLen: 2 STAGE: Dictionaries)
VARIABLE TACCPT ( @56DC=0)

( Data:Variable @56DE-56EA XT:56E8 CFA:1D29 DLen: 2 STAGE: Dictionaries)
VARIABLE TRJCT ( @56E8=0)

( Data:Variable @56EA-56F6 XT:56F4 CFA:1D29 DLen: 2 STAGE: Dictionaries)
VARIABLE ?OPEN ( @56F4=0)

( Data:Variable @56F6-5702 XT:5700 CFA:1D29 DLen: 2 STAGE: Dictionaries)
VARIABLE ?EVAL ( @5700=0)

( Data:Variable @5702-5706 XT:5704 CFA:1D29 DLen: 2 STAGE: Words)
VARIABLE [STARFLT:5704] ( @5704=60)

( Data:Variable @5706-570A XT:5708 CFA:1D29 DLen: 2 STAGE: Words)
VARIABLE [STARFLT:5708] ( @5708=$00C2)

( Data:Variable @570A-570E XT:570C CFA:1D29 DLen: 2 STAGE: Words)
VARIABLE [STARFLT:570C] ( @570C=$203A)

( Data:Variable @570E-5712 XT:5710 CFA:1D29 DLen: 2 STAGE: Words)
VARIABLE [STARFLT:5710] ( @5710=60)

( Data:Variable @5712-5716 XT:5714 CFA:1D29 DLen: 2 STAGE: Words)
VARIABLE [STARFLT:5714] ( @5714=$00C6)

( Data:Variable @5716-571A XT:5718 CFA:1D29 DLen: 2 STAGE: Words)
VARIABLE [STARFLT:5718] ( @5718=$203A)

( Data:Variable @571A-571E XT:571C CFA:1D29 DLen: 2 STAGE: Words)
VARIABLE [STARFLT:571C] ( @571C=$203A)

( Data:Variable @571E-5722 XT:5720 CFA:1D29 DLen: 2 STAGE: Words)
VARIABLE [STARFLT:5720] ( @5720=$203A)

( Data:Variable @5722-5726 XT:5724 CFA:1D29 DLen: 2 STAGE: Words)
VARIABLE [STARFLT:5724] ( @5724=$203A)

( Data:Variable @5726-572A XT:5728 CFA:1D29 DLen: 2 STAGE: Words)
VARIABLE [STARFLT:5728] ( @5728=$203A)

( Data:Variable @572A-572E XT:572C CFA:1D29 DLen: 2 STAGE: Words)
VARIABLE [STARFLT:572C] ( @572C=$203A)

( Data:Variable @572E-573A XT:5738 CFA:1D29 DLen: 2 STAGE: Dictionaries)
VARIABLE ILEFT ( @5738=0)

( Data:Variable @573A-5747 XT:5745 CFA:1D29 DLen: 2 STAGE: Dictionaries)
VARIABLE IRIGHT ( @5745=$009F)

( Data:Variable @5747-5754 XT:5752 CFA:1D29 DLen: 2 STAGE: Dictionaries)
VARIABLE IBELOW ( @5752=0)

( Data:Variable @5754-5761 XT:575F CFA:1D29 DLen: 2 STAGE: Dictionaries)
VARIABLE IABOVE ( @575F=$00C7)

( Data:Variable @5761-576C XT:576A CFA:1D29 DLen: 2 STAGE: Dictionaries)
VARIABLE 'FLY ( @576A=$CBAA ( ' FLY ))

( Data:Variable @576C-577A XT:5778 CFA:1D29 DLen: 2 STAGE: Dictionaries)
VARIABLE 'UNNEST ( @5778=$CC0A ( ' UNNEST ))

( Data:Variable @577A-5785 XT:5783 CFA:1D29 DLen: 2 STAGE: Dictionaries)
VARIABLE ?NEW ( @5783=$2020)

( Data:Variable @5785-5792 XT:5790 CFA:1D29 DLen: 2 STAGE: Dictionaries)
VARIABLE FORCED ( @5790=$2020)

( Data:Variable @5792-579E XT:579C CFA:1D29 DLen: 2 STAGE: Dictionaries)
VARIABLE #VESS ( @579C=0)

( Data:Variable @579E-57AC XT:57AA CFA:1D29 DLen: 2 STAGE: Dictionaries)
VARIABLE CTCOLOR ( @57AA=$2020)

( Data:Variable @57AC-57B9 XT:57B7 CFA:1D29 DLen: 2 STAGE: Dictionaries)
VARIABLE XSTART ( @57B7=$2020)

( Data:Variable @57B9-57C4 XT:57C2 CFA:1D29 DLen: 2 STAGE: Dictionaries)
VARIABLE XEND ( @57C2=$2020)

( Data:Variable @57C4-57D0 XT:57CE CFA:1D29 DLen: 2 STAGE: Dictionaries)
VARIABLE YLINE ( @57CE=$2020)

( Data:Variable @57D0-57DB XT:57D9 CFA:1D29 DLen: 2 STAGE: Dictionaries)
VARIABLE SCAN ( @57D9=$679E ( ' LSCAN ))

( Data:Variable @57DB-57DF XT:57DD CFA:1D29 DLen: 2 STAGE: Words)
VARIABLE [STARFLT:57DD] ( @57DD=0)

( Data:Variable @57DF-57E3 XT:57E1 CFA:1D29 DLen: 2 STAGE: Words)
VARIABLE [STARFLT:57E1] ( @57E1=$679E ( ' LSCAN ))

( Data:Variable @57E3-57EE XT:57EC CFA:1D29 DLen: 2 STAGE: Dictionaries)
VARIABLE YMIN ( @57EC=$00C2)

( Data:Variable @57EE-57F9 XT:57F7 CFA:1D29 DLen: 2 STAGE: Dictionaries)
VARIABLE YMAX ( @57F7=$00C6)

( Data:Variable @57F9-57FD XT:57FB CFA:1D29 DLen: 2 STAGE: Words)
VARIABLE [STARFLT:57FB] ( @57FB=2)

( Data:Variable @57FD-5809 XT:5807 CFA:1D29 DLen: 2 STAGE: Dictionaries)
VARIABLE MOVED ( @5807=$7A69)

( Data:Variable @5809-5816 XT:5814 CFA:1D29 DLen: 2 STAGE: Dictionaries)
VARIABLE PLANTS ( @5814=$6573)

( Data:Variable @5816-5824 XT:5822 CFA:1D29 DLen: 2 STAGE: Dictionaries)
VARIABLE ANIMALS ( @5822=$2020)

( Data:Variable @5824-5831 XT:582F CFA:1D29 DLen: 2 STAGE: Dictionaries)
VARIABLE MEMSEG ( @582F=$24D5)

( Data:Variable @5831-583E XT:583C CFA:1D29 DLen: 2 STAGE: Dictionaries)
VARIABLE MEMOFF ( @583C=$1720)

( Data:Variable @583E-584C XT:584A CFA:1D29 DLen: 2 STAGE: Dictionaries)
VARIABLE MONITOR ( @584A=3)

( Data:Variable @584C-585A XT:5858 CFA:1D29 DLen: 2 STAGE: Dictionaries)
VARIABLE LOCRADI__ ( @5858=0)

( Data:Variable @585A-5865 XT:5863 CFA:1D29 DLen: 2 STAGE: Dictionaries)
VARIABLE YBLT ( @5863=$00C6)

( Data:Variable @5865-5870 XT:586E CFA:1D29 DLen: 2 STAGE: Dictionaries)
VARIABLE XBLT ( @586E=60)

( Data:Variable @5870-587E XT:587C CFA:1D29 DLen: 2 STAGE: Dictionaries)
VARIABLE XORMODE ( @587C=0)

( Data:Variable @587E-5889 XT:5887 CFA:1D29 DLen: 2 STAGE: Dictionaries)
VARIABLE LBLT ( @5887=5)

( Data:Variable @5889-5894 XT:5892 CFA:1D29 DLen: 2 STAGE: Dictionaries)
VARIABLE WBLT ( @5892=3)

( Data:Variable @5894-589F XT:589D CFA:1D29 DLen: 2 STAGE: Dictionaries)
VARIABLE ABLT ( @589D=0)

( Data:Variable @589F-58AC XT:58AA CFA:1D29 DLen: 2 STAGE: Dictionaries)
VARIABLE BLTSEG ( @58AA=$94B2)

( Data:Variable @58AC-58B7 XT:58B5 CFA:1D29 DLen: 2 STAGE: Dictionaries)
VARIABLE BLT> ( @58B5=2)

( Data:Variable @58B7-58C1 XT:58BF CFA:1D29 DLen: 2 STAGE: Dictionaries)
VARIABLE LPX ( @58BF=59)

( Data:Variable @58C1-58CF XT:58CD CFA:1D29 DLen: 2 STAGE: Dictionaries)
VARIABLE TILE-PT_ ( @58CD=$6A3F ( ' CMAP ))

( Data:Variable @58CF-58DD XT:58DB CFA:1D29 DLen: 2 STAGE: Dictionaries)
VARIABLE ?FUEL-D__ ( @58DB=0)

( Data:Variable @58DD-58EB XT:58E9 CFA:1D29 DLen: 2 STAGE: Dictionaries)
VARIABLE ?G-AWAR_ ( @58E9=0)

( Data:Variable @58EB-58F5 XT:58F3 CFA:1D29 DLen: 2 STAGE: Dictionaries)
VARIABLE GWF ( @58F3=0)

( Data:Variable @58F5-5901 XT:58FF CFA:1D29 DLen: 2 STAGE: Dictionaries)
VARIABLE DXVIS ( @58FF=$5341 ( ' TRAK-HR ))

( Data:Variable @5901-590D XT:590B CFA:1D29 DLen: 2 STAGE: Dictionaries)
VARIABLE DYVIS ( @590B=$2045)

( Data:Variable @590D-5918 XT:5916 CFA:1D29 DLen: 2 STAGE: Dictionaries)
VARIABLE XCON ( @5916=$2056)

( Data:Variable @5918-5923 XT:5921 CFA:1D29 DLen: 2 STAGE: Dictionaries)
VARIABLE YCON ( @5921=$7265)

( Data:Variable @5923-592F XT:592D CFA:1D29 DLen: 2 STAGE: Dictionaries)
VARIABLE DXCON ( @592D=$2072)

( Data:Variable @592F-593B XT:5939 CFA:1D29 DLen: 2 STAGE: Dictionaries)
VARIABLE DYCON ( @5939=$206E)

( Data:Variable @593B-5946 XT:5944 CFA:1D29 DLen: 2 STAGE: Dictionaries)
VARIABLE XVIS ( @5944=$6E69)

( Data:Variable @5946-5951 XT:594F CFA:1D29 DLen: 2 STAGE: Dictionaries)
VARIABLE YVIS ( @594F=$7265)

( Data:Variable @5951-595F XT:595D CFA:1D29 DLen: 2 STAGE: Dictionaries)
VARIABLE XLLDEST ( @595D=0)

( Data:Variable @595F-596D XT:596B CFA:1D29 DLen: 2 STAGE: Dictionaries)
VARIABLE YLLDEST ( @596B=0)

( Data:Variable @596D-597B XT:5979 CFA:1D29 DLen: 2 STAGE: Dictionaries)
VARIABLE GLOBALSeed ( @5979=$2044)

( Data:Variable @597B-5988 XT:5986 CFA:1D29 DLen: 2 STAGE: Dictionaries)
VARIABLE '.CELL ( @5986=$7272)

( Data:Variable @5988-5996 XT:5994 CFA:1D29 DLen: 2 STAGE: Dictionaries)
VARIABLE '.BACKG_____ ( @5994=$4E55)

( Data:Variable @5996-59A4 XT:59A2 CFA:1D29 DLen: 2 STAGE: Dictionaries)
VARIABLE 'ICON-P__ ( @59A2=$C437 ( ' ICON-PARM ))

( Data:Variable @59A4-59B2 XT:59B0 CFA:1D29 DLen: 2 STAGE: Dictionaries)
VARIABLE 'ICONBO_ ( @59B0=$C44B ( ' +ICONBXOV ))

( Data:Variable @59B2-59BC XT:59BA CFA:1D29 DLen: 2 STAGE: Dictionaries)
VARIABLE 'CC ( @59BA=$C938 ( ' C&C ))

( Data:Variable @59BC-59C0 XT:59BE CFA:1D29 DLen: 2 STAGE: Words)
VARIABLE [STARFLT:59BE] ( @59BE=$8EC5)

( Data:Variable @59C0-59C4 XT:59C2 CFA:1D29 DLen: 2 STAGE: Words)
VARIABLE [STARFLT:59C2] ( @59C2=$8E6B)

( Data:Variable @59C4-59C8 XT:59C6 CFA:1D29 DLen: 2 STAGE: Words)
VARIABLE [STARFLT:59C6] ( @59C6=$8E3E)

( Data:Variable @59C8-59CC XT:59CA CFA:1D29 DLen: 2 STAGE: Words)
VARIABLE [STARFLT:59CA] ( @59CA=$8E11)

( Data:Variable @59CC-59D0 XT:59CE CFA:1D29 DLen: 2 STAGE: Words)
VARIABLE [STARFLT:59CE] ( @59CE=$8DB7)

( Data:Variable @59D0-59DC XT:59DA CFA:1D29 DLen: 2 STAGE: Dictionaries)
VARIABLE IHSEG ( @59DA=$8D8A)

( Data:Variable @59DC-59EA XT:59E8 CFA:1D29 DLen: 2 STAGE: Dictionaries)
VARIABLE IGLOBAL ( @59E8=0)

( Data:Variable @59EA-59F7 XT:59F5 CFA:1D29 DLen: 2 STAGE: Dictionaries)
VARIABLE ILOCAL ( @59F5=0)

( Data:Variable @59F7-5A04 XT:5A02 CFA:1D29 DLen: 2 STAGE: Dictionaries)
VARIABLE IINDEX ( @5A02=0)

( Data:Variable @5A04-5A0F XT:5A0D CFA:1D29 DLen: 2 STAGE: Dictionaries)
VARIABLE XWLL ( @5A0D=$6564)

( Data:Variable @5A0F-5A1A XT:5A18 CFA:1D29 DLen: 2 STAGE: Dictionaries)
VARIABLE YWLL ( @5A18=$7420)

( Data:Variable @5A1A-5A25 XT:5A23 CFA:1D29 DLen: 2 STAGE: Dictionaries)
VARIABLE XWUR ( @5A23=$6472)

( Data:Variable @5A25-5A30 XT:5A2E CFA:1D29 DLen: 2 STAGE: Dictionaries)
VARIABLE YWUR ( @5A2E=$7720 ( ' [STARFLT:7720] ))

( Data:Variable @5A30-5A3E XT:5A3C CFA:1D29 DLen: 2 STAGE: Dictionaries)
VARIABLE *GLOBAL ( @5A3C=$0246)

( Data:Variable @5A3E-5A4C XT:5A4A CFA:1D29 DLen: 2 STAGE: Dictionaries)
VARIABLE (STOP-C____ ( @5A4A=$294D)

( Data:Variable @5A4C-5A50 XT:5A4E CFA:1D29 DLen: 2 STAGE: Words)
VARIABLE [STARFLT:5A4E] ( @5A4E=0)

( Data:Variable @5A50-5A5E XT:5A5C CFA:1D29 DLen: 2 STAGE: Dictionaries)
VARIABLE CONTEXT____ ( @5A5C=5)

( Data:Variable @5A5E-5A67 XT:5A65 CFA:1D29 DLen: 2 STAGE: Dictionaries)
VARIABLE EX ( @5A65=$FBA0)

( Data:Variable @5A67-5A70 XT:5A6E CFA:1D29 DLen: 2 STAGE: Dictionaries)
VARIABLE EY ( @5A6E=$F8EC)

( Data:Variable @5A70-5A7B XT:5A79 CFA:1D29 DLen: 2 STAGE: Dictionaries)
VARIABLE ERAD ( @5A79=48)

( Data:Variable @5A7B-5A88 XT:5A86 CFA:1D29 DLen: 2 STAGE: Dictionaries)
VARIABLE XNUMER ( @5A86=9)

( Data:Variable @5A88-5A95 XT:5A93 CFA:1D29 DLen: 2 STAGE: Dictionaries)
VARIABLE XDENOM ( @5A93=15)

( Data:Variable @5A95-5AA2 XT:5AA0 CFA:1D29 DLen: 2 STAGE: Dictionaries)
VARIABLE <ARC1> ( @5AA0=$08CB)

( Data:Variable @5AA2-5AAD XT:5AAB CFA:1D29 DLen: 2 STAGE: Dictionaries)
VARIABLE %EFF ( @5AAB=100)

( Data:Variable @5AAD-5AB9 XT:5AB7 CFA:1D29 DLen: 2 STAGE: Dictionaries)
VARIABLE STORM ( @5AB7=0)

( Data:Variable @5AB9-5AC4 XT:5AC2 CFA:1D29 DLen: 2 STAGE: Dictionaries)
VARIABLE 'TVT ( @5AC2=$D0B2 ( ' TVTASKS ))

( Data:Variable @5AC4-5AD1 XT:5ACF CFA:1D29 DLen: 2 STAGE: Dictionaries)
VARIABLE 'STORM ( @5ACF=$CFB5 ( ' DO.STORM ))

( Data:Variable @5AD1-5ADB XT:5AD9 CFA:1D29 DLen: 2 STAGE: Dictionaries)
VARIABLE E/M ( @5AD9=$6F66)

( Data:Variable @5ADB-5AE9 XT:5AE7 CFA:1D29 DLen: 2 STAGE: Dictionaries)
VARIABLE FORCEPT___ ( @5AE7=0)

( Data:Variable @5AE9-5AF6 XT:5AF4 CFA:1D29 DLen: 2 STAGE: Dictionaries)
VARIABLE #STORM ( @5AF4=0)

( Data:Variable @5AF6-5AFA XT:5AF8 CFA:1D29 DLen: 2 STAGE: Words)
VARIABLE [STARFLT:5AF8] ( @5AF8=$018F)

( Data:Variable @5AFA-5AFE XT:5AFC CFA:1D29 DLen: 2 STAGE: Words)
VARIABLE [STARFLT:5AFC] ( @5AFC=0)

( Data:Variable @5AFE-5B02 XT:5B00 CFA:1D29 DLen: 2 STAGE: Words)
VARIABLE [STARFLT:5B00] ( @5B00=$0190 ( ' _clock-hdl ))

( Data:Variable @5B02-5B06 XT:5B04 CFA:1D29 DLen: 2 STAGE: Words)
VARIABLE [STARFLT:5B04] ( @5B04=0)

( Data:Variable @5B06-5B14 XT:5B12 CFA:1D29 DLen: 2 STAGE: Dictionaries)
VARIABLE PORTDAT_ ( @5B12=0)

( Data:Variable @5B14-5B20 XT:5B1E CFA:1D29 DLen: 2 STAGE: Dictionaries)
VARIABLE ?PORT ( @5B1E=1)

( Data:Variable @5B20-5B24 XT:5B22 CFA:1D29 DLen: 2 STAGE: Words)
VARIABLE [STARFLT:5B22] ( @5B22=64)

( Data:Variable @5B24-5B28 XT:5B26 CFA:1D29 DLen: 2 STAGE: Words)
VARIABLE [STARFLT:5B26] ( @5B26=61)

( Data:Variable @5B28-5B33 XT:5B31 CFA:1D29 DLen: 2 STAGE: Dictionaries)
VARIABLE BVIS ( @5B31=-9)

( Data:Variable @5B33-5B3E XT:5B3C CFA:1D29 DLen: 2 STAGE: Dictionaries)
VARIABLE LVIS ( @5B3C=-9)

( Data:Variable @5B3E-5B4A XT:5B48 CFA:1D29 DLen: 2 STAGE: Dictionaries)
VARIABLE LFSEG ( @5B48=$8BE4)

( Data:Variable @5B4A-5B57 XT:5B55 CFA:1D29 DLen: 2 STAGE: Dictionaries)
VARIABLE LSYSEG ( @5B55=$8D5B)

( Data:Variable @5B57-5B64 XT:5B62 CFA:1D29 DLen: 2 STAGE: Dictionaries)
VARIABLE MSYSEG ( @5B62=$8D02)

( Data:Variable @5B64-5B71 XT:5B6F CFA:1D29 DLen: 2 STAGE: Dictionaries)
VARIABLE SSYSEG ( @5B6F=$8CF7)

( Data:Variable @5B71-5B7F XT:5B7D CFA:1D29 DLen: 2 STAGE: Dictionaries)
VARIABLE ?REPAIR ( @5B7D=0)

( Data:Variable @5B7F-5B8B XT:5B89 CFA:1D29 DLen: 2 STAGE: Dictionaries)
VARIABLE ?HEAL ( @5B89=0)

( Data:Variable @5B8B-5B97 XT:5B95 CFA:1D29 DLen: 2 STAGE: Dictionaries)
VARIABLE MXNEB ( @5B95=$5341 ( ' TRAK-HR ))

( Data:Variable @5B97-5BA5 XT:5BA3 CFA:1D29 DLen: 2 STAGE: Dictionaries)
VARIABLE THIS-BU____ ( @5BA3=$4E4F)

( Data:Variable @5BA5-5BB0 XT:5BAE CFA:1D29 DLen: 2 STAGE: Dictionaries)
VARIABLE NCRS ( @5BAE=$6220)

( Data:Variable @5BB0-5BBB XT:5BB9 CFA:1D29 DLen: 2 STAGE: Dictionaries)
VARIABLE OCRS ( @5BB9=$6F73)

( Data:Variable @5BBB-5BC6 XT:5BC4 CFA:1D29 DLen: 2 STAGE: Dictionaries)
VARIABLE WTOP ( @5BC4=64)

( Data:Variable @5BC6-5BD4 XT:5BD2 CFA:1D29 DLen: 2 STAGE: Dictionaries)
VARIABLE WBOTTOM ( @5BD2=16)

( Data:Variable @5BD4-5BE1 XT:5BDF CFA:1D29 DLen: 2 STAGE: Dictionaries)
VARIABLE WRIGHT ( @5BDF=$009B)

( Data:Variable @5BE1-5BED XT:5BEB CFA:1D29 DLen: 2 STAGE: Dictionaries)
VARIABLE WLEFT ( @5BEB=3)

( Data:Variable @5BED-5BFA XT:5BF8 CFA:1D29 DLen: 2 STAGE: Dictionaries)
VARIABLE WLINES ( @5BF8=7)

( Data:Variable @5BFA-5C07 XT:5C05 CFA:1D29 DLen: 2 STAGE: Dictionaries)
VARIABLE WCHARS ( @5C05=38)

( Data:Variable @5C07-5C15 XT:5C13 CFA:1D29 DLen: 2 STAGE: Dictionaries)
VARIABLE SKIP2NE__ ( @5C13=0)

( Data:Variable @5C15-5C20 XT:5C1E CFA:1D29 DLen: 2 STAGE: Dictionaries)
VARIABLE -AIN ( @5C1E=$2074)

( Data:Variable @5C20-5C2E XT:5C2C CFA:1D29 DLen: 2 STAGE: Dictionaries)
VARIABLE 'LAUNCH ( @5C2C=$D357 ( ' TRY-LAUNCH ))

( Data:Variable @5C2E-5C3C XT:5C3A CFA:1D29 DLen: 2 STAGE: Dictionaries)
VARIABLE ?ON-PLA_ ( @5C3A=0)

( Data:Variable @5C3C-5C4A XT:5C48 CFA:1D29 DLen: 2 STAGE: Dictionaries)
VARIABLE ?RECALL ( @5C48=0)

( Data:Variable @5C4A-5C55 XT:5C53 CFA:1D29 DLen: 2 STAGE: Dictionaries)
VARIABLE WMSG ( @5C53=0)

( Data:Variable @5C55-5C60 XT:5C5E CFA:1D29 DLen: 2 STAGE: Dictionaries)
VARIABLE ?ROD ( @5C5E=$4145)

( Data:Variable @5C60-5C6A XT:5C68 CFA:1D29 DLen: 2 STAGE: Dictionaries)
VARIABLE CTX ( @5C68=0)

( Data:Variable @5C6A-5C74 XT:5C72 CFA:1D29 DLen: 2 STAGE: Dictionaries)
VARIABLE CTY ( @5C72=6)

( Data:Variable @5C74-5C80 XT:5C7E CFA:1D29 DLen: 2 STAGE: Dictionaries)
VARIABLE FTRIG ( @5C7E=0)

( Data:Variable @5C80-5C8C XT:5C8A CFA:1D29 DLen: 2 STAGE: Dictionaries)
VARIABLE FQUIT ( @5C8A=$6174)

( Data:Variable @5C8C-5C97 XT:5C95 CFA:1D29 DLen: 2 STAGE: Dictionaries)
VARIABLE LKEY ( @5C95=$7473)

( Data:Variable @5C97-5CA5 XT:5CA3 CFA:1D29 DLen: 2 STAGE: Dictionaries)
VARIABLE 'BUTTON ( @5CA3=$2065)

( Data:Variable @5CA5-5CB3 XT:5CB1 CFA:1D29 DLen: 2 STAGE: Dictionaries)
VARIABLE BTN-REC_ ( @5CB1=$7463)

( Data:Variable @5CB3-5CC1 XT:5CBF CFA:1D29 DLen: 2 STAGE: Dictionaries)
VARIABLE CRSCOLO_ ( @5CBF=$656C)

( Data:Variable @5CC1-5CC5 XT:5CC3 CFA:1D29 DLen: 2 STAGE: Words)
VARIABLE [STARFLT:5CC3] ( @5CC3=$203A)

( Data:Variable @5CC5-5CD0 XT:5CCE CFA:1D29 DLen: 2 STAGE: Dictionaries)
VARIABLE ?>OP ( @5CCE=0)

( Data:Variable @5CD0-5CDC XT:5CDA CFA:1D29 DLen: 2 STAGE: Dictionaries)
VARIABLE 'YANK ( @5CDA=$CC4F ( ' S>PORT ))

( Data:Variable @5CDC-5CE6 XT:5CE4 CFA:1D29 DLen: 2 STAGE: Dictionaries)
VARIABLE ?12 ( @5CE4=0)

( Data:Variable @5CE6-5CF3 XT:5CF1 CFA:1D29 DLen: 2 STAGE: Dictionaries)
VARIABLE '+VESS ( @5CF1=$CAC9 ( ' +A-VESS ))

( Data:Variable @5CF3-5CFE XT:5CFC CFA:1D29 DLen: 2 STAGE: Dictionaries)
VARIABLE ?NEB ( @5CFC=0)

( Data:Variable @5CFE-5D0C XT:5D0A CFA:1D29 DLen: 2 STAGE: Dictionaries)
VARIABLE FORCEKE_ ( @5D0A=0)

( Data:Variable @5D0C-5D17 XT:5D15 CFA:1D29 DLen: 2 STAGE: Dictionaries)
VARIABLE %VAL ( @5D15=$6578)

( Data:Variable @5D17-5D25 XT:5D23 CFA:1D29 DLen: 2 STAGE: Dictionaries)
VARIABLE SCROLL-___ ( @5D23=$204E)

( Data:Variable @5D25-5D33 XT:5D31 CFA:1D29 DLen: 2 STAGE: Dictionaries)
VARIABLE [#CACHE_ ( @5D31=$0187)

( Data:Variable @5D33-5D40 XT:5D3E CFA:1D29 DLen: 2 STAGE: Dictionaries)
VARIABLE ESC-EN ( @5D3E=1)

( Data:Variable @5D40-5D4E XT:5D4C CFA:1D29 DLen: 2 STAGE: Dictionaries)
VARIABLE ESC-PFA ( @5D4C=$D476 ( ' GAMEOP_ ))

( Data:Variable @5D4E-5D5C XT:5D5A CFA:1D29 DLen: 2 STAGE: Dictionaries)
VARIABLE LINE-CO___ ( @5D5A=$2054)

( Data:Variable @5D5C-5D69 XT:5D67 CFA:1D29 DLen: 2 STAGE: Dictionaries)
VARIABLE PM-PTR ( @5D67=$756F)

( Data:Variable @5D69-5D6D XT:5D6B CFA:1D29 DLen: 2 STAGE: Words)
VARIABLE [STARFLT:5D6B] ( @5D6B=1)

( Data:Variable @5D6D-5D78 XT:5D76 CFA:1D29 DLen: 2 STAGE: Dictionaries)
VARIABLE SKEY ( @5D76=$7263)

( Data:Variable @5D78-5D83 XT:5D81 CFA:1D29 DLen: 2 STAGE: Dictionaries)
VARIABLE #AUX ( @5D81=5)

( Data:Variable @5D83-5D8F XT:5D8D CFA:1D29 DLen: 2 STAGE: Dictionaries)
VARIABLE WADDR ( @5D8D=$7720 ( ' [STARFLT:7720] ))

( Data:Variable @5D8F-5D9A XT:5D98 CFA:1D29 DLen: 2 STAGE: Dictionaries)
VARIABLE MASK ( @5D98=$6573)

( Data:Variable @5D9A-5DA5 XT:5DA3 CFA:1D29 DLen: 2 STAGE: Dictionaries)
VARIABLE ?EGA ( @5DA3=0)

( Data:Variable @5DA5-5DB0 XT:5DAE CFA:1D29 DLen: 2 STAGE: Dictionaries)
VARIABLE XABS ( @5DAE=-1)

( Data:Variable @5DB0-5DBB XT:5DB9 CFA:1D29 DLen: 2 STAGE: Dictionaries)
VARIABLE YABS ( @5DB9=0)

( Data:Variable @5DBB-5DC9 XT:5DC7 CFA:1D29 DLen: 2 STAGE: Dictionaries)
VARIABLE HEADING ( @5DC7=2)

( Data:Variable @5DC9-5DD5 XT:5DD3 CFA:1D29 DLen: 2 STAGE: Dictionaries)
VARIABLE 3DSEG ( @5DD3=$7069)

( Data:Variable @5DD5-5DE0 XT:5DDE CFA:1D29 DLen: 2 STAGE: Dictionaries)
VARIABLE VIN' ( @5DDE=$2067)

( Data:Variable @5DE0-5DEE XT:5DEC CFA:1D29 DLen: 2 STAGE: Dictionaries)
VARIABLE YSCREEN ( @5DEC=$7420)

( Data:Variable @5DEE-5DFC XT:5DFA CFA:1D29 DLen: 2 STAGE: Dictionaries)
VARIABLE XSCREEN ( @5DFA=$726F)

( Data:Variable @5DFC-5E0A XT:5E08 CFA:1D29 DLen: 2 STAGE: Dictionaries)
VARIABLE 'COMBAT ( @5E08=$C958 ( ' WAR ))

( Data:Variable @5E0A-5E16 XT:5E14 CFA:1D29 DLen: 2 STAGE: Dictionaries)
VARIABLE 'CEX+ ( @5E14=$C255 ( ' MCOMM-EXPERTS ))

( Data:Variable @5E16-5E21 XT:5E1F CFA:1D29 DLen: 2 STAGE: Dictionaries)
VARIABLE 'CEX ( @5E1F=$C26A ( ' MEDL+AUX ))

( Data:Variable @5E21-5E2C XT:5E2A CFA:1D29 DLen: 2 STAGE: Dictionaries)
VARIABLE 'WAX ( @5E2A=$C948 ( ' COM___ ))

( Data:Variable @5E2C-5E3A XT:5E38 CFA:1D29 DLen: 2 STAGE: Dictionaries)
VARIABLE TERMINA___ ( @5E38=$2044)

( Data:Variable @5E3A-5E48 XT:5E46 CFA:1D29 DLen: 2 STAGE: Dictionaries)
VARIABLE ?COMBAT ( @5E46=0)

( Data:Variable @5E48-5E56 XT:5E54 CFA:1D29 DLen: 2 STAGE: Dictionaries)
VARIABLE ?ATTACK ( @5E54=$6F74)

( Data:Variable @5E56-5E5A XT:5E58 CFA:1D29 DLen: 2 STAGE: Words)
VARIABLE [STARFLT:5E58] ( @5E58=0)

( Data:Variable @5E5A-5E68 XT:5E66 CFA:1D29 DLen: 2 STAGE: Dictionaries)
VARIABLE STAR-HR ( @5E66=0)

( Data:Variable @5E68-5E76 XT:5E74 CFA:1D29 DLen: 2 STAGE: Dictionaries)
VARIABLE STARDAT_ ( @5E74=0)

( Data:Variable @5E76-5E84 XT:5E82 CFA:1D29 DLen: 2 STAGE: Dictionaries)
VARIABLE TIME-PA_____ ( @5E82=0)

( Data:Variable @5E84-5E92 XT:5E90 CFA:1D29 DLen: 2 STAGE: Dictionaries)
VARIABLE #CLRMAP ( @5E90=$6567)

( Data:Variable @5E92-5E9D XT:5E9B CFA:1D29 DLen: 2 STAGE: Dictionaries)
VARIABLE PLHI ( @5E9B=-1)

( Data:Variable @5E9D-5EAB XT:5EA9 CFA:1D29 DLen: 2 STAGE: Dictionaries)
VARIABLE 'PROCES_ ( @5EA9=$7275)

( Data:Variable @5EAB-5EB8 XT:5EB6 CFA:1D29 DLen: 2 STAGE: Dictionaries)
VARIABLE CURSEG ( @5EB6=$8D4E)

( Data:Variable @5EB8-5EC6 XT:5EC4 CFA:1D29 DLen: 2 STAGE: Dictionaries)
VARIABLE 'SIMULA__ ( @5EC4=$D0E5 ( ' SIMULATE ))

( Data:Variable @5EC6-5ED3 XT:5ED1 CFA:1D29 DLen: 2 STAGE: Dictionaries)
VARIABLE 'DEATH ( @5ED1=$6365)

( Data:Variable @5ED3-5EE1 XT:5EDF CFA:1D29 DLen: 2 STAGE: Dictionaries)
VARIABLE 'ENDING ( @5EDF=$6320)

( Data:Variable @5EE1-5EEF XT:5EED CFA:1D29 DLen: 2 STAGE: Dictionaries)
VARIABLE [KEYINT_ ( @5EED=0)

( Data:Variable @5EEF-5EFD XT:5EFB CFA:1D29 DLen: 2 STAGE: Dictionaries)
VARIABLE 'CLEANU_ ( @5EFB=$2D20)

( Data:Variable @5EFD-5F0B XT:5F09 CFA:1D29 DLen: 2 STAGE: Dictionaries)
VARIABLE 'KEY-CA__ ( @5F09=$6D20)

( Data:Variable @5F0B-5F19 XT:5F17 CFA:1D29 DLen: 2 STAGE: Dictionaries)
VARIABLE '.VITAL______ ( @5F17=$4749)

( Data:Variable @5F19-5F26 XT:5F24 CFA:1D29 DLen: 2 STAGE: Dictionaries)
VARIABLE '.DATE ( @5F24=$7469)

( Data:Variable @5F26-5F34 XT:5F32 CFA:1D29 DLen: 2 STAGE: Dictionaries)
VARIABLE '.VEHIC_________ ( @5F32=$532D)

( Data:Variable @5F34-5F42 XT:5F40 CFA:1D29 DLen: 2 STAGE: Dictionaries)
VARIABLE 'VEHICL_______ ( @5F40=$5943)

( Data:Variable @5F42-5F50 XT:5F4E CFA:1D29 DLen: 2 STAGE: Dictionaries)
VARIABLE 'CREW-C____ ( @5F4E=$454C ( ' _dos-current-drive ))

( Data:Variable @5F50-5F5E XT:5F5C CFA:1D29 DLen: 2 STAGE: Dictionaries)
VARIABLE 'EXTERN_________ ( @5F5C=$3A48 ( ' NOP ))

( Data:Variable @5F5E-5F6C XT:5F6A CFA:1D29 DLen: 2 STAGE: Dictionaries)
VARIABLE 'REPAIR ( @5F6A=$6574)

( Data:Variable @5F6C-5F7A XT:5F78 CFA:1D29 DLen: 2 STAGE: Dictionaries)
VARIABLE 'TREATM___ ( @5F78=$2054)

( Data:Variable @5F7A-5F88 XT:5F86 CFA:1D29 DLen: 2 STAGE: Dictionaries)
VARIABLE WEAPON-_____ ( @5F86=$4552)

( Data:Variable @5F88-5F94 XT:5F92 CFA:1D29 DLen: 2 STAGE: Dictionaries)
VARIABLE ^CRIT ( @5F92=$2045)

( Data:Variable @5F94-5FA0 XT:5F9E CFA:1D29 DLen: 2 STAGE: Dictionaries)
VARIABLE ?FLAT ( @5F9E=$6F74)

( Data:Variable @5FA0-5FAB XT:5FA9 CFA:1D29 DLen: 2 STAGE: Dictionaries)
VARIABLE ?SUP ( @5FA9=0)

( Data:Variable @5FAB-5FB7 XT:5FB5 CFA:1D29 DLen: 2 STAGE: Dictionaries)
VARIABLE E-USE ( @5FB5=$454C ( ' _dos-current-drive ))

( Data:Variable @5FB7-5FC5 XT:5FC3 CFA:1D29 DLen: 2 STAGE: Dictionaries)
VARIABLE 'ENERGY ( @5FC3=$CC72 ( ' MUSE-E ))

( Data:Variable @5FC5-5FD3 XT:5FD1 CFA:1D29 DLen: 2 STAGE: Dictionaries)
VARIABLE ?SECURE ( @5FD1=0)

( Data:Variable @5FD3-5FDE XT:5FDC CFA:1D29 DLen: 2 STAGE: Dictionaries)
VARIABLE 'STP ( @5FDC=$D136 ( ' SIC'EM ))

( Data:Variable @5FDE-5FEB XT:5FE9 CFA:1D29 DLen: 2 STAGE: Dictionaries)
VARIABLE 'RSIDE ( @5FE9=$D145 ( ' 2NDS ))

( Data:Variable @5FEB-5FF8 XT:5FF6 CFA:1D29 DLen: 2 STAGE: Dictionaries)
VARIABLE DERROR ( @5FF6=$2020)

( Data:WordArray @5FF8-6016 XT:6000 CFA:5275 DLen: 22 STAGE: Dictionaries)
TABLE OVT
  $07E6 ( ' USER_PTR:EMIT )
  $07E0 ( ' USER_PTR:CR )
  $07FA ( ' USER_PTR:TYPE )
  $55F2 ( ' COLOR )
  $586E ( ' XBLT )
  $5863 ( ' YBLT )
  $5892 ( ' WBLT )
  $5887 ( ' LBLT )
  $589D ( ' ABLT )
  $58AA ( ' BLTSEG )
  $587C ( ' XORMODE )

( Data:Variable @6016-6021 XT:601F CFA:1D29 DLen: 2 STAGE: Dictionaries)
VARIABLE BITS ( @601F=$2020)

( Data:Variable @6021-602D XT:602B CFA:1D29 DLen: 2 STAGE: Dictionaries)
VARIABLE #BITS ( @602B=$2020)

( @602D-6039 XT:602F CFA:224C DLen: 10 STAGE: Words)
: _colorTable!
 _colorTable 16 CMOVE ; 

( @6039-6041 XT:603B CFA:224C DLen: 6 STAGE: Words)
: [STARFLT:603B]
 _cga_colorTable _colorTable! ; 

( @6041-6049 XT:6043 CFA:224C DLen: 6 STAGE: Words)
: [STARFLT:6043]
 _ega_colorTable _colorTable! ; 

( Data:CaseEx @6049-6063 XT:6053 CFA:4A96 DLen: 16 STAGE: Dictionaries)
CASE: CCASE
  $6039 ( ' [STARFLT:603B] )
  $6039 ( ' [STARFLT:603B] )
  $6039 ( ' [STARFLT:603B] )
  $6039 ( ' [STARFLT:603B] )
  $6039 ( ' [STARFLT:603B] )
  $6041 ( ' [STARFLT:6043] )
  $3A6C ( ' UNRAVEL )
  $1690 ( ' EXIT )

( @6063-607F XT:606F CFA:224C DLen: 16 STAGE: Dictionaries)
: COLORCA__
 ?EGA @ IF 
  DROP 5 
 THEN 
 CCASE ; 

( Data @607F-608F XT:608B CFA:1D29 DLen: 4 STAGE: Dictionaries)
CREATE TIRED-T___ 4 ALLOT ( @608B =
@608B 79 E9 00 56                                       y..V            
 )

( Data @608F-609F XT:609B CFA:1D29 DLen: 4 STAGE: Dictionaries)
CREATE LASTREP___ 4 ALLOT ( @609B =
@609B 00 00 00 00                                       ....            
 )

( Data @609F-60AF XT:60AB CFA:1D29 DLen: 4 STAGE: Dictionaries)
CREATE TALKCOU__ 4 ALLOT ( @60AB =
@60AB 20 69 74 69                                        iti            
 )

( Data @60AF-60BE XT:60BA CFA:1D29 DLen: 4 STAGE: Dictionaries)
CREATE VSTIME 4 ALLOT ( @60BA =
@60BA 00 00 00 00                                       ....            
 )

( Data @60BE-60CE XT:60CA CFA:1D29 DLen: 4 STAGE: Dictionaries)
CREATE 10*CARG_ 4 ALLOT ( @60CA =
@60CA 20 61 20 76                                        a v            
 )

( Data @60CE-60DE XT:60DA CFA:1D29 DLen: 4 STAGE: Dictionaries)
CREATE SENSE-A___ 4 ALLOT ( @60DA =
@60DA 00 00 00 29                                       ...)            
 )

( Data @60DE-60EC XT:60E8 CFA:1D29 DLen: 4 STAGE: Dictionaries)
CREATE EYEXY 4 ALLOT ( @60E8 =
@60E8 52 20 64 64                                       R dd            
 )

( Data @60EC-60FB XT:60F7 CFA:1D29 DLen: 4 STAGE: Dictionaries)
CREATE WEAPXY 4 ALLOT ( @60F7 =
@60F7 74 20 53 45                                       t SE            
 )

( Data @60FB-610A XT:6106 CFA:1D29 DLen: 4 STAGE: Dictionaries)
CREATE 10*END 4 ALLOT ( @6106 =
@6106 29 20 20 20                                       )               
 )

( Data @610A-611A XT:6116 CFA:1D29 DLen: 4 STAGE: Dictionaries)
CREATE TOWFINE 4 ALLOT ( @6116 =
@6116 20 20 20 20                                                       
 )

( Data @611A-612A XT:6126 CFA:1D29 DLen: 4 STAGE: Dictionaries)
CREATE ENC-TIM_ 4 ALLOT ( @6126 =
@6126 20 20 20 20                                                       
 )

( Data @612A-613A XT:6136 CFA:1D29 DLen: 4 STAGE: Dictionaries)
CREATE NAV-TIM_ 4 ALLOT ( @6136 =
@6136 20 20 20 20                                                       
 )

( Data @613A-6140 XT:613C CFA:1D29 DLen: 4 STAGE: Words)
CREATE [STARFLT:613C] 4 ALLOT ( @613C =
@613C C4 04 22 16                                       ..".            
 )

( Data @6140-614E XT:614A CFA:1D29 DLen: 4 STAGE: Dictionaries)
CREATE STIME 4 ALLOT ( @614A =
@614A 20 20 20 20                                                       
 )

( Data @614E-6154 XT:6150 CFA:1D29 DLen: 4 STAGE: Words)
CREATE [STARFLT:6150] 4 ALLOT ( @6150 =
@6150 05 00 30 26                                       ..0&            
 )

( Data @6154-615A XT:6156 CFA:1D29 DLen: 4 STAGE: Words)
CREATE [STARFLT:6156] 4 ALLOT ( @6156 =
@6156 05 00 30 26                                       ..0&            
 )

( Data @615A-6160 XT:615C CFA:1D29 DLen: 4 STAGE: Words)
CREATE [STARFLT:615C] 4 ALLOT ( @615C =
@615C 00 00 00 00                                       ....            
 )

( Data @6160-6166 XT:6162 CFA:1D29 DLen: 4 STAGE: Words)
CREATE [STARFLT:6162] 4 ALLOT ( @6162 =
@6162 55 16 00 72                                       U..r            
 )

( Data @6166-6176 XT:6172 CFA:1D29 DLen: 4 STAGE: Dictionaries)
CREATE KEYTIME 4 ALLOT ( @6172 =
@6172 74 20 6F 66                                       t of            
 )

( Data @6176-6186 XT:6182 CFA:1D29 DLen: 4 STAGE: Dictionaries)
CREATE LKEYTIM_ 4 ALLOT ( @6182 =
@6182 69 63 68 20                                       ich             
 )

( Data @6186-6196 XT:6192 CFA:1D29 DLen: 4 STAGE: Dictionaries)
CREATE (SCROLL_____ 4 ALLOT ( @6192 =
@6192 4F 58 29 20                                       OX)             
 )

( Data @6196-61A6 XT:61A2 CFA:1D29 DLen: 4 STAGE: Dictionaries)
CREATE (ORIGIN_____ 4 ALLOT ( @61A2 =
@61A2 4F 52 29 20                                       OR)             
 )

( Data @61A6-61B6 XT:61B2 CFA:1D29 DLen: 4 STAGE: Dictionaries)
CREATE (SCROLL______ 4 ALLOT ( @61B2 =
@61B2 4F 4E 54 29                                       ONT)            
 )

( Data @61B6-61C6 XT:61C2 CFA:1D29 DLen: 4 STAGE: Dictionaries)
CREATE (AWARD) 4 ALLOT ( @61C2 =
@61C2 47 75 00 20                                       Gu.             
 )

( Data @61C6-61D6 XT:61D2 CFA:1D29 DLen: 4 STAGE: Dictionaries)
CREATE BOX-IAD__ 4 ALLOT ( @61D2 =
@61D2 3D 10 00 10                                       =...            
 )

( Data @61D6-61E5 XT:61E1 CFA:1D29 DLen: 4 STAGE: Dictionaries)
CREATE (BOMB) 4 ALLOT ( @61E1 =
@61E1 00 00 00 20                                       ...             
 )

( Data @61E5-61F5 XT:61F1 CFA:1D29 DLen: 4 STAGE: Dictionaries)
CREATE REAL-MS________ 4 ALLOT ( @61F1 =
@61F1 00 00 10 27                                       ...'            
 )

( Data @61F5-6205 XT:6201 CFA:1D29 DLen: 4 STAGE: Dictionaries)
CREATE LAST-UP____ 4 ALLOT ( @6201 =
@6201 00 00 00 00                                       ....            
 )

( Data @6205-6215 XT:6211 CFA:1D29 DLen: 4 STAGE: Dictionaries)
CREATE XWLD:XP__ 4 ALLOT ( @6211 =
@6211 20 00 08 00                                        ...            
 )

( Data @6215-6225 XT:6221 CFA:1D29 DLen: 4 STAGE: Dictionaries)
CREATE YWLD:YP__ 4 ALLOT ( @6221 =
@6221 30 00 08 00                                       0...            
 )

( Data @6225-6234 XT:6230 CFA:1D29 DLen: 4 STAGE: Dictionaries)
CREATE ANCHOR 4 ALLOT ( @6230 =
@6230 78 EC 78 EC                                       x.x.            
 )

( Data @6234-6244 XT:6240 CFA:1D29 DLen: 4 STAGE: Dictionaries)
CREATE OK-TALK_____ 4 ALLOT ( @6240 =
@6240 50 EC 00 20                                       P..             
 )

( Data @6244-6254 XT:6250 CFA:1D29 DLen: 4 STAGE: Dictionaries)
CREATE (STARPO___ 4 ALLOT ( @6250 =
@6250 E5 96 00 56                                       ...V            
 )

( Data @6254-6263 XT:625F CFA:1D29 DLen: 4 STAGE: Dictionaries)
CREATE (SHIP) 4 ALLOT ( @625F =
@625F F0 9A 00 72                                       ...r            
 )

( Data @6263-6273 XT:626F CFA:1D29 DLen: 4 STAGE: Dictionaries)
CREATE TVEHICL_ 4 ALLOT ( @626F =
@626F 46 9B 00 73                                       F..s            
 )

( Data @6273-6283 XT:627F CFA:1D29 DLen: 4 STAGE: Dictionaries)
CREATE TV-HOLD 4 ALLOT ( @627F =
@627F 6B 9B 00 61                                       k..a            
 )

( Data @6283-6293 XT:628F CFA:1D29 DLen: 4 STAGE: Dictionaries)
CREATE SUPER-B__ 4 ALLOT ( @628F =
@628F 20 72 72 61                                        rra            
 )

( Data @6293-62A3 XT:629F CFA:1D29 DLen: 4 STAGE: Dictionaries)
CREATE (SYSTEM) 4 ALLOT ( @629F =
@629F 21 16 00 65                                       !..e            
 )

( Data @62A3-62B3 XT:62AF CFA:1D29 DLen: 4 STAGE: Dictionaries)
CREATE (ORBIT) 4 ALLOT ( @62AF =
@62AF 88 1D 02 65                                       ...e            
 )

( Data @62B3-62C3 XT:62BF CFA:1D29 DLen: 4 STAGE: Dictionaries)
CREATE (PLANET) 4 ALLOT ( @62BF =
@62BF 55 16 00 65                                       U..e            
 )

( Data @62C3-62D3 XT:62CF CFA:1D29 DLen: 4 STAGE: Dictionaries)
CREATE (SURFAC__ 4 ALLOT ( @62CF =
@62CF 20 72 72 65                                        rre            
 )

( Data @62D3-62E3 XT:62DF CFA:1D29 DLen: 4 STAGE: Dictionaries)
CREATE (ENCOUN____ 4 ALLOT ( @62DF =
@62DF 00 00 00 00                                       ....            
 )

( Data @62E3-62F3 XT:62EF CFA:1D29 DLen: 4 STAGE: Dictionaries)
CREATE (SHIPBO__ 4 ALLOT ( @62EF =
@62EF BC 9A 00 65                                       ...e            
 )

( Data @62F3-6303 XT:62FF CFA:1D29 DLen: 4 STAGE: Dictionaries)
CREATE (AORIGI______ 4 ALLOT ( @62FF =
@62FF 00 00 00 00                                       ....            
 )

( Data @6303-6313 XT:630F CFA:1D29 DLen: 4 STAGE: Dictionaries)
CREATE THIS-RE____ 4 ALLOT ( @630F =
@630F 4F 4E 20 6E                                       ON n            
 )

( Data @6313-6323 XT:631F CFA:1D29 DLen: 4 STAGE: Dictionaries)
CREATE (THIS-I____ 4 ALLOT ( @631F =
@631F 4D 29 20 68                                       M) h            
 )

( Data:Variable @6323-6327 XT:6325 CFA:1D29 DLen: 2 STAGE: Words)
VARIABLE [STARFLT:6325] ( @6325=$B429)

( Data @6327-63E3 XT:6329 CFA:1D29 DLen: 186 STAGE: Words)
CREATE [STARFLT:6329] 186 ALLOT ( @6329 =
@6329 00 00 00 00 00 00 00 00 00 00 00 00 00 00 00 00   ................
@6339 00 00 00 00 00 00 00 00 00 00 00 00 00 00 00 00   ................
@6349 00 00 00 00 00 00 00 00 00 00 00 00 00 00 00 00   ................
@6359 00 00 00 00 00 00 00 00 00 00 00 00 00 00 00 00   ................
@6369 00 00 00 00 00 00 00 00 00 00 00 00 00 00 00 00   ................
@6379 00 00 00 00 00 00 00 00 00 00 00 00 00 32 10 00   .............2..
@6389 BC 9A 00 88 1D 02 BC 9A 00 88 1D 02 21 16 00 50   ............!..P
@6399 10 00 00 00 00 00 00 00 29 1D 01 00 3C CA 01 00   ........)...<...
@63A9 69 CA 01 00 4B CA 01 00 87 CA 01 00 01 00 C3 CA   i...K...........
@63B9 01 00 0E CB 01 00 4A CB 01 00 77 CB 01 00 A4 CB   ......J...w.....
@63C9 01 00 FE CB 01 00 49 CC 01 00 00 00 01 00 86 7A   ......I........z
@63D9 B2 7D 3A 20 08 70 47 87 20 20                     .}: .pG.        
 )

( Data @63E3-64FD XT:63EC CFA:1D29 DLen: 273 STAGE: Dictionaries)
CREATE IBFR 273 ALLOT ( @63EC =
@63EC 0E 00 00 00 9A 00 99 9A 00 F0 9A 00 12 00 03 00   ................
@63FC F5 FF 90 00 20 20 47 47 4E 47 20 4D 41 54 45 55   ....  GGNG MATEU
@640C 43 45 52 20 4F 52 4E 47 20 4C 41 56 41 FC 97 F3   CER ORNG LAVA...
@641C 59 EF A4 AF 89 A5 0B FA 1F 94 63 E4 0D E3 6B EE   Y.........c...k.
@642C 40 BE 92 3F EC 8F 07 05 19 5E 41 A3 25 6D 19 5F   @..?.....^A.%m._
@643C 5B FA F9 9F B9 38 78 CB 0E 3C 0A 85 77 A8 AE 78   [....8x..<..w..x
@644C B8 FC 9E F2 45 C7 57 EE 83 93 B7 1B 7A 35 91 0A   ....E.W.....z5..
@645C B7 C7 60 66 58 BE 85 5A 32 C8 84 16 D2 30 6D F1   ..`fX..Z2....0m.
@646C 6B E0 11 54 65 6C 9F B7 0E 80 59 5D F1 DE 68 89   k..Tel....Y]..h.
@647C F5 B4 0F 79 65 F1 47 10 36 20 8E 6C 9E 3B BC B5   ...ye.G.6 .l.;..
@648C F4 44 45 20 4D 45 54 20 57 49 54 48 20 46 4F 52   .DE MET WITH FOR
@649C 43 45 2E 20 44 4F 20 59 4F 55 20 41 47 52 45 45   CE. DO YOU AGREE
@64AC 20 54 4F 20 43 4F 4D 45 20 41 4C 4F 4E 47 20 50    TO COME ALONG P
@64BC 45 41 43 45 46 55 4C 4C 59 3F 20 45 44 3F 20 4E   EACEFULLY? ED? N
@64CC 4F 57 20 41 4E 44 20 46 4F 52 45 56 45 52 20 4D   OW AND FOREVER M
@64DC 4F 52 54 41 4C 20 45 4E 45 4D 49 45 53 2E 20 20   ORTAL ENEMIES.  
@64EC 20 20 20 20 20 20 20 20 20 20 20 20 20 20 20 20                   
@64FC 20                                                                
 )

( Data @64FD-6698 XT:6508 CFA:1D29 DLen: 400 STAGE: Dictionaries)
CREATE YTABLE 400 ALLOT ( @6508 =
@6508 F0 3E F0 1E A0 3E A0 1E 50 3E 50 1E 00 3E 00 1E   .>...>..P>P..>..
@6518 B0 3D B0 1D 60 3D 60 1D 10 3D 10 1D C0 3C C0 1C   .=..`=`..=...<..
@6528 70 3C 70 1C 20 3C 20 1C D0 3B D0 1B 80 3B 80 1B   p<p. < ..;...;..
@6538 30 3B 30 1B E0 3A E0 1A 90 3A 90 1A 40 3A 40 1A   0;0..:...:..@:@.
@6548 F0 39 F0 19 A0 39 A0 19 50 39 50 19 00 39 00 19   .9...9..P9P..9..
@6558 B0 38 B0 18 60 38 60 18 10 38 10 18 C0 37 C0 17   .8..`8`..8...7..
@6568 70 37 70 17 20 37 20 17 D0 36 D0 16 80 36 80 16   p7p. 7 ..6...6..
@6578 30 36 30 16 E0 35 E0 15 90 35 90 15 40 35 40 15   060..5...5..@5@.
@6588 F0 34 F0 14 A0 34 A0 14 50 34 50 14 00 34 00 14   .4...4..P4P..4..
@6598 B0 33 B0 13 60 33 60 13 10 33 10 13 C0 32 C0 12   .3..`3`..3...2..
@65A8 70 32 70 12 20 32 20 12 D0 31 D0 11 80 31 80 11   p2p. 2 ..1...1..
@65B8 30 31 30 11 E0 30 E0 10 90 30 90 10 40 30 40 10   010..0...0..@0@.
@65C8 F0 2F F0 0F A0 2F A0 0F 50 2F 50 0F 00 2F 00 0F   ./.../..P/P../..
@65D8 B0 2E B0 0E 60 2E 60 0E 10 2E 10 0E C0 2D C0 0D   ....`.`......-..
@65E8 70 2D 70 0D 20 2D 20 0D D0 2C D0 0C 80 2C 80 0C   p-p. - ..,...,..
@65F8 30 2C 30 0C E0 2B E0 0B 90 2B 90 0B 40 2B 40 0B   0,0..+...+..@+@.
@6608 F0 2A F0 0A A0 2A A0 0A 50 2A 50 0A 00 2A 00 0A   .*...*..P*P..*..
@6618 B0 29 B0 09 60 29 60 09 10 29 10 09 C0 28 C0 08   .)..`)`..)...(..
@6628 70 28 70 08 20 28 20 08 D0 27 D0 07 80 27 80 07   p(p. ( ..'...'..
@6638 30 27 30 07 E0 26 E0 06 90 26 90 06 40 26 40 06   0'0..&...&..@&@.
@6648 F0 25 F0 05 A0 25 A0 05 50 25 50 05 00 25 00 05   .%...%..P%P..%..
@6658 B0 24 B0 04 60 24 60 04 10 24 10 04 C0 23 C0 03   .$..`$`..$...#..
@6668 70 23 70 03 20 23 20 03 D0 22 D0 02 80 22 80 02   p#p. # .."..."..
@6678 30 22 30 02 E0 21 E0 01 90 21 90 01 40 21 40 01   0"0..!...!..@!@.
@6688 F0 20 F0 00 A0 20 A0 00 50 20 50 00 00 20 00 00   . ... ..P P.. ..
 )

( Data @6698-6794 XT:66A4 CFA:1D29 DLen: 240 STAGE: Dictionaries)
CREATE VYTABLE 240 ALLOT ( @66A4 =
@66A4 00 00 70 08 24 00 94 08 48 00 B8 08 6C 00 DC 08   ..p.$...H...l...
@66B4 90 00 00 09 B4 00 24 09 D8 00 48 09 FC 00 6C 09   ......$...H...l.
@66C4 20 01 90 09 44 01 B4 09 68 01 D8 09 8C 01 FC 09    ...D...h.......
@66D4 B0 01 20 0A D4 01 44 0A F8 01 68 0A 1C 02 8C 0A   .. ...D...h.....
@66E4 40 02 B0 0A 64 02 D4 0A 88 02 F8 0A AC 02 1C 0B   @...d...........
@66F4 D0 02 40 0B F4 02 64 0B 18 03 88 0B 3C 03 AC 0B   ..@...d.....<...
@6704 60 03 D0 0B 84 03 F4 0B A8 03 18 0C CC 03 3C 0C   `.............<.
@6714 F0 03 60 0C 14 04 84 0C 38 04 A8 0C 5C 04 CC 0C   ..`.....8...\...
@6724 80 04 F0 0C A4 04 14 0D C8 04 38 0D EC 04 5C 0D   ..........8...\.
@6734 10 05 80 0D 34 05 A4 0D 58 05 C8 0D 7C 05 EC 0D   ....4...X...|...
@6744 A0 05 10 0E C4 05 34 0E E8 05 58 0E 0C 06 7C 0E   ......4...X...|.
@6754 30 06 A0 0E 54 06 C4 0E 78 06 E8 0E 9C 06 0C 0F   0...T...x.......
@6764 C0 06 30 0F E4 06 54 0F 08 07 78 0F 2C 07 9C 0F   ..0...T...x.,...
@6774 50 07 C0 0F 74 07 E4 0F 98 07 08 10 BC 07 2C 10   P...t.........,.
@6784 E0 07 50 10 04 08 74 10 28 08 98 10 4C 08 BC 10   ..P...t.(...L...
 )

( Data @6794-692E XT:679E CFA:1D29 DLen: 400 STAGE: Dictionaries)
CREATE LSCAN 400 ALLOT ( @679E =
@679E 53 43 52 4F 4C 4C 2D 54 45 58 54 20 72 20 74 61   SCROLL-TEXT r ta
@67AE 62 6C 65 29 20 20 20 20 20 20 20 20 20 20 20 20   ble)            
@67BE 20 20 20 20 20 20 20 20 20 20 20 20 20 20 20 20                   
@67CE 20 20 20 20 20 20 20 20 20 20 20 20 20 20 20 20                   
@67DE 20 20 20 20 20 20 20 20 20 20 20 20 20 20 20 20                   
@67EE 20 20 28 20 73 65 74 20 64 69 73 70 6C 61 79 20     ( set display 
@67FE 62 75 66 66 65 72 20 29 20 20 20 20 20 20 20 20   buffer )        
@680E 20 20 20 20 20 20 5C 20 53 45 54 55 50 20 20 20         \ SETUP   
@681E 4B 52 4E 20 28 20 72 66 67 32 35 73 65 70 38 37   KRN ( rfg25sep87
@682E 29 20 68 65 78 20 20 20 20 20 20 20 20 20 20 20   ) hex           
@683E 20 20 20 20 20 20 20 20 20 20 20 20 20 20 20 20                   
@684E 20 20 20 20 20 20 20 20 20 20 20 20 20 20 20 20                   
@685E 20 20 20 20 20 20 20 20 20 20 20 20 20 20 20 20                   
@686E 20 20 3A 20 73 65 74 64 62 75 66 20 20 20 20 20     : setdbuf     
@687E 20 20 20 20 20 20 20 20 20 20 20 20 20 20 20 20                   
@688E 20 20 20 20 20 20 20 20 20 20 20 20 53 9C 53 9C               S.S.
@689E 53 9C 53 9C 53 9C 53 9C 53 9C 81 81 80 82 81 81   S.S.S.S.S.......
@68AE 53 9C 53 9C 53 9C 53 9C 77 77 76 78 77 77 53 9C   S.S.S.S.wwvxwwS.
@68BE 53 9C 53 9C 8C 8C 8B 8D 8C 8C 53 9C 53 9C 53 9C   S.S.......S.S.S.
@68CE 53 9C 53 9C 53 9C 53 9C 53 9C 75 75 74 76 75 75   S.S.S.S.S.uutvuu
@68DE 77 79 77 79 77 79 78 78 53 9C 53 9C 53 9C 53 9C   wywywyxxS.S.S.S.
@68EE 53 9C 53 9C 53 9C 53 9C 78 78 77 79 78 78 53 9C   S.S.S.S.xxwyxxS.
@68FE 53 9C 53 9C 53 9C 53 9C 53 9C 53 9C 53 9C 53 9C   S.S.S.S.S.S.S.S.
@690E 53 9C 53 9C 53 9C 53 9C 53 9C 53 9C 53 9C 53 9C   S.S.S.S.S.S.S.S.
@691E 53 9C 53 9C 30 3C 30 3C 30 3C 30 3C 30 3C 20 20   S.S.0<0<0<0<0<  
 )

( Data @692E-6970 XT:6930 CFA:1D29 DLen: 64 STAGE: Words)
CREATE [STARFLT:6930] 64 ALLOT ( @6930 =
@6930 C2 00 3C 00 C2 00 30 00 C6 00 30 00 C6 00 3C 00   ..<...0...0...<.
@6940 49 41 42 4C 45 20 2D 20 41 52 52 41 59 20 2D 20   IABLE - ARRAY - 
@6950 53 48 5C 20 54 52 41 4E 53 56 41 52 4B 52 4E 20   SH\ TRANSVARKRN 
@6960 28 20 72 66 67 31 39 73 65 70 38 37 29 20 20 20   ( rfg19sep87)   
 )

( Data @6970-69B2 XT:6972 CFA:1D29 DLen: 64 STAGE: Words)
CREATE [STARFLT:6972] 64 ALLOT ( @6972 =
@6972 3A 20 05 41 4C 4C 4F 54 20 20 62 30 30 30 20 31   : .ALLOT  b000 1
@6982 36 6B 20 32 2A 20 20 20 20 20 20 20 20 20 20 20   6k 2*           
@6992 20 20 20 20 20 20 20 20 20 20 20 20 20 20 20 20                   
@69A2 20 20 20 20 20 20 20 20 20 20 20 20 20 20 20 20                   
 )

( Data @69B2-69F4 XT:69B4 CFA:1D29 DLen: 64 STAGE: Words)
CREATE [STARFLT:69B4] 64 ALLOT ( @69B4 =
@69B4 C6 00 3A 00 C2 00 38 00 20 20 62 38 30 30 20 31   ..:...8.  b800 1
@69C4 36 6B 20 20 20 20 20 20 20 20 20 20 20 20 20 20   6k              
@69D4 20 20 20 20 20 20 20 20 20 20 20 20 20 20 20 20                   
@69E4 20 20 20 20 20 20 20 20 20 20 20 20 20 20 20 20                   
 )

( Data @69F4-6A36 XT:69F6 CFA:1D29 DLen: 64 STAGE: Words)
CREATE [STARFLT:69F6] 64 ALLOT ( @69F6 =
@69F6 00 00 05 41 4C 4C 4F 54 20 20 20 20 20 20 20 20   ...ALLOT        
@6A06 20 20 20 20 20 20 20 20 20 20 20 20 20 20 20 20                   
@6A16 20 20 20 20 20 20 20 20 20 20 20 20 20 20 20 20                   
@6A26 20 20 20 20 20 20 20 20 20 20 20 20 20 20 20 20                   
 )

( Data:ByteArray @6A36-6A7F XT:6A3F CFA:1D29 DLen: 64 STAGE: Dictionaries)
CREATE CMAP 64 ALLOT ( @6A3F =
@6A3F 22 22 22 22 22 22 22 22 11 11 11 11 11 11 11 11   """"""""........
@6A4F 99 99 99 99 99 99 99 99 DD DD DD DD DD DD DD DD   ................
@6A5F CC CC CC CC CC CC CC CC 88 88 88 88 88 88 88 88   ................
@6A6F 55 55 55 55 55 55 55 55 FF FF FF FF FF FF FF FF   UUUUUUUU........
 )

( Data @6A7F-6A8D XT:6A89 CFA:1D29 DLen: 4 STAGE: Dictionaries)
CREATE LRTRN 4 ALLOT ( @6A89 =
@6A89 70 90 F1 16                                       p...            
 )

( Data @6A8D-6AA1 XT:6A99 CFA:4E00 DLen: 8 STAGE: Dictionaries)
ARRAY MERCATO_ 8 ALLOT ( @6A99 =
@6A99 30 00 18 00 80 04 91 93                           0.......        
 )

( Data @6AA1-6AB5 XT:6AAD CFA:4E00 DLen: 8 STAGE: Dictionaries)
ARRAY CONANCH__ 8 ALLOT ( @6AAD =
@6AAD 09 00 07 00 3F 00 8C 93                           ....?...        
 )

( Data @6AB5-6AC9 XT:6AC1 CFA:4E00 DLen: 8 STAGE: Dictionaries)
ARRAY CONTOUR 8 ALLOT ( @6AC1 =
@6AC1 3D 00 65 00 11 18 FE 91                           =.e.....        
 )

( Data @6AC9-6ADD XT:6AD5 CFA:4E00 DLen: 8 STAGE: Dictionaries)
ARRAY ICONIMA__ 8 ALLOT ( @6AD5 =
@6AD5 12 00 40 00 80 04 B2 94                           ..@.....        
 )

( Data @6ADD-6AF0 XT:6AE8 CFA:4E00 DLen: 8 STAGE: Dictionaries)
ARRAY VERTEX 8 ALLOT ( @6AE8 =
@6AE8 03 00 86 00 92 01 95 96                           ........        
 )

( Data @6AF0-6B02 XT:6AFA CFA:4E00 DLen: 8 STAGE: Dictionaries)
ARRAY FACET 8 ALLOT ( @6AFA =
@6AFA 04 00 48 00 20 01 79 96                           ..H. .y.        
 )

( Data @6B02-6B13 XT:6B0B CFA:4E00 DLen: 8 STAGE: Dictionaries)
ARRAY FACE 8 ALLOT ( @6B0B =
@6B0B 03 00 48 00 D8 00 62 96                           ..H...b.        
 )

( Data @6B13-6B25 XT:6B1D CFA:4E00 DLen: 8 STAGE: Dictionaries)
ARRAY PPOLY 8 ALLOT ( @6B1D =
@6B1D 05 00 20 03 A0 0F 03 95                           .. .....        
 )

( Data @6B25-6B39 XT:6B31 CFA:4E00 DLen: 8 STAGE: Dictionaries)
ARRAY GVERTEX 8 ALLOT ( @6B31 =
@6B31 03 00 75 00 5F 01 8D 94                           ..u._...        
 )

( Data @6B39-6B4B XT:6B43 CFA:4E00 DLen: 8 STAGE: Dictionaries)
ARRAY GPOLY 8 ALLOT ( @6B43 =
@6B43 04 00 59 00 64 01 6B 94                           ..Y.d.k.        
 )

( Data @6B4B-6B5F XT:6B57 CFA:4E00 DLen: 8 STAGE: Dictionaries)
ARRAY GRIDCOL__ 8 ALLOT ( @6B57 =
@6B57 02 00 59 00 B2 00 54 94                           ..Y...T.        
 )

( Data @6B5F-6B72 XT:6B6A CFA:4E00 DLen: 8 STAGE: Dictionaries)
ARRAY G1VERT 8 ALLOT ( @6B6A =
@6B6A 03 00 75 00 5F 01 2F 94                           ..u._./.        
 )

( Data @6B72-6B86 XT:6B7E CFA:4E00 DLen: 8 STAGE: Dictionaries)
ARRAY 9X9COAR__ 8 ALLOT ( @6B7E =
@6B7E 09 00 09 00 51 00 28 94                           ....Q.(.        
 )

( Data @6B86-6B9A XT:6B92 CFA:4E00 DLen: 8 STAGE: Dictionaries)
ARRAY 9X9FINE 8 ALLOT ( @6B92 =
@6B92 09 00 09 00 51 00 21 94                           ....Q.!.        
 )

( Data @6B9A-6BAE XT:6BA6 CFA:4E00 DLen: 8 STAGE: Dictionaries)
ARRAY XFORMVE__ 8 ALLOT ( @6BA6 =
@6BA6 06 00 86 00 24 03 DD 93                           ....$...        
 )

( Data:WordArray @6BAE-6BD8 XT:6BBA CFA:5275 DLen: 30 STAGE: Dictionaries)
TABLE IARRAYS
  $6AE8 ( ' VERTEX )
  $6AFA ( ' FACET )
  $6B0B ( ' FACE )
  $6B1D ( ' PPOLY )
  $6AD5 ( ' ICONIMA__ )
  $6B31 ( ' GVERTEX )
  $6B43 ( ' GPOLY )
  $6B57 ( ' GRIDCOL__ )
  $6B6A ( ' G1VERT )
  $6B7E ( ' 9X9COAR__ )
  $6B92 ( ' 9X9FINE )
  $6BA6 ( ' XFORMVE__ )
  $6A99 ( ' MERCATO_ )
  $6AAD ( ' CONANCH__ )
  $6AC1 ( ' CONTOUR )

( Data:DoubleWord @6BD8-6BE8 XT:6BE4 CFA:3B68 DLen: 4 STAGE: Dictionaries)
$0096E5. ( CLASS:STARPORT ) 2C= *STARPO__

( Data:DoubleWord @6BE8-6BF8 XT:6BF4 CFA:3B68 DLen: 4 STAGE: Dictionaries)
$009704. ( CLASS:PERSONNEL ) 2C= *PERSON___

( Data:DoubleWord @6BF8-6C08 XT:6C04 CFA:3B68 DLen: 4 STAGE: Dictionaries)
$009ABC. ( CLASS:SHIP-CONFIG ) 2C= *SHIP-C_____

( Data:DoubleWord @6C08-6C18 XT:6C14 CFA:3B68 DLen: 4 STAGE: Dictionaries)
$009AC7. ( CLASS:TRADE-DEPOT ) 2C= *TRADE-_____

( Data:DoubleWord @6C18-6C28 XT:6C24 CFA:3B68 DLen: 4 STAGE: Dictionaries)
$009AD2. ( BOX:ITEMS FOR SALE ) 2C= *ITEMS-________

( Data:DoubleWord @6C28-6C38 XT:6C34 CFA:3B68 DLen: 4 STAGE: Dictionaries)
$009AE5. ( CLASS:OPERATIONS ) 2C= *OPERAT____

( Data:DoubleWord @6C38-6C46 XT:6C42 CFA:3B68 DLen: 4 STAGE: Dictionaries)
$0096F0. ( CLASS:BANK ) 2C= *BANK

( Data:DoubleWord @6C46-6C56 XT:6C52 CFA:3B68 DLen: 4 STAGE: Dictionaries)
$009B58. ( BOX:STARSHIP HOLD ) 2C= *STARSH_______

( Data:Variable @6C56-6C64 XT:6C62 CFA:1D29 DLen: 2 STAGE: Dictionaries)
VARIABLE 'VERSIO____ ( @6C62=$7075 ( ' [STARFLT:7075] ))

( Data:Variable @6C64-6C70 XT:6C6E CFA:1D29 DLen: 2 STAGE: Dictionaries)
VARIABLE CTTOP ( @6C6E=64)

( Data:Variable @6C70-6C7C XT:6C7A CFA:1D29 DLen: 2 STAGE: Dictionaries)
VARIABLE CTBOT ( @6C7A=16)

( @6C7C-6CB6 XT:6C86 CFA:6C86 DLen: 48 STAGE: Dictionaries)
CODE C>EGA
(Address @6C86
   6C86 5A                   POP        DX
   6C87 83 E2 0F             AND        DX, 15
   6C8A 56                   PUSH       SI
   6C8B 33 C0                XOR        AX, AX
   6C8D 50                   PUSH       AX
   6C8E B9 10 00             MOV        CX, 16
   6C91 FD                   STD        
   6C92 BE CA 4F             MOV        SI, 4FCAh
 .STARFLT_6C95:
   6C95 AC                   LODSB      
   6C96 25 0F 00             AND        AX, 15
   6C99 3B C2                CMP        AX, DX
   6C9B 75 07                JNZ        6CA4h                            ; .STARFLT_6CA4
   6C9D 58                   POP        AX
   6C9E 8B C1                MOV        AX, CX
   6CA0 50                   PUSH       AX
   6CA1 B9 01 00             MOV        CX, 1
 .STARFLT_6CA4:
   6CA4 E2 EF                LOOP       6C95h                            ; .STARFLT_6C95
   6CA6 58                   POP        AX
   6CA7 BE CD 4F             MOV        SI, 4FCDh                        ; _ega_colorTable
   6CAA 03 F0                ADD        SI, AX
   6CAC 4E                   DEC        SI
   6CAD AC                   LODSB      
   6CAE 5E                   POP        SI
   6CAF FC                   CLD        
   6CB0 50                   PUSH       AX
   6CB1 AD                   LODSW      
   6CB2 8B D8                MOV        BX, AX
   6CB4 FF 27                JMP        WORD PTR [BX]
) CODE-END

( @6CB6-6CCC XT:6CC0 CFA:224C DLen: 12 STAGE: Dictionaries)
: ?>EGA
 ?EGA @ IF 
  C>EGA 
 THEN 
 ; 

( @6CCC-6D06 XT:6CD6 CFA:6CD6 DLen: 48 STAGE: Dictionaries)
CODE E>CGA
(Address @6CD6
   6CD6 5A                   POP        DX
   6CD7 83 E2 0F             AND        DX, 15
   6CDA 56                   PUSH       SI
   6CDB 33 C0                XOR        AX, AX
   6CDD 50                   PUSH       AX
   6CDE B9 10 00             MOV        CX, 16
   6CE1 FD                   STD        
   6CE2 BE DC 4F             MOV        SI, 4FDCh
 .STARFLT_6CE5:
   6CE5 AC                   LODSB      
   6CE6 25 0F 00             AND        AX, 15
   6CE9 3B C2                CMP        AX, DX
   6CEB 75 07                JNZ        6CF4h                            ; .STARFLT_6CF4
   6CED 58                   POP        AX
   6CEE 8B C1                MOV        AX, CX
   6CF0 50                   PUSH       AX
   6CF1 B9 01 00             MOV        CX, 1
 .STARFLT_6CF4:
   6CF4 E2 EF                LOOP       6CE5h                            ; .STARFLT_6CE5
   6CF6 58                   POP        AX
   6CF7 BE BB 4F             MOV        SI, 4FBBh                        ; _cga_colorTable
   6CFA 03 F0                ADD        SI, AX
   6CFC 4E                   DEC        SI
   6CFD AC                   LODSB      
   6CFE 5E                   POP        SI
   6CFF FC                   CLD        
   6D00 50                   PUSH       AX
   6D01 AD                   LODSW      
   6D02 8B D8                MOV        BX, AX
   6D04 FF 27                JMP        WORD PTR [BX]
) CODE-END

( @6D06-6D65 XT:6D12 CFA:6D12 DLen: 83 STAGE: Dictionaries)
CODE ?UPDATE
(Address @6D12
   6D12 59                   POP        CX
   6D13 0B C9                OR         CX, CX
   6D15 79 36                JNS        6D4Dh                            ; .STARFLT_6D4D
   6D17 8B 1E A1 54          MOV        BX, WORD PTR [54A1h]             ; [STARFLT:54A1]
   6D1B 8B D3                MOV        DX, BX
   6D1D 83 C2 07             ADD        DX, 7
   6D20 3B CA                CMP        CX, DX
   6D22 7E 27                JLE        6D4Bh                            ; .STARFLT_6D4B
   6D24 81 C2 01 04          ADD        DX, 0401h
   6D28 3B D1                CMP        DX, CX
   6D2A 7E 06                JLE        6D32h                            ; .STARFLT_6D32
   6D2C C6 47 02 FF          MOV        BYTE PTR [BX+2], -1
   6D30 EB 19                JMP        6D4Bh                            ; .STARFLT_6D4B
 .STARFLT_6D32:
   6D32 8B 1E A5 54          MOV        BX, WORD PTR [54A5h]             ; [STARFLT:54A5]
   6D36 8B D3                MOV        DX, BX
   6D38 83 C2 07             ADD        DX, 7
   6D3B 3B CA                CMP        CX, DX
   6D3D 7E 0C                JLE        6D4Bh                            ; .STARFLT_6D4B
   6D3F 81 C2 01 04          ADD        DX, 0401h
   6D43 3B D1                CMP        DX, CX
   6D45 7E 04                JLE        6D4Bh                            ; .STARFLT_6D4B
   6D47 C6 47 02 FF          MOV        BYTE PTR [BX+2], -1
 .STARFLT_6D4B:
 .STARFLT_6D4B:
 .STARFLT_6D4B:
 .STARFLT_6D4B:
   6D4B EB 12                JMP        6D5Fh                            ; .STARFLT_6D5F
 .STARFLT_6D4D:
   6D4D 81 F9 EF 63          CMP        CX, 63EFh
   6D51 78 0C                JS         6D5Fh                            ; .STARFLT_6D5F
   6D53 81 F9 FD 64          CMP        CX, 64FDh
   6D57 79 06                JNS        6D5Fh                            ; .STARFLT_6D5F
   6D59 BB EE 63             MOV        BX, 63EEh
   6D5C C6 07 FF             MOV        BYTE PTR [BX], -1
 .STARFLT_6D5F:
 .STARFLT_6D5F:
 .STARFLT_6D5F:
   6D5F 51                   PUSH       CX
   6D60 AD                   LODSW      
   6D61 8B D8                MOV        BX, AX
   6D63 FF 27                JMP        WORD PTR [BX]
) CODE-END

( @6D65-6D72 XT:6D6C CFA:224C DLen: 6 STAGE: Dictionaries)
: C!
 ?UPDATE C! ; 

( @6D72-6D7E XT:6D78 CFA:224C DLen: 6 STAGE: Dictionaries)
: !
 ?UPDATE ! ; 

( @6D7E-6D8B XT:6D85 CFA:224C DLen: 6 STAGE: Dictionaries)
: +!
 ?UPDATE +! ; 

( @6D8B-6D9A XT:6D94 CFA:224C DLen: 6 STAGE: Dictionaries)
: 1.5!
 ?UPDATE 1.5! ; 

( @6D9A-6DA7 XT:6DA1 CFA:224C DLen: 6 STAGE: Dictionaries)
: 2!
 ?UPDATE 2! ; 

( @6DA7-6DB2 XT:6DAE CFA:224C DLen: 4 STAGE: Dictionaries)
: D!
 2! ; 

( @6DB2-6DBF XT:6DB9 CFA:224C DLen: 6 STAGE: Dictionaries)
: ON
 ?UPDATE ON ; 

( @6DBF-6DCD XT:6DC7 CFA:224C DLen: 6 STAGE: Dictionaries)
: OFF
 ?UPDATE OFF ; 

( @6DCD-6DE2 XT:6DD6 CFA:224C DLen: 12 STAGE: Dictionaries)
: 2OFF
 ?UPDATE 0 0 ROT 2! ; 

( @6DE2-6DF6 XT:6DEC CFA:224C DLen: 10 STAGE: Dictionaries)
: CMOVE
 OVER ?UPDATE DROP CMOVE ; 

( @6DF6-6E0B XT:6DFF CFA:224C DLen: 12 STAGE: Dictionaries)
: FILL
 3 PICK ?UPDATE DROP FILL ; 

( @6E0B-6E17 XT:6E0D CFA:224C DLen: 10 STAGE: Words)
: [STARFLT:6E0D]
 [STARFLT:547B] OFF [STARFLT:547F] OFF ; 

( @6E17-6E27 XT:6E21 CFA:224C DLen: 6 STAGE: Dictionaries)
: BLOCK
 [STARFLT:6E0D] BLOCK ; 

( @6E27-6E38 XT:6E32 CFA:224C DLen: 6 STAGE: Dictionaries)
: LBLOCK
 [STARFLT:6E0D] LBLOCK ; 

( @6E38-6E47 XT:6E41 CFA:224C DLen: 6 STAGE: Dictionaries)
: LOAD
 [STARFLT:6E0D] LOAD ; 

( @6E47-6E87 XT:6E51 CFA:224C DLen: 54 STAGE: Dictionaries)
: -TEXT
 0 ROT 0 DO 
  DROP OVER I + C@ OVER I + C@ - DUP 0= NOT IF 
   LEAVE 
  THEN 
 LOOP 
 SWAP DROP SWAP DROP ; 

( @6E87-6EB0 XT:6E8E CFA:224C DLen: 34 STAGE: Dictionaries)
: $=
 2DUP C@ SWAP C@ = IF 
  COUNT ROT 1+ -TEXT NOT 
 ELSE 
  2DROP 0 
 THEN 
 ; 

( @6EB0-6ECE XT:6EBB CFA:224C DLen: 19 STAGE: Dictionaries)
: SIGFLD
 CREATE , DOES> ( CFA @6EC1 ) 
  @ SIGBLK BLOCK + ; 

( Data:Word @6ECE-6EDC XT:6EDA CFA:6EC1 DLen: 2 STAGE: Dictionaries)
$03F0 SIGFLD :SIGNATure

( Data:Word @6EDC-6EEA XT:6EE8 CFA:6EC1 DLen: 2 STAGE: Dictionaries)
$03F4 SIGFLD :TIMESTamp

( Data:Word @6EEA-6EF7 XT:6EF5 CFA:6EC1 DLen: 2 STAGE: Dictionaries)
$03F6 SIGFLD :CKSUM

( Data:Word @6EF7-6F03 XT:6F01 CFA:6EC1 DLen: 2 STAGE: Dictionaries)
$03F8 SIGFLD :SAVE

( Data:Word @6F03-6F11 XT:6F0F CFA:6EC1 DLen: 2 STAGE: Dictionaries)
$03FA SIGFLD :VERSIOn

( @6F11-6F3E XT:6F1A CFA:224C DLen: 36 STAGE: Dictionaries)
: THRU
 2DUP = IF 
  DROP LOAD 
 ELSE 
  1+ SWAP DO 
   I DUP . LOAD 
  LOOP 
 THEN 
 ; 

( @6F3E-6F62 XT:6F49 CFA:6F49 DLen: 25 STAGE: Dictionaries)
CODE VA>BLK
(Address @6F49
   6F49 58                   POP        AX
   6F4A 5A                   POP        DX
   6F4B B9 0A 00             MOV        CX, 10
 .STARFLT_6F4E:
   6F4E D1 E8                SHR        AX, 1
   6F50 D1 DA                RCR        DX, 1
   6F52 D1 DB                RCR        BX, 1
   6F54 E2 F8                LOOP       6F4Eh                            ; .STARFLT_6F4E
   6F56 B9 06 00             MOV        CX, 6
   6F59 D3 EB                SHR        BX, CL
   6F5B 53                   PUSH       BX
   6F5C 52                   PUSH       DX
   6F5D AD                   LODSW      
   6F5E 8B D8                MOV        BX, AX
   6F60 FF 27                JMP        WORD PTR [BX]
) CODE-END

( @6F62-6F75 XT:6F6D CFA:224C DLen: 8 STAGE: Dictionaries)
: VA>BUF
 VA>BLK BLOCK + ; 

( @6F75-6F7F XT:6F77 CFA:224C DLen: 8 STAGE: Words)
: [STARFLT:6F77]
 :SIGNATure 2@ SWAP ; 

( @6F7F-6F8D XT:6F81 CFA:224C DLen: 12 STAGE: Words)
: [STARFLT:6F81]
 OFFSET @ $05DC = ; 

( @6F8D-6FA1 XT:6F8F CFA:224C DLen: 18 STAGE: Words)
: [STARFLT:6F8F]
 :TIMESTamp @ TIMESTA__ @ = RELAXTI__ @ OR ; 

( @6FA1-6FAF XT:6FA3 CFA:224C DLen: 12 STAGE: Memory)
: [STARFLT:6FA3]
 VERSION @ :VERSIOn @ = ; 

( @6FAF-6FB7 XT:6FB1 CFA:224C DLen: 6 STAGE: Words)
: [STARFLT:6FB1]
 'VERSIO____ @EXECUTE ; 

( Data:Variable @6FB7-6FBB XT:6FB9 CFA:1D29 DLen: 2 STAGE: Words)
VARIABLE [STARFLT:6FB9] ( @6FB9=$6FDB ( ' [STARFLT:6FDB] ))

( @6FBB-6FD9 XT:6FBD CFA:224C DLen: 28 STAGE: Words)
: [STARFLT:6FBD]
 BEGIN 
  2DUP >TIB [STARFLT:6FB9] @EXECUTE [STARFLT:6F8F] NOT WHILE 
  2DUP [STARFLT:6FB1] 
 REPEAT 
 2DROP ; 

( @6FD9-6FE5 XT:6FDB CFA:224C DLen: 10 STAGE: Words)
: [STARFLT:6FDB]
 SYSUTIL SETFCB DROP DR3 ; 

( @6FE5-6FF1 XT:6FE7 CFA:224C DLen: 10 STAGE: Words)
: [STARFLT:6FE7]
 SYSTEM SETFCB DROP DR2 ; 

( @6FF1-7014 XT:6FFC CFA:224C DLen: 24 STAGE: Dictionaries)
: MOUNTA
 ' [STARFLT:6FDB] ( $6FDB ) [STARFLT:6FB9] ! " STARA.COM" [STARFLT:6FBD] ; 

( @7014-7037 XT:701F CFA:224C DLen: 24 STAGE: Dictionaries)
: MOUNTB
 ' [STARFLT:6FE7] ( $6FE7 ) [STARFLT:6FB9] ! " STARB.COM" [STARFLT:6FBD] ; 

( @7037-7049 XT:7039 CFA:224C DLen: 16 STAGE: Words)
: [STARFLT:7039]
 [STARFLT:6F81] IF 
  MOUNTB 
 ELSE 
  MOUNTA 
 THEN 
 ; 

( @7049-7061 XT:704B CFA:224C DLen: 22 STAGE: Words)
: [STARFLT:704B]
 ROT >R I SWAP U< SWAP R> 1+ U< AND ; 

( @7061-7073 XT:7063 CFA:224C DLen: 16 STAGE: Words)
: [STARFLT:7063]
 [STARFLT:6F77] 1+ [STARFLT:704B] NOT IF 
  [STARFLT:7039] 
 THEN 
 ; 

( @7073-70C9 XT:7075 CFA:224C DLen: 84 STAGE: Words)
: [STARFLT:7075]
 CR ." Place disk with the correct" CR TYPE ."  file and press any" CR ." key when ready." 
 KEY DROP ; 

( @70C9-70D7 XT:70CB CFA:224C DLen: 12 STAGE: Words)
: [STARFLT:70CB]
 [STARFLT:6F77] DROP - 0 D16* ; 

( @70D7-7167 XT:70D9 CFA:224C DLen: 142 STAGE: Words)
: [STARFLT:70D9]
 >R >R DUP [STARFLT:7063] [STARFLT:70CB] 2DUP [STARFLT:6156] <D!> R> 16* 0 D+ [STARFLT:6150] 
 <D!> MEMSEG <!> MEMOFF OFF BEGIN 
  MEMSEG @ MEMOFF @ [STARFLT:6156] 2@ VA>BLK OVER $0400 SWAP - 0 [STARFLT:6150] 2@ 
  [STARFLT:6156] 2@ D- DMIN DROP >R BLOCK + @DS SWAP I' IF 
   UPDATE 
  ELSE 
   2SWAP 
  THEN 
  I LCMOVE I MEMOFF <+!> R> 0 [STARFLT:6156] 2@ D+ 2DUP [STARFLT:6156] <D!> [STARFLT:6150] 
  2@ D= 
 UNTIL 
 R> DROP ; 

( @7167-7179 XT:7173 CFA:224C DLen: 6 STAGE: Dictionaries)
: MEM>DSK
 1 [STARFLT:70D9] ; 

( @7179-718B XT:7185 CFA:224C DLen: 6 STAGE: Dictionaries)
: MEM<DSK
 0 [STARFLT:70D9] ; 

( @718B-71DB XT:718D CFA:718D DLen: 78 STAGE: Words)
CODE [STARFLT:718D]
(Address @718D
   718D 8B DC                MOV        BX, SP
   718F B8 00 04             MOV        AX, 0400h
   7192 2B 47 02             SUB        AX, WORD PTR [BX+2]
   7195 33 D2                XOR        DX, DX
   7197 8B 4F 04             MOV        CX, WORD PTR [BX+4]
   719A F7 F1                DIV        CX
   719C 3B 47 06             CMP        AX, WORD PTR [BX+6]
   719F 7E 0A                JLE        71ABh                            ; .STARFLT_71AB
   71A1 8B 47 06             MOV        AX, WORD PTR [BX+6]
   71A4 F7 E1                MUL        CX
   71A6 01 47 02             ADD        WORD PTR [BX+2], AX
   71A9 EB 24                JMP        71CFh                            ; .STARFLT_71CF
 .STARFLT_71AB:
   71AB 29 47 06             SUB        WORD PTR [BX+6], AX
   71AE FF 07                INC        WORD PTR [BX]
   71B0 C7 47 02 00 00       MOV        WORD PTR [BX+2], 0
   71B5 B8 00 04             MOV        AX, 0400h
   71B8 33 D2                XOR        DX, DX
   71BA F7 F1                DIV        CX
   71BC 8B C8                MOV        CX, AX
   71BE 8B 47 06             MOV        AX, WORD PTR [BX+6]
   71C1 33 D2                XOR        DX, DX
   71C3 F7 F1                DIV        CX
   71C5 01 07                ADD        WORD PTR [BX], AX
   71C7 8B C2                MOV        AX, DX
   71C9 F7 67 04             MUL        WORD PTR [BX+4]
   71CC 89 47 02             MOV        WORD PTR [BX+2], AX
 .STARFLT_71CF:
   71CF 58                   POP        AX
   71D0 59                   POP        CX
   71D1 83 C4 04             ADD        SP, 4
   71D4 51                   PUSH       CX
   71D5 50                   PUSH       AX
   71D6 AD                   LODSW      
   71D7 8B D8                MOV        BX, AX
   71D9 FF 27                JMP        WORD PTR [BX]
) CODE-END

( @71DB-721F XT:71DD CFA:71DD DLen: 66 STAGE: Words)
CODE [STARFLT:71DD]
(Address @71DD
   71DD 58                   POP        AX
   71DE 3D 90 00             CMP        AX, 0090h
   71E1 78 0C                JS         71EFh                            ; .STARFLT_71EF
   71E3 8B 1E 5E 53          MOV        BX, WORD PTR [535Eh]             ; DIRBLK
   71E7 83 C3 03             ADD        BX, 3
   71EA 2D 90 00             SUB        AX, 0090h
   71ED EB 24                JMP        7213h                            ; .STARFLT_7213
 .STARFLT_71EF:
   71EF 3D 60 00             CMP        AX, 0060h
   71F2 78 0C                JS         7200h                            ; .STARFLT_7200
   71F4 8B 1E 5E 53          MOV        BX, WORD PTR [535Eh]             ; DIRBLK
   71F8 83 C3 02             ADD        BX, 2
   71FB 2D 60 00             SUB        AX, 0060h
   71FE EB 13                JMP        7213h                            ; .STARFLT_7213
 .STARFLT_7200:
   7200 3D 30 00             CMP        AX, 48
   7203 78 0A                JS         720Fh                            ; .STARFLT_720F
   7205 8B 1E 5E 53          MOV        BX, WORD PTR [535Eh]             ; DIRBLK
   7209 43                   INC        BX
   720A 2D 30 00             SUB        AX, 48
   720D EB 04                JMP        7213h                            ; .STARFLT_7213
 .STARFLT_720F:
   720F 8B 1E 5E 53          MOV        BX, WORD PTR [535Eh]             ; DIRBLK
 .STARFLT_7213:
 .STARFLT_7213:
 .STARFLT_7213:
   7213 B9 15 00             MOV        CX, 21
   7216 F7 E9                IMUL       CX
   7218 50                   PUSH       AX
   7219 53                   PUSH       BX
   721A AD                   LODSW      
   721B 8B D8                MOV        BX, AX
   721D FF 27                JMP        WORD PTR [BX]
) CODE-END

( @721F-7238 XT:7221 CFA:224C DLen: 23 STAGE: CodePointers)
: _dir_field
 CREATE C, DOES> ( CFA @7227 ) 
  C@ SWAP [STARFLT:71DD] BLOCK + + ; 

( Data:Byte @7238-7245 XT:7244 CFA:7227 DLen: 1 STAGE: Dictionaries)
0 _dir_field FILE-NAme

( Data:Byte @7245-7252 XT:7251 CFA:7227 DLen: 1 STAGE: Dictionaries)
12 _dir_field FILE-disk

( Data:Byte @7252-725F XT:725E CFA:7227 DLen: 1 STAGE: Dictionaries)
13 _dir_field FILE-STart

( Data:Byte @725F-726C XT:726B CFA:7227 DLen: 1 STAGE: Dictionaries)
15 _dir_field FILE-ENd

( Data:Byte @726C-7279 XT:7278 CFA:7227 DLen: 1 STAGE: Dictionaries)
17 _dir_field FILE-#Rec

( Data:Byte @7279-7286 XT:7285 CFA:7227 DLen: 1 STAGE: Dictionaries)
19 _dir_field FILE-RLen

( Data:Byte @7286-7293 XT:7292 CFA:7227 DLen: 1 STAGE: Dictionaries)
20 _dir_field FILE-SLen

( @7293-72AF XT:7295 CFA:7295 DLen: 26 STAGE: Words)
CODE [STARFLT:7295]
(Address @7295
   7295 58                   POP        AX
   7296 2D 80 3E             SUB        AX, 3E80h
   7299 B9 06 00             MOV        CX, 6
   729C 33 D2                XOR        DX, DX
 .STARFLT_729E:
   729E D1 E8                SHR        AX, 1
   72A0 D0 DA                RCR        DL, 1
   72A2 E2 FA                LOOP       729Eh                            ; .STARFLT_729E
   72A4 D1 E2                SHL        DX, 1
   72A6 D1 E2                SHL        DX, 1
   72A8 52                   PUSH       DX
   72A9 50                   PUSH       AX
   72AA AD                   LODSW      
   72AB 8B D8                MOV        BX, AX
   72AD FF 27                JMP        WORD PTR [BX]
) CODE-END

( @72AF-7315 XT:72B9 CFA:224C DLen: 92 STAGE: Dictionaries)
: FILE: IMMEDIATE
 LSCAN 12 BL FILL BL WORD COUNT LSCAN SWAP CMOVE BLK @ >R >IN @ >R -1 $00A3 0 DO 
  LSCAN 12 I FILE-NAme -TEXT NOT IF 
   DROP I LEAVE 
  THEN 
 LOOP 
 DUP 0< ?UNRAVEL R> >IN <!> R> BLK <!> ; 

( @7315-732F XT:731F CFA:224C DLen: 16 STAGE: Dictionaries)
: >FILE
 FILE-STart 2@ SWAP OVER - 1+ MEM>DSK ; 

( @732F-7349 XT:7339 CFA:224C DLen: 16 STAGE: Dictionaries)
: FILE<
 FILE-STart 2@ SWAP OVER - 1+ MEM<DSK ; 

( @7349-7355 XT:734B CFA:224C DLen: 10 STAGE: Words)
: [STARFLT:734B]
 [STARFLT:6F81] IF 
  MOUNTB 
 THEN 
 ; 

( @7355-7377 XT:7357 CFA:224C DLen: 32 STAGE: Words)
: [STARFLT:7357]
 [STARFLT:734B] [STARFLT:7295] 4 PICK [STARFLT:547F] <!> [STARFLT:718D] BLOCK + DUP 
 [STARFLT:5483] <!> SWAP [STARFLT:547B] <!> ; 

( @7377-738F XT:7379 CFA:224C DLen: 22 STAGE: Words)
: [STARFLT:7379]
 OVER [STARFLT:547B] @ = OVER [STARFLT:547F] @ = AND NOT ; 

( @738F-73BD XT:739B CFA:224C DLen: 34 STAGE: Dictionaries)
: @RECORD
 [STARFLT:7379] IF 
  OVER FILE-RLen C@ 3 PICK FILE-STart @ [STARFLT:7357] 
 ELSE 
  2DROP [STARFLT:5483] @ 
 THEN 
 ; 

( @73BD-7423 XT:73C8 CFA:224C DLen: 91 STAGE: Dictionaries)
: AFIELD
 CREATE ROT DUP C, >R SWAP C, C, I FILE-RLen C@ C, R> FILE-STart @ , DOES> ( CFA @73EA ) 
  >R FILE# @ RECORD# @ [STARFLT:7379] IF 
   I 3 + C@ I 4 + @ [STARFLT:7357] 
  ELSE 
   2DROP [STARFLT:5483] @ 
  THEN 
  R> 1+ C@ + ; 

( @7423-7434 XT:7425 CFA:7425 DLen: 15 STAGE: Words)
CODE [STARFLT:7425]
(Address @7425
   7425 5B                   POP        BX
   7426 33 C0                XOR        AX, AX
   7428 8A 47 01             MOV        AL, BYTE PTR [BX+1]
   742B 05 EF 63             ADD        AX, 63EFh
   742E 50                   PUSH       AX
   742F AD                   LODSW      
   7430 8B D8                MOV        BX, AX
   7432 FF 27                JMP        WORD PTR [BX]
) CODE-END

( @7434-7454 XT:743F CFA:224C DLen: 21 STAGE: Dictionaries)
: IFIELD
 CREATE ROT C, SWAP C, C, DOES> ( CFA @744D ) 
  [STARFLT:7425] ; 

( Data:IField @7454-7463 XT:7460 CFA:744D DLen: 3 STAGE: Dictionaries)
0 0 3 IFIELD INST-SIb ( STARFLT )

( Data:IField @7463-7472 XT:746F CFA:744D DLen: 3 STAGE: Dictionaries)
0 3 3 IFIELD INST-PRev ( STARFLT )

( Data:IField @7472-7481 XT:747E CFA:744D DLen: 3 STAGE: Dictionaries)
0 6 3 IFIELD INST-OFf ( STARFLT )

( Data:IField @7481-7490 XT:748D CFA:744D DLen: 3 STAGE: Dictionaries)
0 9 1 IFIELD INST-CLass ( STARFLT )

( Data:IField @7490-749F XT:749C CFA:744D DLen: 3 STAGE: Dictionaries)
0 10 1 IFIELD INST-Subclass ( STARFLT )

( Data:IField @749F-74AE XT:74AB CFA:744D DLen: 3 STAGE: Dictionaries)
0 11 2 IFIELD INST-QTy ( STARFLT )

( Data:IField @74AE-74BC XT:74B9 CFA:744D DLen: 3 STAGE: Dictionaries)
0 13 2 IFIELD INST-X ( STARFLT )

( Data:IField @74BC-74CA XT:74C7 CFA:744D DLen: 3 STAGE: Dictionaries)
0 15 2 IFIELD INST-Y ( STARFLT )

( @74CA-74D2 XT:74CC CFA:224C DLen: 6 STAGE: Words)
: [STARFLT:74CC]
 INST-SIb 1.5! ; 

( @74D2-74DA XT:74D4 CFA:224C DLen: 6 STAGE: Words)
: [STARFLT:74D4]
 INST-PRev 1.5! ; 

( @74DA-74E2 XT:74DC CFA:224C DLen: 6 STAGE: Words)
: [STARFLT:74DC]
 INST-OFf 1.5! ; 

( @74E2-74EA XT:74E4 CFA:224C DLen: 6 STAGE: Words)
: [STARFLT:74E4]
 INST-CLass C! ; 

( @74EA-74FC XT:74F6 CFA:224C DLen: 6 STAGE: Dictionaries)
: !INST-Subclass
 INST-Subclass C! ; 

( @74FC-7504 XT:74FE CFA:224C DLen: 6 STAGE: Words)
: [STARFLT:74FE]
 INST-SIb 1.5@ ; 

( @7504-750C XT:7506 CFA:224C DLen: 6 STAGE: Words)
: [STARFLT:7506]
 INST-PRev 1.5@ ; 

( @750C-7514 XT:750E CFA:224C DLen: 6 STAGE: Words)
: [STARFLT:750E]
 INST-OFf 1.5@ ; 

( @7514-7526 XT:7520 CFA:224C DLen: 6 STAGE: Dictionaries)
: @INST-Class
 INST-CLass C@ ; 

( @7526-7538 XT:7532 CFA:224C DLen: 6 STAGE: Dictionaries)
: @INST-Subclass
 INST-Subclass C@ ; 

( @7538-7553 XT:753F CFA:753F DLen: 20 STAGE: Dictionaries)
CODE >C
(Address @753F
   753F 8B 1E B0 54          MOV        BX, WORD PTR [54B0h]             ; CXSP
   7543 58                   POP        AX
   7544 88 47 02             MOV        BYTE PTR [BX+2], AL
   7547 8F 07                POP        WORD PTR [BX]
   7549 83 2E B0 54 03       SUB        WORD PTR [54B0h], 3
   754E AD                   LODSW      
   754F 8B D8                MOV        BX, AX
   7551 FF 27                JMP        WORD PTR [BX]
) CODE-END

( @7553-7570 XT:755A CFA:755A DLen: 22 STAGE: Dictionaries)
CODE C>
(Address @755A
   755A 83 06 B0 54 03       ADD        WORD PTR [54B0h], 3
   755F 8B 1E B0 54          MOV        BX, WORD PTR [54B0h]             ; CXSP
   7563 FF 37                PUSH       WORD PTR [BX]
   7565 33 C0                XOR        AX, AX
   7567 8A 47 02             MOV        AL, BYTE PTR [BX+2]
   756A 50                   PUSH       AX
   756B AD                   LODSW      
   756C 8B D8                MOV        BX, AX
   756E FF 27                JMP        WORD PTR [BX]
) CODE-END

( @7570-7589 XT:7577 CFA:7577 DLen: 18 STAGE: Dictionaries)
CODE CI
(Address @7577
   7577 8B 1E B0 54          MOV        BX, WORD PTR [54B0h]             ; CXSP
   757B FF 77 03             PUSH       WORD PTR [BX+3]
   757E 33 C0                XOR        AX, AX
   7580 8A 47 05             MOV        AL, BYTE PTR [BX+5]
   7583 50                   PUSH       AX
   7584 AD                   LODSW      
   7585 8B D8                MOV        BX, AX
   7587 FF 27                JMP        WORD PTR [BX]
) CODE-END

( @7589-7599 XT:7593 CFA:224C DLen: 6 STAGE: Dictionaries)
: CDROP
 C> 2DROP ; 

( @7599-75AB XT:75A1 CFA:224C DLen: 10 STAGE: Dictionaries)
: CI'
 C> CI 2SWAP >C ; 

( @75AB-75BC XT:75B2 CFA:224C DLen: 10 STAGE: Dictionaries)
: CJ
 C> CI' 2SWAP >C ; 

( @75BC-75CC XT:75C6 CFA:224C DLen: 6 STAGE: Dictionaries)
: COVER
 CI' >C ; 

( @75CC-75E9 XT:75D7 CFA:75D7 DLen: 18 STAGE: Dictionaries)
CODE CDEPTH
(Address @75D7
   75D7 B8 98 63             MOV        AX, 6398h
   75DA 2B 06 B0 54          SUB        AX, WORD PTR [54B0h]             ; CXSP
   75DE B9 03 00             MOV        CX, 3
   75E1 F6 F1                DIV        CL
   75E3 50                   PUSH       AX
   75E4 AD                   LODSW      
   75E5 8B D8                MOV        BX, AX
   75E7 FF 27                JMP        WORD PTR [BX]
) CODE-END

( @75E9-75F9 XT:75F3 CFA:224C DLen: 6 STAGE: Dictionaries)
: ?NULL
 CI D0= ; 

( @75F9-760A XT:7604 CFA:224C DLen: 6 STAGE: Dictionaries)
: ?-NULL
 ?NULL NOT ; 

( @760A-761D XT:7615 CFA:224C DLen: 8 STAGE: Dictionaries)
: ?CHILD
 [STARFLT:750E] D0= NOT ; 

( @761D-7627 XT:761F CFA:224C DLen: 8 STAGE: Words)
: [STARFLT:761F]
 CI [STARFLT:74FE] D= ; 

( @7627-7638 XT:7632 CFA:224C DLen: 6 STAGE: Dictionaries)
: !IADDR
 [STARFLT:615C] <1.5!> ; 

( @7638-7644 XT:763A CFA:763A DLen: 10 STAGE: Words)
CODE [STARFLT:763A]
(Address @763A
   763A 8B 06 8C 55          MOV        AX, WORD PTR [558Ch]             ; [STARFLT:558C]
   763E 50                   PUSH       AX
   763F AD                   LODSW      
   7640 8B D8                MOV        BX, AX
   7642 FF 27                JMP        WORD PTR [BX]
) CODE-END

( @7644-765A XT:7646 CFA:224C DLen: 20 STAGE: Words)
: [STARFLT:7646]
 @DS IBFR [STARFLT:54F6] @ [STARFLT:5584] @ [STARFLT:5590] @ LCMOVE ; 

( @765A-7670 XT:765C CFA:224C DLen: 20 STAGE: Words)
: [STARFLT:765C]
 [STARFLT:54F6] @ [STARFLT:5584] @ @DS IBFR [STARFLT:5590] @ LCMOVE ; 

( @7670-7678 XT:7672 CFA:224C DLen: 6 STAGE: Words)
: [STARFLT:7672]
 [STARFLT:734B] VA>BUF ; 

( @7678-76B6 XT:7684 CFA:7684 DLen: 50 STAGE: Dictionaries)
CODE PRIORIT___
(Address @7684
   7684 58                   POP        AX
   7685 0B C0                OR         AX, AX
   7687 74 27                JZ         76B0h                            ; .STARFLT_76B0
   7689 8B D8                MOV        BX, AX
   768B 83 EB 02             SUB        BX, 2
   768E 06                   PUSH       ES
   768F FF 36 EA 54          PUSH       WORD PTR [54EAh]                 ; [STARFLT:54EA]
   7693 07                   POP        ES
   7694 E8 9F B8             CALL       2F36h                            ; {LXCHG}
   7697 FF 36 F2 54          PUSH       WORD PTR [54F2h]                 ; [STARFLT:54F2]
   769B 07                   POP        ES
   769C E8 97 B8             CALL       2F36h                            ; {LXCHG}
   769F D1 EB                SHR        BX, 1
   76A1 D1 E8                SHR        AX, 1
   76A3 FF 36 EE 54          PUSH       WORD PTR [54EEh]                 ; [STARFLT:54EE]
   76A7 07                   POP        ES
   76A8 E8 1F D3             CALL       49CAh                            ; [STARFLT:49CA]
   76AB 07                   POP        ES
   76AC D1 E3                SHL        BX, 1
   76AE 8B C3                MOV        AX, BX
 .STARFLT_76B0:
   76B0 50                   PUSH       AX
   76B1 AD                   LODSW      
   76B2 8B D8                MOV        BX, AX
   76B4 FF 27                JMP        WORD PTR [BX]
) CODE-END

( @76B6-76EA XT:76B8 CFA:224C DLen: 50 STAGE: Words)
: [STARFLT:76B8]
 DUP 9 + C@ DUP 48 = IF 
  DROP 11 + C@ 1+ 
 ELSE 
  SWAP DROP FILE-SLen C@ 
 THEN 
 IHEADLE_ + ; 

( @76EA-771E XT:76EC CFA:224C DLen: 50 STAGE: Words)
: [STARFLT:76EC]
 [STARFLT:558C] <!> [STARFLT:54F6] @ [STARFLT:54F2] @ [STARFLT:763A] L@ DUP [STARFLT:5584] 
 <!> L@ [STARFLT:5590] <!> [STARFLT:54EA] @ [STARFLT:763A] L@ [STARFLT:54EE] @ [STARFLT:763A] 
 2/ LC@ !IADDR ; 

( @771E-7786 XT:7720 CFA:224C DLen: 102 STAGE: Words)
: [STARFLT:7720]
 [STARFLT:5578] @ IF 
  SWAP >R [STARFLT:54EA] @ 0 [STARFLT:5578] @ I LWSCAN IF 
   DUP 2/ [STARFLT:54EE] @ SWAP LC@ ROT = NOT IF 
    [STARFLT:54EA] @ SWAP 2+ [STARFLT:5578] @ OVER 2/ - I LWSCAN 
   ELSE 
    1 
   THEN 
  ELSE 
   DROP 0 
  THEN 
  R> DROP 
 ELSE 
  2DROP 0 
 THEN 
 ; 

( @7786-778E XT:7788 CFA:224C DLen: 6 STAGE: Words)
: [STARFLT:7788]
 2+ LC@ ; 

( @778E-77A2 XT:7790 CFA:224C DLen: 18 STAGE: Words)
: [STARFLT:7790]
 >R [STARFLT:54F2] @ 0 [STARFLT:5578] @ R> LWSCAN ; 

( @77A2-77BE XT:77A4 CFA:224C DLen: 26 STAGE: Words)
: [STARFLT:77A4]
 IBFR 2+ C@ IF 
  [STARFLT:7646] 0 IBFR 2+ <C!> NULL !IADDR 
 THEN 
 ; 

( @77BE-77FE XT:77C0 CFA:224C DLen: 62 STAGE: Words)
: [STARFLT:77C0]
 [STARFLT:54F6] @ [STARFLT:5584] @ [STARFLT:7788] IF 
  [STARFLT:54F6] @ [STARFLT:5584] @ 3 + @DS [STARFLT:615C] 1.5@ [STARFLT:7672] ?UPDATE 
  [STARFLT:5590] @ 3 - LCMOVE 0 [STARFLT:54F6] @ [STARFLT:5584] @ 2+ LC! 
 THEN 
 ; 

( @77FE-787A XT:7800 CFA:224C DLen: 122 STAGE: Words)
: [STARFLT:7800]
 [STARFLT:5578] @ 1- 2* [STARFLT:76EC] [STARFLT:77C0] -1 [STARFLT:5578] <+!> [STARFLT:5590] 
 @ NEGATE [STARFLT:5580] <+!> 0 [STARFLT:54EA] @ [STARFLT:763A] L! $270F [STARFLT:54F2] 
 @ [STARFLT:763A] L! [STARFLT:5584] @ [STARFLT:5588] <!> BEGIN 
  [STARFLT:5584] @ [STARFLT:5590] @ + [STARFLT:7790] WHILE 
  [STARFLT:76EC] [STARFLT:54F6] @ [STARFLT:5584] @ OVER [STARFLT:5588] @ [STARFLT:5590] 
  @ LCMOVE [STARFLT:5588] @ [STARFLT:54F2] @ [STARFLT:763A] L! [STARFLT:5590] @ [STARFLT:5588] 
  <+!> 
 REPEAT 
 ; 

( @787A-7898 XT:787C CFA:224C DLen: 28 STAGE: Words)
: [STARFLT:787C]
 BEGIN 
  [STARFLT:557C] @ [STARFLT:5580] @ - $0111 < WHILE 
  [STARFLT:7800] 
 REPEAT 
 ; 

( Data:AField @7898-78A7 XT:78A1 CFA:73EA DLen: 6 STAGE: Dictionaries)
58 0 12 AFIELD 1BTN ( BUTTONS )

( @78A7-78DB XT:78B3 CFA:224C DLen: 40 STAGE: Dictionaries)
: AFIELD:
 HEAD: $73EA , ROT DUP C, >R SWAP C, C, I FILE-RLen C@ C, R> FILE-STart @ , ; 

( @78DB-78FB XT:78E7 CFA:224C DLen: 20 STAGE: Dictionaries)
: IFIELD:
 HEAD: $744D , ROT C, SWAP C, C, ; 

( Data:AField @78FB-790A XT:7904 CFA:73EA DLen: 6 STAGE: Dictionaries)
58 72 1 AFIELD #BTN ( BUTTONS )

( @790A-7980 XT:790C CFA:224C DLen: 116 STAGE: Words)
: [STARFLT:790C]
 [STARFLT:787C] 2DUP !IADDR [STARFLT:7672] DUP [STARFLT:76B8] DUP 3 + DUP IBFR ! 
 [STARFLT:5590] <!> IBFR 3 + SWAP CMOVE 0 IBFR 2+ <C!> [STARFLT:5578] @ 2* [STARFLT:558C] 
 <!> 1 [STARFLT:5578] <+!> [STARFLT:615C] 1.5@ [STARFLT:54EE] @ [STARFLT:763A] 2/ 
 LC! [STARFLT:54EA] @ [STARFLT:763A] L! [STARFLT:5580] @ [STARFLT:5584] <!> [STARFLT:5590] 
 @ [STARFLT:5580] <+!> [STARFLT:5584] @ [STARFLT:54F2] @ [STARFLT:763A] L! [STARFLT:7646] 
 ; 

( @7980-79C0 XT:798C CFA:224C DLen: 52 STAGE: Dictionaries)
: SET-CUR____
 CDEPTH 0> IF 
  [STARFLT:77A4] ?-NULL IF 
   CI [STARFLT:7720] IF 
    PRIORIT___ [STARFLT:76EC] [STARFLT:765C] 
   ELSE 
    CI [STARFLT:790C] 
   THEN 
   @INST-Class FILE# <!> @INST-Subclass RECORD# <!> 
  THEN 
 THEN 
 ; 

( @79C0-79EB XT:79CB CFA:224C DLen: 32 STAGE: Dictionaries)
: ICLOSE
 [STARFLT:77A4] CDROP COVER ?-NULL IF 
  SET-CUR____ [STARFLT:750E] 
 ELSE 
  NULL 
 THEN 
 [STARFLT:6162] <1.5!> CDROP SET-CUR____ ; 

( @79EB-79FA XT:79F4 CFA:224C DLen: 6 STAGE: Dictionaries)
: >C+S
 >C SET-CUR____ ; 

( @79FA-7A0A XT:7A04 CFA:224C DLen: 6 STAGE: Dictionaries)
: @>C+S
 1.5@ >C+S ; 

( @7A0A-7A20 XT:7A14 CFA:224C DLen: 12 STAGE: Dictionaries)
: IOPEN
 [STARFLT:750E] 2DUP [STARFLT:6162] <1.5!> >C+S ; 

( @7A20-7A3D XT:7A29 CFA:224C DLen: 20 STAGE: Dictionaries)
: CCLR
 [STARFLT:77A4] [STARFLT:4FFF] CXSP <!> [STARFLT:6329] 120 0 FILL ; 

( @7A3D-7A45 XT:7A3F CFA:224C DLen: 6 STAGE: Words)
: [STARFLT:7A3F]
 [STARFLT:6162] 1.5@ ; 

( @7A45-7A57 XT:7A4F CFA:224C DLen: 8 STAGE: Dictionaries)
: ?LAST
 [STARFLT:74FE] [STARFLT:7A3F] D= ; 

( @7A57-7A6A XT:7A62 CFA:224C DLen: 8 STAGE: Dictionaries)
: ?FIRST
 CI [STARFLT:7A3F] D= ; 

( @7A6A-7A7C XT:7A72 CFA:224C DLen: 10 STAGE: Dictionaries)
: >C+
 SET-CUR____ IOPEN CDROP >C ; 

( @7A7C-7A94 XT:7A86 CFA:224C DLen: 14 STAGE: Dictionaries)
: INEXT
 ?-NULL IF 
  [STARFLT:74FE] CDROP >C+S 
 THEN 
 ; 

( @7A94-7AAC XT:7A9E CFA:224C DLen: 14 STAGE: Dictionaries)
: IPREV
 ?-NULL IF 
  [STARFLT:7506] CDROP >C+S 
 THEN 
 ; 

( @7AAC-7ABF XT:7AB7 CFA:224C DLen: 8 STAGE: Dictionaries)
: IFIRST
 CDROP [STARFLT:7A3F] >C+S ; 

( @7ABF-7ACF XT:7AC9 CFA:224C DLen: 6 STAGE: Dictionaries)
: ILAST
 IFIRST IPREV ; 

( @7ACF-7AE0 XT:7AD8 CFA:224C DLen: 8 STAGE: Dictionaries)
: VCLR
 [STARFLT:5003] [STARFLT:54B4] <!> ; 

( @7AE0-7AF7 XT:7AE7 CFA:7AE7 DLen: 16 STAGE: Dictionaries)
CODE >V
(Address @7AE7
   7AE7 8B 1E B4 54          MOV        BX, WORD PTR [54B4h]             ; [STARFLT:54B4]
   7AEB 8F 07                POP        WORD PTR [BX]
   7AED 83 2E B4 54 02       SUB        WORD PTR [54B4h], 2
   7AF2 AD                   LODSW      
   7AF3 8B D8                MOV        BX, AX
   7AF5 FF 27                JMP        WORD PTR [BX]
) CODE-END

( @7AF7-7B0E XT:7AFE CFA:7AFE DLen: 16 STAGE: Dictionaries)
CODE V>
(Address @7AFE
   7AFE 83 06 B4 54 02       ADD        WORD PTR [54B4h], 2
   7B03 8B 1E B4 54          MOV        BX, WORD PTR [54B4h]             ; [STARFLT:54B4]
   7B07 FF 37                PUSH       WORD PTR [BX]
   7B09 AD                   LODSW      
   7B0A 8B D8                MOV        BX, AX
   7B0C FF 27                JMP        WORD PTR [BX]
) CODE-END

( @7B0E-7B21 XT:7B15 CFA:7B15 DLen: 12 STAGE: Dictionaries)
CODE VI
(Address @7B15
   7B15 8B 1E B4 54          MOV        BX, WORD PTR [54B4h]             ; [STARFLT:54B4]
   7B19 FF 77 02             PUSH       WORD PTR [BX+2]
   7B1C AD                   LODSW      
   7B1D 8B D8                MOV        BX, AX
   7B1F FF 27                JMP        WORD PTR [BX]
) CODE-END

( @7B21-7B43 XT:7B23 CFA:224C DLen: 32 STAGE: Memory)
: [STARFLT:7B23]
 [STARFLT:77A4] [STARFLT:5578] @ ?DUP IF 
  0 DO 
   I 2* [STARFLT:76EC] [STARFLT:77C0] 
  LOOP 
  SET-CUR____ 
 THEN 
 ; 

( @7B43-7B55 XT:7B4F CFA:224C DLen: 6 STAGE: Dictionaries)
: SAVE-BU_____
 SAVE-BUFFERS INIT ; 

( @7B55-7B65 XT:7B5F CFA:224C DLen: 6 STAGE: Dictionaries)
: FLUSH
 SAVE-BU_____ EMPTY-BUFFERS ; 

( @7B65-7BAD XT:7B71 CFA:224C DLen: 60 STAGE: Dictionaries)
: IINSERT
 >C+S ?CHILD IF 
  [STARFLT:750E] 2SWAP [STARFLT:74DC] IOPEN [STARFLT:74CC] CI INEXT [STARFLT:7506] 
  2SWAP [STARFLT:74D4] IPREV [STARFLT:74D4] CI IPREV [STARFLT:74CC] 
 ELSE 
  [STARFLT:74DC] IOPEN CI [STARFLT:74CC] CI [STARFLT:74D4] 
 THEN 
 CDROP ICLOSE ; 

( @7BAD-7BD3 XT:7BB9 CFA:224C DLen: 26 STAGE: Dictionaries)
: <INSERT
 >C+S [STARFLT:7506] 2SWAP [STARFLT:74D4] CI IPREV [STARFLT:74CC] [STARFLT:74D4] 
 CI IPREV [STARFLT:74CC] ICLOSE ; 

( @7BD3-7BE9 XT:7BDF CFA:224C DLen: 10 STAGE: Dictionaries)
: >INSERT
 >C+S [STARFLT:74FE] ICLOSE <INSERT ; 

( @7BE9-7C35 XT:7BF5 CFA:224C DLen: 64 STAGE: Dictionaries)
: IEXTRAC_
 CI [STARFLT:761F] IF 
  ICLOSE NULL [STARFLT:74DC] IOPEN 
 ELSE 
  ?FIRST IF 
   [STARFLT:7506] [STARFLT:74FE] ICLOSE [STARFLT:74DC] IOPEN [STARFLT:74D4] CI IPREV 
   [STARFLT:74CC] INEXT 
  ELSE 
   [STARFLT:74FE] IPREV [STARFLT:74CC] CI INEXT [STARFLT:74D4] 
  THEN 
 THEN 
 ; 

( @7C35-7C3D XT:7C37 CFA:224C DLen: 6 STAGE: Words)
: [STARFLT:7C37]
 VANEWSP___ VA>BUF ; 

( @7C3D-7C4F XT:7C49 CFA:224C DLen: 6 STAGE: Dictionaries)
: @NEWSPA__
 [STARFLT:7C37] 1.5@ ; 

( @7C4F-7C61 XT:7C5B CFA:224C DLen: 6 STAGE: Dictionaries)
: !NEWSPA__
 [STARFLT:7C37] 1.5! ; 

( @7C61-7C6D XT:7C63 CFA:224C DLen: 10 STAGE: Words)
: [STARFLT:7C63]
 @NEWSPA__ ROT M+ !NEWSPA__ ; 

( @7C6D-7C87 XT:7C79 CFA:224C DLen: 14 STAGE: Dictionaries)
: MAXSPAC_
 VANEWSP___ 3. D+ VA>BUF ; 

( @7C87-7C99 XT:7C89 CFA:224C DLen: 16 STAGE: Words)
: [STARFLT:7C89]
 @NEWSPA__ VA>BLK DROP $0400 SWAP - ; 

( Data:Case @7C99-7CB2 XT:7CA2 CFA:4A4F DLen: 16 STAGE: Dictionaries)
CASE FLD@
 1 IS C@
 2 IS @
 3 IS 1.5@
 OTHERS @

( Data:Case @7CB2-7CCB XT:7CBB CFA:4A4F DLen: 16 STAGE: Dictionaries)
CASE FLD!
 1 IS C!
 2 IS !
 3 IS 1.5!
 OTHERS !

( @7CCB-7CE5 XT:7CD5 CFA:224C DLen: 16 STAGE: Dictionaries)
: IFLD@
 DUP 2+ C@ SWAP EXECUTE SWAP FLD@ ; 

( @7CE5-7CFF XT:7CEF CFA:224C DLen: 16 STAGE: Dictionaries)
: IFLD!
 DUP 2+ C@ SWAP EXECUTE SWAP FLD! ; 

( @7CFF-7D0B XT:7D01 CFA:224C DLen: 10 STAGE: Words)
: [STARFLT:7D01]
 OVER IFLD@ OVER = ; 

( @7D0B-7D37 XT:7D17 CFA:224C DLen: 32 STAGE: Dictionaries)
: ?CLASS/_______
 OVER DUP 0= SWAP @INST-Class = OR OVER DUP 0= SWAP @INST-Subclass = OR AND ; 

( @7D37-7D3F XT:7D39 CFA:224C DLen: 6 STAGE: Words)
: [STARFLT:7D39]
 [STARFLT:5532] @EXECUTE ; 

( @7D3F-7D47 XT:7D41 CFA:224C DLen: 6 STAGE: Words)
: [STARFLT:7D41]
 '?EXIT @EXECUTE ; 

( @7D47-7D4F XT:7D49 CFA:224C DLen: 6 STAGE: Words)
: [STARFLT:7D49]
 'TRAVER_ @EXECUTE ; 

( @7D4F-7D5D XT:7D57 CFA:224C DLen: 6 STAGE: Dictionaries)
: MAP
 'MAP @EXECUTE ; 

( @7D5D-7D69 XT:7D5F CFA:224C DLen: 10 STAGE: Words)
: [STARFLT:7D5F]
 DUP @ >V <!> ; 

( @7D69-7D73 XT:7D6B CFA:224C DLen: 8 STAGE: Words)
: [STARFLT:7D6B]
 V> SWAP <!> ; 

( @7D73-7DA6 XT:7D7E CFA:224C DLen: 40 STAGE: Dictionaries)
: SELECT
 0 >V BEGIN 
  [STARFLT:7D39] [STARFLT:7D41] OR NOT WHILE 
  [STARFLT:7D49] V> DROP 1 >V 
 REPEAT 
 [STARFLT:7D41] NOT V> DROP ; 

( @7DA6-7DBE XT:7DB2 CFA:224C DLen: 12 STAGE: Dictionaries)
: ?>FIRST
 VI ?FIRST AND ?NULL OR ; 

( @7DBE-7DF4 XT:7DCA CFA:224C DLen: 42 STAGE: Dictionaries)
: SELECT-_____
 [STARFLT:5532] [STARFLT:7D5F] ' ?>FIRST ( $7DB2 ) '?EXIT [STARFLT:7D5F] ' INEXT ( $7A86 ) 
 'TRAVER_ [STARFLT:7D5F] SELECT 'TRAVER_ [STARFLT:7D6B] '?EXIT [STARFLT:7D6B] [STARFLT:5532] 
 [STARFLT:7D6B] >R 2DROP R> ; 

( @7DF4-7E00 XT:7DF6 CFA:224C DLen: 10 STAGE: Memory)
: [STARFLT:7DF6]
 SELECT-_____ >R DROP R> ; 

( @7E00-7E0A XT:7E02 CFA:224C DLen: 8 STAGE: Words)
: [STARFLT:7E02]
 ' [STARFLT:7D01] ( $7D01 ) SELECT-_____ ; 

( @7E0A-7E1C XT:7E14 CFA:224C DLen: 8 STAGE: Dictionaries)
: IFIND
 ' ?CLASS/_______ ( $7D17 ) SELECT-_____ ; 

( @7E1C-7E36 XT:7E1E CFA:224C DLen: 24 STAGE: Words)
: [STARFLT:7E1E]
 ?CHILD IF 
  IOPEN BEGIN 
   [STARFLT:7E1E] MAP [STARFLT:7D49] [STARFLT:7D41] 
  UNTIL 
  ICLOSE 
 THEN 
 ; 

( @7E36-7E50 XT:7E38 CFA:224C DLen: 24 STAGE: Words)
: [STARFLT:7E38]
 MAP ?CHILD IF 
  IOPEN BEGIN 
   [STARFLT:7E38] [STARFLT:7D49] [STARFLT:7D41] 
  UNTIL 
  ICLOSE 
 THEN 
 ; 

( @7E50-7E6E XT:7E5C CFA:224C DLen: 18 STAGE: Dictionaries)
: MAKE1ST
 ?FIRST NOT IF 
  IEXTRAC_ CI' IINSERT IFIRST 
 THEN 
 ; 

( @7E6E-7EA2 XT:7E70 CFA:224C DLen: 50 STAGE: Words)
: [STARFLT:7E70]
 INACTIV_ >C+S ?CHILD IF 
  IOPEN ' INST-Subclass ( $749C ) SWAP [STARFLT:7E02] IF 
   MAKE1ST CI 
  ELSE 
   CI' 
  THEN 
  ICLOSE 
 ELSE 
  DROP CI 
 THEN 
 IINSERT ICLOSE ; 

( @7EA2-7EC8 XT:7EAE CFA:224C DLen: 26 STAGE: Dictionaries)
: >INACTI__
 2DUP >C+S IBFR @ 3 - IHEADLE_ - DUP !INST-Subclass CDROP [STARFLT:7E70] ; 

( @7EC8-7ED0 XT:7ECA CFA:224C DLen: 6 STAGE: Words)
: [STARFLT:7ECA]
 IEXTRAC_ >INACTI__ ; 

( @7ED0-7F06 XT:7EDC CFA:224C DLen: 42 STAGE: Dictionaries)
: IDELETE
 ' [STARFLT:7ECA] ( $7ECA ) 'MAP [STARFLT:7D5F] ' ?NULL ( $75F3 ) '?EXIT [STARFLT:7D5F] 
 ' NOP ( $3A48 ) 'TRAVER_ [STARFLT:7D5F] [STARFLT:7E1E] MAP 'TRAVER_ [STARFLT:7D6B] 
 '?EXIT [STARFLT:7D6B] 'MAP [STARFLT:7D6B] ; 

( @7F06-7F42 XT:7F08 CFA:224C DLen: 58 STAGE: Words)
: [STARFLT:7F08]
 'MAP [STARFLT:7D5F] 'TRAVER_ [STARFLT:7D5F] '?EXIT [STARFLT:7D5F] [STARFLT:5532] 
 [STARFLT:7D5F] IFIRST BEGIN 
  SELECT IF 
   MAP [STARFLT:7D49] ?FIRST 
  ELSE 
   1 
  THEN 
 UNTIL 
 [STARFLT:5532] [STARFLT:7D6B] '?EXIT [STARFLT:7D6B] 'TRAVER_ [STARFLT:7D6B] 'MAP 
 [STARFLT:7D6B] ; 

( @7F42-7F5E XT:7F4A CFA:224C DLen: 20 STAGE: Dictionaries)
: ALL
 >R ' ?-NULL ( $7604 ) ' ?>FIRST ( $7DB2 ) ' INEXT ( $7A86 ) R> [STARFLT:7F08] ; 

( @7F5E-7F77 XT:7F67 CFA:224C DLen: 16 STAGE: Dictionaries)
: EACH
 >R ' ?>FIRST ( $7DB2 ) ' INEXT ( $7A86 ) R> [STARFLT:7F08] ; 

( @7F77-7F7F XT:7F79 CFA:224C DLen: 6 STAGE: Words)
: [STARFLT:7F79]
 'THROW-____ @EXECUTE ; 

( @7F7F-7F99 XT:7F8B CFA:224C DLen: 14 STAGE: Dictionaries)
: NULLPOI_____
 NULL [STARFLT:74CC] NULL [STARFLT:74D4] NULL [STARFLT:74DC] ; 

( @7F99-7FAF XT:7F9B CFA:224C DLen: 20 STAGE: Words)
: [STARFLT:7F9B]
 ?CHILD IF 
  IOPEN IEXTRAC_ ICLOSE 
 ELSE 
  IEXTRAC_ 
 THEN 
 ; 

( @7FAF-7FE5 XT:7FB1 CFA:224C DLen: 52 STAGE: Words)
: [STARFLT:7FB1]
 INACTIV_ >C+S ?CHILD IF 
  IOPEN ' INST-Subclass ( $749C ) OVER [STARFLT:7E02] IF 
   [STARFLT:5E58] ON MAKE1ST [STARFLT:7F9B] 
  ELSE 
   NULL 
  THEN 
  ICLOSE 
 ELSE 
  NULL 
 THEN 
 ICLOSE >C ; 

( @7FE5-8027 XT:7FE7 CFA:224C DLen: 64 STAGE: Words)
: [STARFLT:7FE7]
 [STARFLT:7C89] IHEADLE_ > IF 
  [STARFLT:7C89] IHEADLE_ - 1- @NEWSPA__ VA>BUF >R I 11 + C! 48 R> 9 + C! @NEWSPA__ 
  >C+S NULLPOI_____ CI ICLOSE >INACTI__ 
 THEN 
 [STARFLT:7C89] [STARFLT:7C63] ; 

( @8027-8047 XT:8033 CFA:224C DLen: 20 STAGE: Dictionaries)
: ?>MAXSP___
 DUP >R MAXSPAC_ 1.5@ @NEWSPA__ R> 0 D+ D< ; 

( @8047-8081 XT:8049 CFA:224C DLen: 56 STAGE: Words)
: [STARFLT:8049]
 ?>MAXSP___ IF 
  NULL >C 
 ELSE 
  [STARFLT:7C89] OVER IHEADLE_ + < IF 
   [STARFLT:7FE7] 
  THEN 
  @NEWSPA__ >C DUP IHEADLE_ + [STARFLT:7C63] ?>MAXSP___ IF 
   CDROP NULL >C 
  THEN 
 THEN 
 ; 

( @8081-80C5 XT:8083 CFA:224C DLen: 66 STAGE: Words)
: [STARFLT:8083]
 BEGIN 
  [STARFLT:5E58] OFF [STARFLT:5D6B] @ IF 
   [STARFLT:7FB1] 
  ELSE 
   [STARFLT:8049] 
  THEN 
  ?NULL IF 
   CDROP [STARFLT:5D6B] @ IF 
    [STARFLT:8049] 
   ELSE 
    [STARFLT:7FB1] 
   THEN 
   ?NULL IF 
    [STARFLT:7F79] 
   THEN 
  THEN 
  ?NULL WHILE 
  CDROP 
 REPEAT 
 ; 

( Data:Case @80C5-8109 XT:80D1 CFA:4A4F DLen: 56 STAGE: Dictionaries)
CASE SET?REU__
 11 IS <ON>
 41 IS <ON>
 14 IS <ON>
 26 IS <ON>
 68 IS <ON>
 28 IS <ON>
 56 IS <ON>
 36 IS <ON>
 40 IS <ON>
 43 IS <ON>
 24 IS <ON>
 25 IS <ON>
 67 IS <ON>
 OTHERS <OFF>

( @8109-814F XT:8115 CFA:224C DLen: 58 STAGE: Dictionaries)
: VICREAT_
 [STARFLT:5D6B] OFF DUP $00FE > ?UNRAVEL 1+ [STARFLT:8083] 1- CI VA>BUF >R I 11 + 
 C! 48 R> 9 + C! SET-CUR____ NULLPOI_____ CI ICLOSE ; 

( @814F-81A3 XT:815B CFA:224C DLen: 72 STAGE: Dictionaries)
: ICREATE
 [STARFLT:5D6B] 3 PICK SET?REU__ OVER FILE-SLen C@ [STARFLT:8083] DROP [STARFLT:5E58] 
 @ NOT IF 
  CI VA>BUF DUP >R 10 + C! R> 9 + C! SET-CUR____ 
 ELSE 
  SET-CUR____ !INST-Subclass [STARFLT:74E4] 
 THEN 
 NULLPOI_____ CI ICLOSE ; 

( @81A3-81D5 XT:81AF CFA:224C DLen: 38 STAGE: Dictionaries)
: *CREATE
 0 DO 
  2DUP ICREATE ?NULL IF 
   CI' IINSERT IFIRST 
  ELSE 
   [STARFLT:7A3F] <INSERT 
  THEN 
 LOOP 
 ILAST 2DROP ; 

( @81D5-81E1 XT:81D7 CFA:224C DLen: 10 STAGE: Words)
: [STARFLT:81D7]
 2 SPACES 5 D.R ; 

( @81E1-820E XT:81E3 CFA:224C DLen: 43 STAGE: Words)
: [STARFLT:81E3]
 >C+S ?-NULL IF 
  @INST-Class FILE-NAme 12 TYPE CI [STARFLT:81D7] 
 ELSE 
  0. [STARFLT:81D7] ." <NULL>" 
 THEN 
 ICLOSE ; 

( @820E-8248 XT:8215 CFA:224C DLen: 51 STAGE: Dictionaries)
: .C
 CR CDEPTH IF 
  CXSP @ 3 + [STARFLT:4FFF] DO 
   I 1.5@ [STARFLT:81D7] -3 
  +LOOP 
 ELSE 
  ." MT STK" 
 THEN 
 CR ; 

( @8248-8260 XT:824A CFA:224C DLen: 22 STAGE: Words)
: [STARFLT:824A]
 CR CI CDEPTH 2* SPACES [STARFLT:81E3] ?TERMINAL IF 
  QUIT 
 THEN 
 ; 

( @8260-8292 XT:826A CFA:224C DLen: 40 STAGE: Dictionaries)
: .TREE
 ' [STARFLT:824A] ( $824A ) 'MAP [STARFLT:7D5F] ' ?FIRST ( $7A62 ) '?EXIT [STARFLT:7D5F] 
 ' INEXT ( $7A86 ) 'TRAVER_ [STARFLT:7D5F] [STARFLT:7E38] 'TRAVER_ [STARFLT:7D6B] 
 '?EXIT [STARFLT:7D6B] 'MAP [STARFLT:7D6B] ; 

( @8292-829A XT:8294 CFA:224C DLen: 6 STAGE: Words)
: _ova@
 OVA @ ; 

( @829A-82E0 XT:82A6 CFA:224C DLen: 58 STAGE: Dictionaries)
: OV-CANCle
 OV# @ IF 
  _ova@ DUP 4 +@ = IF 
   _ova@ 8 +@ 4 + 8 0 FILL 
  THEN 
 THEN 
 OV# OFF ' FORTH ( $081A ) DUP CURRENT <!> CONTEXT <!> ; 

( @82E0-82EC XT:82E2 CFA:224C DLen: 10 STAGE: Words)
: _overlay-buffer
 DUP [STARFLT:7063] [STARFLT:70CB] VA>BUF ; 

( @82EC-8307 XT:82EE CFA:224C DLen: 25 STAGE: Words)
: _?overlay-size
 HERE U< IF 
  ." OV TOO BIG" UNRAVEL 
 THEN 
 ; 

( @8307-8330 XT:8309 CFA:224C DLen: 39 STAGE: Words)
: _?overlay-check
 DUP _overlay-buffer 2DUP @ - IF 
  ." INV OV BLK" UNRAVEL 
 THEN 
 4 +@ _?overlay-size DROP ; 

( @8330-839E XT:8332 CFA:224C DLen: 108 STAGE: Words)
: _load-overlay
 ?DUP IF 
  DUP OV# @ = IF 
   DROP 
  ELSE 
   DUP _?overlay-check OV-CANCle _overlay-buffer >R I 4 +@ DUP OVA <!> ADDR>SEG I 
   @ DUP OV# <!> R> 2+ @ MEM<DSK _ova@ 10 + _ova@ 8 +@ 4 + 8 CMOVE _ova@ 8 +@ 2- 
   DUP CONTEXT <!> CURRENT <!> 
  THEN 
 THEN 
 ; 

( @839E-83DE XT:83AA CFA:224C DLen: 52 STAGE: Dictionaries)
: SAVE-OVerlay
 OV# @ IF 
  _ova@ >R I 8 +@ 4 + I 10 + 8 CMOVE I ADDR>SEG I @ R> 2+ @ MEM>DSK 
 THEN 
 ; 

( @83DE-8401 XT:83EA CFA:224C DLen: 23 STAGE: Dictionaries)
: OVERLAY
 CREATE FILE-STart @ DUP , _?overlay-check DOES> ( CFA @83F8 ) 
  @ _load-overlay ; 

( @8401-841B XT:8403 CFA:224C DLen: 24 STAGE: Words)
: _swap-overlay-dp
 DP @ _ova@ 6 +@ DP <!> _ova@ 6 + <!> ; 

( @841B-8479 XT:8427 CFA:224C DLen: 82 STAGE: Dictionaries)
: OPEN-OVerlay
 DUP FILE-STart @ SWAP FILE-#Rec @ OVER OV# <!> DUP 16* NEGATE [STARFLT:5007] + DUP 
 _?overlay-size DUP OVA <!> HERE OVER 6 + <!> DP <!> SWAP , , _ova@ , 2 ALLOT VOC-LINK 
 @ , 8 ALLOT 2 ALLOT ; 

( @8479-84AD XT:847B CFA:224C DLen: 50 STAGE: Words)
: _overlay-calc-segs
 CR CONTEXT @ NFA ID. _ova@ HERE OVER - 16/ 1+ DUP . ." SEGS USED" SWAP 18 + <!> 
 ; 

( @84AD-84C5 XT:84B9 CFA:224C DLen: 12 STAGE: Dictionaries)
: CLOSE-Overlay
 _overlay-calc-segs _swap-overlay-dp SAVE-OVerlay SAVE-BU_____ OV-CANCle ; 

( @84C5-84E0 XT:84D0 CFA:224C DLen: 16 STAGE: Dictionaries)
: MODULE
 OV# @ >V SAVE-OVerlay EXECUTE V> _load-overlay ; 

( Data:Variable @84E0-84EE XT:84EC CFA:1D29 DLen: 2 STAGE: Dictionaries)
VARIABLE ?TANDRG_ ( @84EC=0)

( @84EE-850E XT:84FA CFA:224C DLen: 20 STAGE: Dictionaries)
: MSET-CO___
 _?[E939] _?[D5F8] 2 _?[DAC0] _?[E947] _?[D601] 0 _?[DAC0] _?[E9D8] ; 

( @850E-8525 XT:8519 CFA:224C DLen: 12 STAGE: Dictionaries)
: !COLOR
 DUP COLOR ! DCOLOR ! ; 

( @8525-8536 XT:8530 CFA:224C DLen: 6 STAGE: Dictionaries)
: @COLOR
 COLOR @ ; 

( @8536-8594 XT:8538 CFA:1D29 DLen: 92 STAGE: Words)
CREATE [STARFLT:8538]
(Address @8538
   8538 8C D8                MOV        AX, DS
   853A 8E C0                MOV        ES, AX
   853C 55                   PUSH       BP
   853D 57                   PUSH       DI
   853E 56                   PUSH       SI
   853F B3 0F                MOV        BL, 15
   8541 32 FF                XOR        BH, BH
   8543 8B 36 9B 56          MOV        SI, WORD PTR [569Bh]             ; VIN
   8547 8B 3E B0 56          MOV        DI, WORD PTR [56B0h]             ; OIN
   854B 8B 2E 52 57          MOV        BP, WORD PTR [5752h]             ; IBELOW
   854F 8B 0E 86 56          MOV        CX, WORD PTR [5686h]             ; #IN
 .STARFLT_8553:
   8553 33 D2                XOR        DX, DX
   8555 AD                   LODSW      
   8556 3B C5                CMP        AX, BP
   8558 79 03                JNS        855Dh                            ; .STARFLT_855D
   855A 83 CA 04             OR         DX, 4
 .STARFLT_855D:
   855D 3B 06 5F 57          CMP        AX, WORD PTR [575Fh]             ; IABOVE
   8561 7E 03                JLE        8566h                            ; .STARFLT_8566
   8563 83 CA 08             OR         DX, 8
 .STARFLT_8566:
   8566 AD                   LODSW      
   8567 3B 06 38 57          CMP        AX, WORD PTR [5738h]             ; ILEFT
   856B 79 03                JNS        8570h                            ; .STARFLT_8570
   856D 83 CA 01             OR         DX, 1
 .STARFLT_8570:
   8570 3B 06 45 57          CMP        AX, WORD PTR [5745h]             ; IRIGHT
   8574 7E 03                JLE        8579h                            ; .STARFLT_8579
   8576 83 CA 02             OR         DX, 2
 .STARFLT_8579:
   8579 8B C2                MOV        AX, DX
   857B AA                   STOSB      
   857C 22 DA                AND        BL, DL
   857E 0A FA                OR         BH, DL
   8580 E2 D1                LOOP       8553h                            ; .STARFLT_8553
   8582 33 C0                XOR        AX, AX
   8584 8A C3                MOV        AL, BL
   8586 89 06 E8 56          MOV        WORD PTR [56E8h], AX             ; TRJCT
   858A 8A C7                MOV        AL, BH
   858C 89 06 DC 56          MOV        WORD PTR [56DCh], AX             ; TACCPT
   8590 5E                   POP        SI
   8591 5F                   POP        DI
   8592 5D                   POP        BP
   8593 C3                   RET        
) CODE-END

( @8594-8603 XT:8596 CFA:1D29 DLen: 109 STAGE: Words)
CREATE [STARFLT:8596]
(Address @8596
   8596 53                   PUSH       BX
   8597 55                   PUSH       BP
   8598 56                   PUSH       SI
   8599 57                   PUSH       DI
   859A 8B 0E 10 57          MOV        CX, WORD PTR [5710h]             ; [STARFLT:5710]
   859E 8B 36 14 57          MOV        SI, WORD PTR [5714h]             ; [STARFLT:5714]
   85A2 8B 2E 04 57          MOV        BP, WORD PTR [5704h]             ; [STARFLT:5704]
   85A6 8B 3E 08 57          MOV        DI, WORD PTR [5708h]             ; [STARFLT:5708]
   85AA 83 3E CF 56 01       CMP        WORD PTR [56CFh], 1
   85AF 75 04                JNZ        85B5h                            ; .STARFLT_85B5
   85B1 87 F1                XCHG       CX, SI
   85B3 87 FD                XCHG       BP, DI
 .STARFLT_85B5:
   85B5 8B 06 2C 57          MOV        AX, WORD PTR [572Ch]             ; [STARFLT:572C]
   85B9 2B C1                SUB        AX, CX
   85BB 8B DF                MOV        BX, DI
   85BD 2B DE                SUB        BX, SI
   85BF F7 EB                IMUL       BX
   85C1 8B DD                MOV        BX, BP
   85C3 2B D9                SUB        BX, CX
   85C5 F7 FB                IDIV       BX
   85C7 03 C6                ADD        AX, SI
   85C9 8B D0                MOV        DX, AX
   85CB 8B 0E 2C 57          MOV        CX, WORD PTR [572Ch]             ; [STARFLT:572C]
   85CF 83 3E CF 56 01       CMP        WORD PTR [56CFh], 1
   85D4 75 02                JNZ        85D8h                            ; .STARFLT_85D8
   85D6 87 D1                XCHG       CX, DX
 .STARFLT_85D8:
   85D8 2B C0                SUB        AX, AX
   85DA 3B 0E 38 57          CMP        CX, WORD PTR [5738h]             ; ILEFT
   85DE 79 03                JNS        85E3h                            ; .STARFLT_85E3
   85E0 0D 01 00             OR         AX, 1
 .STARFLT_85E3:
   85E3 3B 0E 45 57          CMP        CX, WORD PTR [5745h]             ; IRIGHT
   85E7 7E 03                JLE        85ECh                            ; .STARFLT_85EC
   85E9 0D 02 00             OR         AX, 2
 .STARFLT_85EC:
   85EC 3B 16 52 57          CMP        DX, WORD PTR [5752h]             ; IBELOW
   85F0 79 03                JNS        85F5h                            ; .STARFLT_85F5
   85F2 0D 04 00             OR         AX, 4
 .STARFLT_85F5:
   85F5 3B 16 5F 57          CMP        DX, WORD PTR [575Fh]             ; IABOVE
   85F9 7E 03                JLE        85FEh                            ; .STARFLT_85FE
   85FB 0D 08 00             OR         AX, 8
 .STARFLT_85FE:
   85FE 5F                   POP        DI
   85FF 5E                   POP        SI
   8600 5D                   POP        BP
   8601 5B                   POP        BX
   8602 C3                   RET        
) CODE-END

( @8603-8777 XT:8605 CFA:1D29 DLen: 370 STAGE: Words)
CREATE [STARFLT:8605]
(Address @8605
   8605 C7 06 91 56 00 00    MOV        WORD PTR [5691h], 0
   860B 87 36 BF 56          XCHG       WORD PTR [56BFh], SI             ; [STARFLT:56BF]
   860F 87 3E C3 56          XCHG       WORD PTR [56C3h], DI             ; [STARFLT:56C3]
   8613 87 1E C7 56          XCHG       WORD PTR [56C7h], BX             ; [STARFLT:56C7]
   8617 87 2E CB 56          XCHG       WORD PTR [56CBh], BP             ; [STARFLT:56CB]
   861B 8B 36 9B 56          MOV        SI, WORD PTR [569Bh]             ; VIN
   861F 8B 3E A6 56          MOV        DI, WORD PTR [56A6h]             ; VOUT
   8623 8B 1E B0 56          MOV        BX, WORD PTR [56B0h]             ; OIN
   8627 8B 2E BB 56          MOV        BP, WORD PTR [56BBh]             ; OOUT
   862B 8B 0E 86 56          MOV        CX, WORD PTR [5686h]             ; #IN
   862F 83 3E F4 56 01       CMP        WORD PTR [56F4h], 1
   8634 75 30                JNZ        8666h                            ; .STARFLT_8666
   8636 8B 04                MOV        AX, WORD PTR [SI]
   8638 89 06 08 57          MOV        WORD PTR [5708h], AX             ; [STARFLT:5708]
   863C 8B 44 02             MOV        AX, WORD PTR [SI+2]
   863F 89 06 04 57          MOV        WORD PTR [5704h], AX             ; [STARFLT:5704]
   8643 8A 07                MOV        AL, BYTE PTR [BX]
   8645 88 06 0C 57          MOV        BYTE PTR [570Ch], AL             ; [STARFLT:570C]
   8649 22 06 28 57          AND        AL, BYTE PTR [5728h]             ; [STARFLT:5728]
   864D 75 10                JNZ        865Fh                            ; .STARFLT_865F
   864F A5                   MOVSW      
   8650 A5                   MOVSW      
   8651 8A 06 0C 57          MOV        AL, BYTE PTR [570Ch]             ; [STARFLT:570C]
   8655 88 46 00             MOV        BYTE PTR [BP], AL
   8658 45                   INC        BP
   8659 FF 06 91 56          INC        WORD PTR [5691h]                 ; #OUT
   865D EB 03                JMP        8662h                            ; .STARFLT_8662
 .STARFLT_865F:
   865F 83 C6 04             ADD        SI, 4
 .STARFLT_8662:
   8662 49                   DEC        CX
   8663 43                   INC        BX
   8664 EB 23                JMP        8689h                            ; .STARFLT_8689
 .STARFLT_8666:
   8666 49                   DEC        CX
   8667 03 D9                ADD        BX, CX
   8669 8A 07                MOV        AL, BYTE PTR [BX]
   866B 88 06 0C 57          MOV        BYTE PTR [570Ch], AL             ; [STARFLT:570C]
   866F 2B D9                SUB        BX, CX
   8671 8B C1                MOV        AX, CX
   8673 D1 E0                SHL        AX, 1
   8675 D1 E0                SHL        AX, 1
   8677 03 F0                ADD        SI, AX
   8679 8B 14                MOV        DX, WORD PTR [SI]
   867B 89 16 08 57          MOV        WORD PTR [5708h], DX             ; [STARFLT:5708]
   867F 8B 54 02             MOV        DX, WORD PTR [SI+2]
   8682 89 16 04 57          MOV        WORD PTR [5704h], DX             ; [STARFLT:5704]
   8686 2B F0                SUB        SI, AX
   8688 41                   INC        CX
 .STARFLT_8689:
 .STARFLT_8689:
   8689 8B 04                MOV        AX, WORD PTR [SI]
   868B 89 06 14 57          MOV        WORD PTR [5714h], AX             ; [STARFLT:5714]
   868F 8B 44 02             MOV        AX, WORD PTR [SI+2]
   8692 89 06 10 57          MOV        WORD PTR [5710h], AX             ; [STARFLT:5710]
   8696 8A 07                MOV        AL, BYTE PTR [BX]
   8698 88 06 18 57          MOV        BYTE PTR [5718h], AL             ; [STARFLT:5718]
   869C 43                   INC        BX
   869D 8B 06 28 57          MOV        AX, WORD PTR [5728h]             ; [STARFLT:5728]
   86A1 22 06 18 57          AND        AL, BYTE PTR [5718h]             ; [STARFLT:5718]
   86A5 22 26 0C 57          AND        AH, BYTE PTR [570Ch]             ; [STARFLT:570C]
   86A9 3A E0                CMP        AH, AL
   86AB 74 5C                JZ         8709h                            ; .STARFLT_8709
   86AD 51                   PUSH       CX
   86AE 50                   PUSH       AX
   86AF 33 C9                XOR        CX, CX
   86B1 8B 06 2C 57          MOV        AX, WORD PTR [572Ch]             ; [STARFLT:572C]
   86B5 83 3E CF 56 00       CMP        WORD PTR [56CFh], 0
   86BA 75 16                JNZ        86D2h                            ; .STARFLT_86D2
   86BC 3B 06 10 57          CMP        AX, WORD PTR [5710h]             ; [STARFLT:5710]
   86C0 74 01                JZ         86C3h                            ; .STARFLT_86C3
   86C2 41                   INC        CX
 .STARFLT_86C3:
   86C3 3B 06 04 57          CMP        AX, WORD PTR [5704h]             ; [STARFLT:5704]
   86C7 74 05                JZ         86CEh                            ; .STARFLT_86CE
   86C9 83 E1 01             AND        CX, 1
   86CC EB 02                JMP        86D0h                            ; .STARFLT_86D0
 .STARFLT_86CE:
   86CE 33 C9                XOR        CX, CX
 .STARFLT_86D0:
   86D0 EB 14                JMP        86E6h                            ; .STARFLT_86E6
 .STARFLT_86D2:
   86D2 3B 06 14 57          CMP        AX, WORD PTR [5714h]             ; [STARFLT:5714]
   86D6 74 01                JZ         86D9h                            ; .STARFLT_86D9
   86D8 41                   INC        CX
 .STARFLT_86D9:
   86D9 3B 06 08 57          CMP        AX, WORD PTR [5708h]             ; [STARFLT:5708]
   86DD 74 05                JZ         86E4h                            ; .STARFLT_86E4
   86DF 83 E1 01             AND        CX, 1
   86E2 EB 02                JMP        86E6h                            ; .STARFLT_86E6
 .STARFLT_86E4:
   86E4 33 C9                XOR        CX, CX
 .STARFLT_86E6:
 .STARFLT_86E6:
   86E6 83 3E F4 56 01       CMP        WORD PTR [56F4h], 1
   86EB 75 01                JNZ        86EEh                            ; .STARFLT_86EE
   86ED 41                   INC        CX
 .STARFLT_86EE:
   86EE 0B C9                OR         CX, CX
   86F0 74 15                JZ         8707h                            ; .STARFLT_8707
   86F2 E8 A1 FE             CALL       8596h                            ; [STARFLT:8596]
   86F5 89 15                MOV        WORD PTR [DI], DX                ; USER:SP0
   86F7 83 C7 02             ADD        DI, 2
   86FA 89 0D                MOV        WORD PTR [DI], CX                ; USER:SP0
   86FC 83 C7 02             ADD        DI, 2
   86FF 89 46 00             MOV        WORD PTR [BP], AX
   8702 45                   INC        BP
   8703 FF 06 91 56          INC        WORD PTR [5691h]                 ; #OUT
 .STARFLT_8707:
   8707 58                   POP        AX
   8708 59                   POP        CX
 .STARFLT_8709:
   8709 0A C0                OR         AL, AL
   870B 75 10                JNZ        871Dh                            ; .STARFLT_871D
   870D A5                   MOVSW      
   870E A5                   MOVSW      
   870F 8A 16 18 57          MOV        DL, BYTE PTR [5718h]             ; [STARFLT:5718]
   8713 88 56 00             MOV        BYTE PTR [BP], DL
   8716 45                   INC        BP
   8717 FF 06 91 56          INC        WORD PTR [5691h]                 ; #OUT
   871B EB 03                JMP        8720h                            ; .STARFLT_8720
 .STARFLT_871D:
   871D 83 C6 04             ADD        SI, 4
 .STARFLT_8720:
   8720 8B 06 14 57          MOV        AX, WORD PTR [5714h]             ; [STARFLT:5714]
   8724 89 06 08 57          MOV        WORD PTR [5708h], AX             ; [STARFLT:5708]
   8728 8B 06 10 57          MOV        AX, WORD PTR [5710h]             ; [STARFLT:5710]
   872C 89 06 04 57          MOV        WORD PTR [5704h], AX             ; [STARFLT:5704]
   8730 8A 06 18 57          MOV        AL, BYTE PTR [5718h]             ; [STARFLT:5718]
   8734 88 06 0C 57          MOV        BYTE PTR [570Ch], AL             ; [STARFLT:570C]
   8738 49                   DEC        CX
   8739 74 03                JZ         873Eh                            ; .STARFLT_873E
   873B E9 4B FF             JMP        8689h                            ; .STARFLT_8689
 .STARFLT_873E:
   873E 8B 06 9B 56          MOV        AX, WORD PTR [569Bh]             ; VIN
   8742 8B 0E A6 56          MOV        CX, WORD PTR [56A6h]             ; VOUT
   8746 89 06 A6 56          MOV        WORD PTR [56A6h], AX             ; VOUT
   874A 89 0E 9B 56          MOV        WORD PTR [569Bh], CX             ; VIN
   874E 8B 06 B0 56          MOV        AX, WORD PTR [56B0h]             ; OIN
   8752 8B 0E BB 56          MOV        CX, WORD PTR [56BBh]             ; OOUT
   8756 89 06 BB 56          MOV        WORD PTR [56BBh], AX             ; OOUT
   875A 89 0E B0 56          MOV        WORD PTR [56B0h], CX             ; OIN
   875E 8B 06 91 56          MOV        AX, WORD PTR [5691h]             ; #OUT
   8762 89 06 86 56          MOV        WORD PTR [5686h], AX             ; #IN
   8766 87 36 BF 56          XCHG       WORD PTR [56BFh], SI             ; [STARFLT:56BF]
   876A 87 3E C3 56          XCHG       WORD PTR [56C3h], DI             ; [STARFLT:56C3]
   876E 87 1E C7 56          XCHG       WORD PTR [56C7h], BX             ; [STARFLT:56C7]
   8772 87 2E CB 56          XCHG       WORD PTR [56CBh], BP             ; [STARFLT:56CB]
   8776 C3                   RET        
) CODE-END

( @8777-87DF XT:8783 CFA:8783 DLen: 92 STAGE: Dictionaries)
CODE CLIPPER
(Address @8783
   8783 57                   PUSH       DI
   8784 E8 B1 FD             CALL       8538h                            ; [STARFLT:8538]
   8787 8B 06 E8 56          MOV        AX, WORD PTR [56E8h]             ; TRJCT
   878B 0B C0                OR         AX, AX
   878D 74 08                JZ         8797h                            ; .STARFLT_8797
   878F C7 06 86 56 00 00    MOV        WORD PTR [5686h], 0
   8795 EB 42                JMP        87D9h                            ; .STARFLT_87D9
 .STARFLT_8797:
   8797 8B 06 DC 56          MOV        AX, WORD PTR [56DCh]             ; TACCPT
   879B 0B C0                OR         AX, AX
   879D 74 3A                JZ         87D9h                            ; .STARFLT_87D9
   879F BF 53 52             MOV        DI, 5253h                        ; CLIP-TA___
   87A2 B9 04 00             MOV        CX, 4
 .STARFLT_87A5:
   87A5 8B 15                MOV        DX, WORD PTR [DI]                ; USER:SP0
   87A7 84 C2                TEST       DL, AL
   87A9 74 29                JZ         87D4h                            ; .STARFLT_87D4
   87AB 89 16 28 57          MOV        WORD PTR [5728h], DX             ; [STARFLT:5728]
   87AF 83 C7 02             ADD        DI, 2
   87B2 33 D2                XOR        DX, DX
   87B4 8A 15                MOV        DL, BYTE PTR [DI]                ; USER:SP0
   87B6 89 16 CF 56          MOV        WORD PTR [56CFh], DX             ; [STARFLT:56CF]
   87BA 47                   INC        DI
   87BB 8B 15                MOV        DX, WORD PTR [DI]                ; USER:SP0
   87BD 89 16 2C 57          MOV        WORD PTR [572Ch], DX             ; [STARFLT:572C]
   87C1 83 C7 02             ADD        DI, 2
   87C4 50                   PUSH       AX
   87C5 51                   PUSH       CX
   87C6 E8 3C FE             CALL       8605h                            ; [STARFLT:8605]
   87C9 59                   POP        CX
   87CA 0B C0                OR         AX, AX
   87CC 75 03                JNZ        87D1h                            ; .STARFLT_87D1
   87CE B9 01 00             MOV        CX, 1
 .STARFLT_87D1:
   87D1 58                   POP        AX
   87D2 EB 03                JMP        87D7h                            ; .STARFLT_87D7
 .STARFLT_87D4:
   87D4 83 C7 05             ADD        DI, 5
 .STARFLT_87D7:
   87D7 E2 CC                LOOP       87A5h                            ; .STARFLT_87A5
 .STARFLT_87D9:
 .STARFLT_87D9:
   87D9 5F                   POP        DI
   87DA AD                   LODSW      
   87DB 8B D8                MOV        BX, AX
   87DD FF 27                JMP        WORD PTR [BX]
) CODE-END

( @87DF-8885 XT:87E1 CFA:1D29 DLen: 164 STAGE: Words)
CREATE [STARFLT:87E1]
(Address @87E1
   87E1 FF 36 10 57          PUSH       WORD PTR [5710h]                 ; [STARFLT:5710]
   87E5 8B 06 08 57          MOV        AX, WORD PTR [5708h]             ; [STARFLT:5708]
   87E9 8B 0E 14 57          MOV        CX, WORD PTR [5714h]             ; [STARFLT:5714]
   87ED 51                   PUSH       CX
   87EE 3B C8                CMP        CX, AX
   87F0 79 18                JNS        880Ah                            ; .STARFLT_880A
   87F2 89 0E 08 57          MOV        WORD PTR [5708h], CX             ; [STARFLT:5708]
   87F6 89 06 14 57          MOV        WORD PTR [5714h], AX             ; [STARFLT:5714]
   87FA 8B 0E 04 57          MOV        CX, WORD PTR [5704h]             ; [STARFLT:5704]
   87FE 8B 06 10 57          MOV        AX, WORD PTR [5710h]             ; [STARFLT:5710]
   8802 89 06 04 57          MOV        WORD PTR [5704h], AX             ; [STARFLT:5704]
   8806 89 0E 10 57          MOV        WORD PTR [5710h], CX             ; [STARFLT:5710]
 .STARFLT_880A:
   880A B3 C3                MOV        BL, -61
   880C 8B 06 10 57          MOV        AX, WORD PTR [5710h]             ; [STARFLT:5710]
   8810 2B 06 04 57          SUB        AX, WORD PTR [5704h]             ; [STARFLT:5704]
   8814 7D 04                JNL        881Ah                            ; .STARFLT_881A
   8816 B3 CB                MOV        BL, -53
   8818 F7 D8                NEG        AX
 .STARFLT_881A:
   881A 8B C8                MOV        CX, AX
   881C B7 C7                MOV        DIL, -57
   881E 8B 06 14 57          MOV        AX, WORD PTR [5714h]             ; [STARFLT:5714]
   8822 2B 06 08 57          SUB        AX, WORD PTR [5708h]             ; [STARFLT:5708]
   8826 8B D0                MOV        DX, AX
   8828 3B D1                CMP        DX, CX
   882A 7D 04                JNL        8830h                            ; .STARFLT_8830
   882C 87 CA                XCHG       DX, CX
   882E 86 DF                XCHG       BH, BL
 .STARFLT_8830:
   8830 BF E1 87             MOV        DI, 87E1h                        ; [STARFLT:87E1]
   8833 81 C7 87 00          ADD        DI, 0087h
   8837 88 3D                MOV        BYTE PTR [DI], BH                ; USER:SP0
   8839 83 C7 03             ADD        DI, 3
   883C 89 0D                MOV        WORD PTR [DI], CX                ; USER:SP0
   883E D1 E9                SHR        CX, 1
   8840 83 C7 04             ADD        DI, 4
   8843 89 0D                MOV        WORD PTR [DI], CX                ; USER:SP0
   8845 83 C7 06             ADD        DI, 6
   8848 89 15                MOV        WORD PTR [DI], DX                ; USER:SP0
   884A 83 C7 03             ADD        DI, 3
   884D 88 1D                MOV        BYTE PTR [DI], BL                ; USER:SP0
   884F 8A 1E 04 57          MOV        BL, BYTE PTR [5704h]             ; [STARFLT:5704]
   8853 8A 3E 08 57          MOV        BH, BYTE PTR [5708h]             ; [STARFLT:5708]
   8857 33 C9                XOR        CX, CX
 .STARFLT_8859:
   8859 33 C0                XOR        AX, AX
   885B 8A C7                MOV        AL, BH
   885D D1 E0                SHL        AX, 1
   885F 03 06 E1 57          ADD        AX, WORD PTR [57E1h]             ; [STARFLT:57E1]
   8863 8B F8                MOV        DI, AX
   8865 88 1D                MOV        BYTE PTR [DI], BL                ; USER:SP0
   8867 FE C7                INC        BH
   8869 81 C1 00 00          ADD        CX, 0
   886D 81 F9 00 00          CMP        CX, 0
   8871 7E 06                JLE        8879h                            ; .STARFLT_8879
   8873 81 E9 04 00          SUB        CX, 4
   8877 FE C3                INC        BL
 .STARFLT_8879:
   8879 4A                   DEC        DX
   887A 7D DD                JNL        8859h                            ; .STARFLT_8859
   887C 8F 06 14 57          POP        WORD PTR [5714h]                 ; [STARFLT:5714]
   8880 8F 06 10 57          POP        WORD PTR [5710h]                 ; [STARFLT:5710]
   8884 C3                   RET        
) CODE-END

( @8885-8995 XT:8891 CFA:8891 DLen: 260 STAGE: Dictionaries)
CODE SCANPOL_
(Address @8891
   8891 57                   PUSH       DI
   8892 33 C9                XOR        CX, CX
   8894 89 0E FB 57          MOV        WORD PTR [57FBh], CX             ; [STARFLT:57FB]
   8898 89 0E DD 57          MOV        WORD PTR [57DDh], CX             ; [STARFLT:57DD]
   889C 8B 3E 9B 56          MOV        DI, WORD PTR [569Bh]             ; VIN
   88A0 8B 06 86 56          MOV        AX, WORD PTR [5686h]             ; #IN
   88A4 48                   DEC        AX
   88A5 D1 E0                SHL        AX, 1
   88A7 D1 E0                SHL        AX, 1
   88A9 03 F8                ADD        DI, AX
   88AB 8B 0D                MOV        CX, WORD PTR [DI]                ; USER:SP0
   88AD 89 0E 08 57          MOV        WORD PTR [5708h], CX             ; [STARFLT:5708]
   88B1 83 C7 02             ADD        DI, 2
   88B4 8B 0D                MOV        CX, WORD PTR [DI]                ; USER:SP0
   88B6 89 0E 04 57          MOV        WORD PTR [5704h], CX             ; [STARFLT:5704]
   88BA 8B 3E 9B 56          MOV        DI, WORD PTR [569Bh]             ; VIN
   88BE 8B 0D                MOV        CX, WORD PTR [DI]                ; USER:SP0
   88C0 89 0E EC 57          MOV        WORD PTR [57ECh], CX             ; YMIN
   88C4 89 0E F7 57          MOV        WORD PTR [57F7h], CX             ; YMAX
   88C8 8B 0E 86 56          MOV        CX, WORD PTR [5686h]             ; #IN
 .STARFLT_88CC:
   88CC 8B 05                MOV        AX, WORD PTR [DI]                ; USER:SP0
   88CE 89 06 14 57          MOV        WORD PTR [5714h], AX             ; [STARFLT:5714]
   88D2 83 C7 02             ADD        DI, 2
   88D5 8B 1D                MOV        BX, WORD PTR [DI]                ; USER:SP0
   88D7 89 1E 10 57          MOV        WORD PTR [5710h], BX             ; [STARFLT:5710]
   88DB 83 C7 02             ADD        DI, 2
   88DE 8B 16 08 57          MOV        DX, WORD PTR [5708h]             ; [STARFLT:5708]
   88E2 3B C2                CMP        AX, DX
   88E4 75 19                JNZ        88FFh                            ; .STARFLT_88FF
   88E6 FF 06 FB 57          INC        WORD PTR [57FBh]                 ; [STARFLT:57FB]
   88EA 3B 1E 04 57          CMP        BX, WORD PTR [5704h]             ; [STARFLT:5704]
   88EE 79 07                JNS        88F7h                            ; .STARFLT_88F7
   88F0 FF 36 04 57          PUSH       WORD PTR [5704h]                 ; [STARFLT:5704]
   88F4 53                   PUSH       BX
   88F5 EB 05                JMP        88FCh                            ; .STARFLT_88FC
 .STARFLT_88F7:
   88F7 53                   PUSH       BX
   88F8 FF 36 04 57          PUSH       WORD PTR [5704h]                 ; [STARFLT:5704]
 .STARFLT_88FC:
   88FC 50                   PUSH       AX
   88FD EB 38                JMP        8937h                            ; .STARFLT_8937
 .STARFLT_88FF:
   88FF 8B 16 EC 57          MOV        DX, WORD PTR [57ECh]             ; YMIN
   8903 3B D0                CMP        DX, AX
   8905 7E 06                JLE        890Dh                            ; .STARFLT_890D
   8907 89 06 EC 57          MOV        WORD PTR [57ECh], AX             ; YMIN
   890B EB 0C                JMP        8919h                            ; .STARFLT_8919
 .STARFLT_890D:
   890D 8B 16 F7 57          MOV        DX, WORD PTR [57F7h]             ; YMAX
   8911 3B D0                CMP        DX, AX
   8913 79 04                JNS        8919h                            ; .STARFLT_8919
   8915 89 06 F7 57          MOV        WORD PTR [57F7h], AX             ; YMAX
 .STARFLT_8919:
 .STARFLT_8919:
   8919 33 D2                XOR        DX, DX
   891B 8B 1E 08 57          MOV        BX, WORD PTR [5708h]             ; [STARFLT:5708]
   891F 3B D8                CMP        BX, AX
   8921 7E 01                JLE        8924h                            ; .STARFLT_8924
   8923 42                   INC        DX
 .STARFLT_8924:
   8924 89 16 DD 57          MOV        WORD PTR [57DDh], DX             ; [STARFLT:57DD]
   8928 03 16 D9 57          ADD        DX, WORD PTR [57D9h]             ; SCAN
   892C 89 16 E1 57          MOV        WORD PTR [57E1h], DX             ; [STARFLT:57E1]
   8930 51                   PUSH       CX
   8931 57                   PUSH       DI
   8932 E8 AC FE             CALL       87E1h                            ; [STARFLT:87E1]
   8935 5F                   POP        DI
   8936 59                   POP        CX
 .STARFLT_8937:
   8937 8B 06 14 57          MOV        AX, WORD PTR [5714h]             ; [STARFLT:5714]
   893B 89 06 08 57          MOV        WORD PTR [5708h], AX             ; [STARFLT:5708]
   893F 8B 06 10 57          MOV        AX, WORD PTR [5710h]             ; [STARFLT:5710]
   8943 89 06 04 57          MOV        WORD PTR [5704h], AX             ; [STARFLT:5704]
   8947 49                   DEC        CX
   8948 74 03                JZ         894Dh                            ; .STARFLT_894D
   894A E9 7F FF             JMP        88CCh                            ; .STARFLT_88CC
 .STARFLT_894D:
   894D 39 0E FB 57          CMP        WORD PTR [57FBh], CX             ; [STARFLT:57FB]
   8951 7E 3C                JLE        898Fh                            ; .STARFLT_898F
   8953 B8 00 09             MOV        AX, 0900h
   8956 89 06 08 57          MOV        WORD PTR [5708h], AX             ; [STARFLT:5708]
   895A 8B 0E FB 57          MOV        CX, WORD PTR [57FBh]             ; [STARFLT:57FB]
 .STARFLT_895E:
   895E 5A                   POP        DX
   895F 8B FA                MOV        DI, DX
   8961 D1 E7                SHL        DI, 1
   8963 03 3E D9 57          ADD        DI, WORD PTR [57D9h]             ; SCAN
   8967 3B 16 08 57          CMP        DX, WORD PTR [5708h]             ; [STARFLT:5708]
   896B 75 15                JNZ        8982h                            ; .STARFLT_8982
   896D 58                   POP        AX
   896E 8A 25                MOV        AH, BYTE PTR [DI]                ; USER:SP0
   8970 3A C4                CMP        AL, AH
   8972 79 02                JNS        8976h                            ; .STARFLT_8976
   8974 88 05                MOV        BYTE PTR [DI], AL                ; USER:SP0
 .STARFLT_8976:
   8976 47                   INC        DI
   8977 58                   POP        AX
   8978 8A 25                MOV        AH, BYTE PTR [DI]                ; USER:SP0
   897A 3A C4                CMP        AL, AH
   897C 7E 02                JLE        8980h                            ; .STARFLT_8980
   897E 88 05                MOV        BYTE PTR [DI], AL                ; USER:SP0
 .STARFLT_8980:
   8980 EB 0B                JMP        898Dh                            ; .STARFLT_898D
 .STARFLT_8982:
   8982 89 16 08 57          MOV        WORD PTR [5708h], DX             ; [STARFLT:5708]
   8986 58                   POP        AX
   8987 88 05                MOV        BYTE PTR [DI], AL                ; USER:SP0
   8989 58                   POP        AX
   898A 47                   INC        DI
   898B 88 05                MOV        BYTE PTR [DI], AL                ; USER:SP0
 .STARFLT_898D:
   898D E2 CF                LOOP       895Eh                            ; .STARFLT_895E
 .STARFLT_898F:
   898F 5F                   POP        DI
   8990 AD                   LODSW      
   8991 8B D8                MOV        BX, AX
   8993 FF 27                JMP        WORD PTR [BX]
) CODE-END

( @8995-89DF XT:89A1 CFA:224C DLen: 62 STAGE: Dictionaries)
: SETCLIP______
 DUP ILEFT ! CLIP-TA___ 18 + ! DUP IBELOW ! CLIP-TA___ 13 + ! DUP IRIGHT ! CLIP-TA___ 
 8 + ! DUP IABOVE ! CLIP-TA___ 3 + ! ; 

( @89DF-89FB XT:89EB CFA:224C DLen: 16 STAGE: Dictionaries)
: VCLIPSE_
 119 71 0 0 SETCLIP______ ; 

( @89FB-8A17 XT:8A07 CFA:224C DLen: 16 STAGE: Dictionaries)
: DCLIPSE_
 $00C7 $009F 0 0 SETCLIP______ ; 

( @8A17-8A2B XT:8A19 CFA:224C DLen: 18 STAGE: Words)
: [STARFLT:8A19]
 DROP $00C7 SWAP - 40 * ; 

( @8A2B-8A52 XT:8A2D CFA:8A2D DLen: 37 STAGE: Words)
CODE [STARFLT:8A2D]
(Address @8A2D
   8A2D 58                   POP        AX
   8A2E D1 E8                SHR        AX, 1
   8A30 59                   POP        CX
   8A31 BB C7 00             MOV        BX, 00C7h
   8A34 2B D9                SUB        BX, CX
   8A36 F7 C3 01 00          TEST       BX, 1
   8A3A 74 06                JZ         8A42h                            ; .STARFLT_8A42
   8A3C 05 00 20             ADD        AX, 2000h
   8A3F 83 E3 FE             AND        BX, -2
 .STARFLT_8A42:
   8A42 93                   XCHG       BX, AX
   8A43 B9 28 00             MOV        CX, 40
   8A46 F7 E1                MUL        CX
   8A48 03 D8                ADD        BX, AX
   8A4A 8B C3                MOV        AX, BX
   8A4C 50                   PUSH       AX
   8A4D AD                   LODSW      
   8A4E 8B D8                MOV        BX, AX
   8A50 FF 27                JMP        WORD PTR [BX]
) CODE-END

( @8A52-8A8A XT:8A54 CFA:224C DLen: 54 STAGE: Words)
: [STARFLT:8A54]
 40 + SWAP $0111 - ABS SWAP 8 / SWAP DUP 4 MOD $2000 * SWAP 4 / 90 * + + ; 

( @8A8A-8AA0 XT:8A96 CFA:224C DLen: 10 STAGE: Dictionaries)
: ?HERCUL__
 MONITOR @ 4 = ; 

( @8AA0-8AAA XT:8AA2 CFA:224C DLen: 8 STAGE: Words)
: [STARFLT:8AA2]
 2* YTABLE + ; 

( @8AAA-8AF8 XT:8AB6 CFA:224C DLen: 66 STAGE: Dictionaries)
: BLD-DIS
 ?HERCUL__ IF 
  ' [STARFLT:8A54] ( $8A54 ) 
 ELSE 
  ?EGA @ IF 
   ' [STARFLT:8A19] ( $8A19 ) 
  ELSE 
   ' [STARFLT:8A2D] ( $8A2D ) 
  THEN 
 THEN 
 $00C8 0 DO 
  I 0 3 PICK EXECUTE I [STARFLT:8AA2] ! 
 LOOP 
 DROP ; 

( @8AF8-8B5B XT:8B03 CFA:224C DLen: 88 STAGE: Dictionaries)
: BLD-MV
 120 0 DO 
  0 I 1 AND IF 
   ?EGA @ 0= IF 
    ' CHANGE ( $0870 ) + 
   ELSE 
   THEN 
   I ?EGA @ 0= IF 
    2/ 36 * 
   ELSE 
    18 * 
   THEN 
   + VYTABLE I 2* + ! 
  LOOP 
  ; 

( @8B5B-8B8B XT:8B5D CFA:224C DLen: 46 STAGE: Words)
: [STARFLT:8B5D]
 ?EGA @ IF 
  BLD-DIS 
 ELSE 
  0 $00C8 0 DO 
   DUP I [STARFLT:8AA2] ! 80 + 
  LOOP 
  DROP 
 THEN 
 ; 

( @8B8B-8B97 XT:8B8D CFA:224C DLen: 10 STAGE: Words)
: [STARFLT:8B8D]
 0 [STARFLT:8AA2] @ 0= ; 

( @8B97-8BC5 XT:8BA3 CFA:224C DLen: 34 STAGE: Dictionaries)
: >MAINVI__
 VYTABLE YTABL ! HBUF-SE_ @ BUF-SEG ! $10E0 ?EGA @ IF 
  2/ 
 THEN 
 BUF-CNT ! ; 

( @8BC5-8BEF XT:8BD1 CFA:224C DLen: 30 STAGE: Dictionaries)
: >DISPLA_
 [STARFLT:8B8D] IF 
  BLD-DIS 
 THEN 
 YTABLE YTABL ! DBUF-SE_ @ BUF-SEG ! DBUF-SI__ BUF-CNT ! ; 

( @8BEF-8C35 XT:8BFB CFA:224C DLen: 58 STAGE: Dictionaries)
: >HIDDEN
 ?EGA @ 0= [STARFLT:8B8D] NOT AND IF 
  [STARFLT:8B5D] 
 THEN 
 YTABLE YTABL ! HBUF-SE_ @ BUF-SEG ! DBUF-SI__ MONITOR @ 4 = IF 
  DROP $4000 
 THEN 
 BUF-CNT ! ; 

( @8C35-8C53 XT:8C41 CFA:1D29 DLen: 18 STAGE: Dictionaries)
CREATE SET6845
(Address @8C41
   8C41 B9 0E 00             MOV        CX, 14
   8C44 32 E4                XOR        AH, AH
 .STARFLT_8C46:
   8C46 8A C4                MOV        AL, AH
   8C48 EE                   OUT        DX, AL
   8C49 42                   INC        DX
   8C4A AC                   LODSB      
   8C4B EE                   OUT        DX, AL
   8C4C 80 C4 01             ADD        AH, 1
   8C4F 4A                   DEC        DX
   8C50 E2 F4                LOOP       8C46h                            ; .STARFLT_8C46
   8C52 C3                   RET        
) CODE-END

( Data @8C53-8C6A XT:8C5C CFA:1D29 DLen: 14 STAGE: Dictionaries)
CREATE GIBM 14 ALLOT ( @8C5C =
@8C5C 38 28 2D 0A 7F 06 64 70 02 01 08 08 00 00         8(-...dp......  
 )

( Data @8C6A-8C82 XT:8C74 CFA:1D29 DLen: 14 STAGE: Dictionaries)
CREATE GHERC 14 ALLOT ( @8C74 =
@8C74 35 2D 2E 07 5B 02 57 57 02 03 00 00 00 00         5-..[.WW......  
 )

( Data @8C82-8C9A XT:8C8C CFA:1D29 DLen: 14 STAGE: Dictionaries)
CREATE THERC 14 ALLOT ( @8C8C =
@8C8C 61 50 52 0F 19 06 19 19 02 0D 0B 0C 00 00         aPR...........  
 )

( @8C9A-8CC2 XT:8CA6 CFA:1D29 DLen: 28 STAGE: Dictionaries)
CREATE >HGRAPH
(Address @8CA6
   8CA6 BA B8 03             MOV        DX, 03B8h
   8CA9 B0 02                MOV        AL, 2
   8CAB EE                   OUT        DX, AL
   8CAC B0 01                MOV        AL, 1
   8CAE BA BF 03             MOV        DX, 03BFh
   8CB1 EE                   OUT        DX, AL
   8CB2 BA B4 03             MOV        DX, 03B4h
   8CB5 BE 74 8C             MOV        SI, 8C74h                        ; GHERC
   8CB8 E8 86 FF             CALL       8C41h                            ; SET6845
   8CBB BA B8 03             MOV        DX, 03B8h
   8CBE B0 0A                MOV        AL, 10
   8CC0 EE                   OUT        DX, AL
   8CC1 C3                   RET        
) CODE-END

( @8CC2-8CE9 XT:8CCD CFA:1D29 DLen: 28 STAGE: Dictionaries)
CREATE >HTEXT
(Address @8CCD
   8CCD BA B8 03             MOV        DX, 03B8h
   8CD0 B0 20                MOV        AL, 32
   8CD2 EE                   OUT        DX, AL
   8CD3 B0 00                MOV        AL, 0
   8CD5 BA BF 03             MOV        DX, 03BFh
   8CD8 EE                   OUT        DX, AL
   8CD9 BA B4 03             MOV        DX, 03B4h
   8CDC BE 8C 8C             MOV        SI, 8C8Ch                        ; THERC
   8CDF E8 5F FF             CALL       8C41h                            ; SET6845
   8CE2 BA B8 03             MOV        DX, 03B8h
   8CE5 B0 28                MOV        AL, 40
   8CE7 EE                   OUT        DX, AL
   8CE8 C3                   RET        
) CODE-END

( @8CE9-8CFD XT:8CEB CFA:1D29 DLen: 18 STAGE: Words)
CREATE [STARFLT:8CEB]
(Address @8CEB
   8CEB B8 8D 00             MOV        AX, 008Dh
   8CEE CD 10                INT        10h
   8CF0 BA CE 03             MOV        DX, 03CEh
   8CF3 B0 01                MOV        AL, 1
   8CF5 B4 0F                MOV        SPL, 15
   8CF7 EE                   OUT        DX, AL
   8CF8 42                   INC        DX
   8CF9 86 C4                XCHG       AH, AL
   8CFB EE                   OUT        DX, AL
   8CFC C3                   RET        
) CODE-END

( @8CFD-8D3D XT:8D09 CFA:8D09 DLen: 52 STAGE: Dictionaries)
CODE DISPLAY_____
(Address @8D09
   8D09 BA DA 03             MOV        DX, 03DAh
   8D0C B8 04 00             MOV        AX, 4
   8D0F 2B 06 4A 58          SUB        AX, WORD PTR [584Ah]             ; MONITOR
   8D13 75 03                JNZ        8D18h                            ; .STARFLT_8D18
   8D15 BA BA 03             MOV        DX, 03BAh
 .STARFLT_8D18:
   8D18 8B 06 A3 5D          MOV        AX, WORD PTR [5DA3h]             ; ?EGA
   8D1C A9 FF 00             TEST       AX, 00FFh
   8D1F 74 05                JZ         8D26h                            ; .STARFLT_8D26
   8D21 B9 08 00             MOV        CX, 8
   8D24 EB 03                JMP        8D29h                            ; .STARFLT_8D29
 .STARFLT_8D26:
   8D26 B9 01 00             MOV        CX, 1
 .STARFLT_8D29:
 .STARFLT_8D29:
   8D29 EC                   IN         AL, DX
   8D2A 23 C1                AND        AX, CX
   8D2C 75 FB                JNZ        8D29h                            ; .STARFLT_8D29
 .STARFLT_8D2E:
   8D2E EC                   IN         AL, DX
   8D2F 23 C1                AND        AX, CX
   8D31 74 FB                JZ         8D2Eh                            ; .STARFLT_8D2E
 .STARFLT_8D33:
   8D33 EC                   IN         AL, DX
   8D34 23 C1                AND        AX, CX
   8D36 75 FB                JNZ        8D33h                            ; .STARFLT_8D33
   8D38 AD                   LODSW      
   8D39 8B D8                MOV        BX, AX
   8D3B FF 27                JMP        WORD PTR [BX]
) CODE-END

( @8D3D-8D64 XT:8D48 CFA:1D29 DLen: 28 STAGE: Dictionaries)
CREATE >TANDY
(Address @8D48
   8D48 B0 03                MOV        AL, 3
   8D4A BA DA 03             MOV        DX, 03DAh
   8D4D EE                   OUT        DX, AL
   8D4E B0 10                MOV        AL, 16
   8D50 BA DE 03             MOV        DX, 03DEh
   8D53 EE                   OUT        DX, AL
   8D54 B0 01                MOV        AL, 1
   8D56 BA DA 03             MOV        DX, 03DAh
   8D59 EE                   OUT        DX, AL
   8D5A B0 0F                MOV        AL, 15
   8D5C BA DE 03             MOV        DX, 03DEh
   8D5F EE                   OUT        DX, AL
   8D60 BB 27 0A             MOV        BX, 0A27h
   8D63 C3                   RET        
) CODE-END

( @8D64-8D77 XT:8D66 CFA:8D66 DLen: 17 STAGE: Words)
CODE [STARFLT:8D66]
(Address @8D66
   8D66 5A                   POP        DX
   8D67 1E                   PUSH       DS
   8D68 33 C0                XOR        AX, AX
   8D6A 8E D8                MOV        DS, AX
   8D6C BB 10 04             MOV        BX, 0410h
   8D6F 89 17                MOV        WORD PTR [BX], DX
   8D71 1F                   POP        DS
   8D72 AD                   LODSW      
   8D73 8B D8                MOV        BX, AX
   8D75 FF 27                JMP        WORD PTR [BX]
) CODE-END

( @8D77-8D89 XT:8D81 CFA:224C DLen: 8 STAGE: Dictionaries)
: >MONO
 113 [STARFLT:8D66] ; 

( @8D89-8DEE XT:8D8B CFA:8D8B DLen: 99 STAGE: Words)
CODE [STARFLT:8D8B]
(Address @8D8B
   8D8B 56                   PUSH       SI
   8D8C 57                   PUSH       DI
   8D8D 8B 3E 4A 58          MOV        DI, WORD PTR [584Ah]             ; MONITOR
   8D91 83 FF 04             CMP        DI, 4
   8D94 75 05                JNZ        8D9Bh                            ; .STARFLT_8D9B
   8D96 E8 0D FF             CALL       8CA6h                            ; >HGRAPH
   8D99 EB 4C                JMP        8DE7h                            ; .STARFLT_8DE7
 .STARFLT_8D9B:
   8D9B 8B 06 A3 5D          MOV        AX, WORD PTR [5DA3h]             ; ?EGA
   8D9F A9 FF 00             TEST       AX, 00FFh
   8DA2 74 11                JZ         8DB5h                            ; .STARFLT_8DB5
   8DA4 E8 44 FF             CALL       8CEBh                            ; [STARFLT:8CEB]
   8DA7 BA CE 03             MOV        DX, 03CEh
   8DAA B0 01                MOV        AL, 1
   8DAC B4 0F                MOV        SPL, 15
   8DAE EE                   OUT        DX, AL
   8DAF 42                   INC        DX
   8DB0 86 C4                XCHG       AH, AL
   8DB2 EE                   OUT        DX, AL
   8DB3 EB 32                JMP        8DE7h                            ; .STARFLT_8DE7
 .STARFLT_8DB5:
   8DB5 BA D4 03             MOV        DX, 03D4h
   8DB8 BE 5C 8C             MOV        SI, 8C5Ch                        ; GIBM
   8DBB E8 83 FE             CALL       8C41h                            ; SET6845
   8DBE 83 3E EC 84 01       CMP        WORD PTR [84ECh], 1
   8DC3 75 05                JNZ        8DCAh                            ; .STARFLT_8DCA
   8DC5 E8 80 FF             CALL       8D48h                            ; >TANDY
   8DC8 EB 03                JMP        8DCDh                            ; .STARFLT_8DCD
 .STARFLT_8DCA:
   8DCA BB 27 1A             MOV        BX, 1A27h
 .STARFLT_8DCD:
   8DCD BA D8 03             MOV        DX, 03D8h
   8DD0 83 FF 01             CMP        DI, 1
   8DD3 75 03                JNZ        8DD8h                            ; .STARFLT_8DD8
   8DD5 BB 27 1E             MOV        BX, 1E27h
 .STARFLT_8DD8:
   8DD8 83 FF 02             CMP        DI, 2
   8DDB 75 03                JNZ        8DE0h                            ; .STARFLT_8DE0
   8DDD BB 20 2A             MOV        BX, 2A20h
 .STARFLT_8DE0:
   8DE0 8A C7                MOV        AL, BH
   8DE2 EE                   OUT        DX, AL
   8DE3 42                   INC        DX
   8DE4 8A C3                MOV        AL, BL
   8DE6 EE                   OUT        DX, AL
 .STARFLT_8DE7:
 .STARFLT_8DE7:
   8DE7 5F                   POP        DI
   8DE8 5E                   POP        SI
   8DE9 AD                   LODSW      
   8DEA 8B D8                MOV        BX, AX
   8DEC FF 27                JMP        WORD PTR [BX]
) CODE-END

( @8DEE-8E0C XT:8DF0 CFA:8DF0 DLen: 28 STAGE: Words)
CODE [STARFLT:8DF0]
(Address @8DF0
   8DF0 56                   PUSH       SI
   8DF1 57                   PUSH       DI
   8DF2 8B 3E 4A 58          MOV        DI, WORD PTR [584Ah]             ; MONITOR
   8DF6 83 FF 04             CMP        DI, 4
   8DF9 75 05                JNZ        8E00h                            ; .STARFLT_8E00
   8DFB E8 CF FE             CALL       8CCDh                            ; >HTEXT
   8DFE EB 05                JMP        8E05h                            ; .STARFLT_8E05
 .STARFLT_8E00:
   8E00 B8 02 00             MOV        AX, 2
   8E03 CD 10                INT        10h
 .STARFLT_8E05:
   8E05 5F                   POP        DI
   8E06 5E                   POP        SI
   8E07 AD                   LODSW      
   8E08 8B D8                MOV        BX, AX
   8E0A FF 27                JMP        WORD PTR [BX]
) CODE-END

( @8E0C-8E1B XT:8E17 CFA:224C DLen: 4 STAGE: Dictionaries)
: >ALPHA
 [STARFLT:8DF0] ; 

( @8E1B-8E26 XT:8E22 CFA:224C DLen: 4 STAGE: Dictionaries)
: >A
 >ALPHA ; 

( @8E26-8E4D XT:8E32 CFA:1D29 DLen: 27 STAGE: Dictionaries)
CREATE COPYLIN_
(Address @8E32
   8E32 B0 05                MOV        AL, 5
   8E34 B4 01                MOV        SPL, 1
   8E36 BA CE 03             MOV        DX, 03CEh
   8E39 EE                   OUT        DX, AL
   8E3A 42                   INC        DX
   8E3B 86 C4                XCHG       AH, AL
   8E3D EE                   OUT        DX, AL
   8E3E F3 A4                MOVSB      
   8E40 B0 05                MOV        AL, 5
   8E42 B4 00                MOV        SPL, 0
   8E44 BA CE 03             MOV        DX, 03CEh
   8E47 EE                   OUT        DX, AL
   8E48 42                   INC        DX
   8E49 86 C4                XCHG       AH, AL
   8E4B EE                   OUT        DX, AL
   8E4C C3                   RET        
) CODE-END

( @8E4D-8E6E XT:8E4F CFA:8E4F DLen: 31 STAGE: Words)
CODE [STARFLT:8E4F]
(Address @8E4F
   8E4F 5B                   POP        BX
   8E50 5A                   POP        DX
   8E51 59                   POP        CX
   8E52 58                   POP        AX
   8E53 1E                   PUSH       DS
   8E54 56                   PUSH       SI
   8E55 06                   PUSH       ES
   8E56 57                   PUSH       DI
   8E57 8B FB                MOV        DI, BX
   8E59 8E C2                MOV        ES, DX
   8E5B 8B F1                MOV        SI, CX
   8E5D 8E D8                MOV        DS, AX
   8E5F B9 00 20             MOV        CX, 2000h
   8E62 E8 CD FF             CALL       8E32h                            ; COPYLIN_
   8E65 5F                   POP        DI
   8E66 07                   POP        ES
   8E67 5E                   POP        SI
   8E68 1F                   POP        DS
   8E69 AD                   LODSW      
   8E6A 8B D8                MOV        BX, AX
   8E6C FF 27                JMP        WORD PTR [BX]
) CODE-END

( @8E6E-8E7C XT:8E70 CFA:224C DLen: 12 STAGE: Words)
: [STARFLT:8E70]
 DBUF-SE_ @ SWAP [STARFLT:8AA2] @ ; 

( @8E7C-8EDC XT:8E88 CFA:224C DLen: 84 STAGE: Dictionaries)
: |DISPLA_
 ?EGA @ IF 
  DBUF-SE_ @ SWAP 0= IF 
   SWAP 
  THEN 
  0 SWAP 0 [STARFLT:8E4F] 
 ELSE 
  >R $00C8 0 DO 
   I [STARFLT:8E70] 3 PICK I 80 * J IF 
    2SWAP 
   THEN 
   80 LCMOVE 
  LOOP 
  R> 2DROP 
 THEN 
 ; 

( @8EDC-8EF3 XT:8EE7 CFA:224C DLen: 12 STAGE: Dictionaries)
: >LORES
 DISPLAY_____ [STARFLT:8D8B] MONITOR @ COLORCA__ ; 

( @8EF3-8F09 XT:8EFF CFA:224C DLen: 10 STAGE: Dictionaries)
: SAVE-SC_
 HBUF-SE_ @ 0 |DISPLA_ ; 

( @8F09-8F3B XT:8F15 CFA:224C DLen: 38 STAGE: Dictionaries)
: SCR-RES____
 ?EGA @ IF 
  HBUF-SE_ @ 0 DBUF-SE_ @ OVER DISPLAY_____ [STARFLT:8E4F] 
 ELSE 
  HBUF-SE_ @ 1 |DISPLA_ 
 THEN 
 ; 

( @8F3B-8F81 XT:8F3D CFA:1D29 DLen: 68 STAGE: Words)
CREATE [STARFLT:8F3D]
(Address @8F3D
   8F3D 06                   PUSH       ES
   8F3E 57                   PUSH       DI
   8F3F B4 0F                MOV        SPL, 15
   8F41 BA C4 03             MOV        DX, 03C4h
   8F44 B0 02                MOV        AL, 2
   8F46 EE                   OUT        DX, AL
   8F47 42                   INC        DX
   8F48 86 C4                XCHG       AH, AL
   8F4A EE                   OUT        DX, AL
   8F4B BA CE 03             MOV        DX, 03CEh
   8F4E B0 01                MOV        AL, 1
   8F50 B4 0F                MOV        SPL, 15
   8F52 EE                   OUT        DX, AL
   8F53 42                   INC        DX
   8F54 86 C4                XCHG       AH, AL
   8F56 EE                   OUT        DX, AL
   8F57 BA CE 03             MOV        DX, 03CEh
   8F5A 8A 26 F2 55          MOV        AH, BYTE PTR [55F2h]             ; COLOR
   8F5E B0 00                MOV        AL, 0
   8F60 EE                   OUT        DX, AL
   8F61 42                   INC        DX
   8F62 86 C4                XCHG       AH, AL
   8F64 EE                   OUT        DX, AL
   8F65 4A                   DEC        DX
   8F66 B4 FF                MOV        SPL, -1
   8F68 B0 08                MOV        AL, 8
   8F6A EE                   OUT        DX, AL
   8F6B 42                   INC        DX
   8F6C 86 C4                XCHG       AH, AL
   8F6E EE                   OUT        DX, AL
   8F6F 8B 06 48 56          MOV        AX, WORD PTR [5648h]             ; BUF-SEG
   8F73 8E C0                MOV        ES, AX
   8F75 BF 00 00             MOV        DI, 0
   8F78 8B 0E 56 56          MOV        CX, WORD PTR [5656h]             ; BUF-CNT
   8F7C F3 AA                STOSB      
   8F7E 5F                   POP        DI
   8F7F 07                   POP        ES
   8F80 C3                   RET        
) CODE-END

( @8F81-8FB8 XT:8F8B CFA:8F8B DLen: 45 STAGE: Dictionaries)
CODE BFILL
(Address @8F8B
   8F8B 8B 06 A3 5D          MOV        AX, WORD PTR [5DA3h]             ; ?EGA
   8F8F A9 FF 00             TEST       AX, 00FFh
   8F92 74 05                JZ         8F99h                            ; .STARFLT_8F99
   8F94 E8 A6 FF             CALL       8F3Dh                            ; [STARFLT:8F3D]
   8F97 EB 1A                JMP        8FB3h                            ; .STARFLT_8FB3
 .STARFLT_8F99:
   8F99 57                   PUSH       DI
   8F9A 8B 06 F2 55          MOV        AX, WORD PTR [55F2h]             ; COLOR
   8F9E 8A E0                MOV        AH, AL
   8FA0 06                   PUSH       ES
   8FA1 8B 0E 48 56          MOV        CX, WORD PTR [5648h]             ; BUF-SEG
   8FA5 8E C1                MOV        ES, CX
   8FA7 8B 0E 56 56          MOV        CX, WORD PTR [5656h]             ; BUF-CNT
   8FAB D1 E9                SHR        CX, 1
   8FAD 33 FF                XOR        DI, DI
   8FAF F3 AB                STOSW      
   8FB1 07                   POP        ES
   8FB2 5F                   POP        DI
 .STARFLT_8FB3:
   8FB3 AD                   LODSW      
   8FB4 8B D8                MOV        BX, AX
   8FB6 FF 27                JMP        WORD PTR [BX]
) CODE-END

( @8FB8-8FD1 XT:8FC1 CFA:224C DLen: 16 STAGE: Dictionaries)
: DARK
 @COLOR BLACK COLOR ! BFILL COLOR ! ; 

( @8FD1-8FED XT:8FD9 CFA:224C DLen: 20 STAGE: Dictionaries)
: BYE
 >ALPHA BEEPOFF ?HERCUL__ IF 
  >DISPLA_ DARK PAGE 
 THEN 
 BYE ; 

( Data @8FED-8FF8 XT:8FF7 CFA:1D29 DLen: 1 STAGE: Dictionaries)
CREATE DUMMY 1 ALLOT ( @8FF7 =
@8FF7 CB                                                .               
 )

( @8FF8-900C XT:9002 CFA:9002 DLen: 10 STAGE: Dictionaries)
CODE LPLOT
(Address @9002
   9002 9A 9D 02 16 8C       CALL FAR   8C16:029D
   9007 AD                   LODSW      
   9008 8B D8                MOV        BX, AX
   900A FF 27                JMP        WORD PTR [BX]
) CODE-END

( @900C-9021 XT:9017 CFA:9017 DLen: 10 STAGE: Dictionaries)
CODE LXPLOT
(Address @9017
   9017 9A EC 02 16 8C       CALL FAR   8C16:02EC
   901C AD                   LODSW      
   901D 8B D8                MOV        BX, AX
   901F FF 27                JMP        WORD PTR [BX]
) CODE-END

( @9021-9035 XT:902B CFA:902B DLen: 10 STAGE: Dictionaries)
CODE {BLT}
(Address @902B
   902B 9A 0D 02 16 8C       CALL FAR   8C16:020D
   9030 AD                   LODSW      
   9031 8B D8                MOV        BX, AX
   9033 FF 27                JMP        WORD PTR [BX]
) CODE-END

( @9035-9049 XT:903F CFA:903F DLen: 10 STAGE: Dictionaries)
CODE LLINE
(Address @903F
   903F 9A 36 03 16 8C       CALL FAR   8C16:0336
   9044 AD                   LODSW      
   9045 8B D8                MOV        BX, AX
   9047 FF 27                JMP        WORD PTR [BX]
) CODE-END

( @9049-905F XT:9055 CFA:9055 DLen: 10 STAGE: Dictionaries)
CODE LFILLPO__
(Address @9055
   9055 9A 1B 04 16 8C       CALL FAR   8C16:041B
   905A AD                   LODSW      
   905B 8B D8                MOV        BX, AX
   905D FF 27                JMP        WORD PTR [BX]
) CODE-END

( @905F-9075 XT:906B CFA:906B DLen: 10 STAGE: Dictionaries)
CODE LCOPYBL_
(Address @906B
   906B 9A C1 05 16 8C       CALL FAR   8C16:05C1
   9070 AD                   LODSW      
   9071 8B D8                MOV        BX, AX
   9073 FF 27                JMP        WORD PTR [BX]
) CODE-END

( @9075-908B XT:9081 CFA:9081 DLen: 10 STAGE: Dictionaries)
CODE TILEFIL_
(Address @9081
   9081 9A 35 06 16 8C       CALL FAR   8C16:0635
   9086 AD                   LODSW      
   9087 8B D8                MOV        BX, AX
   9089 FF 27                JMP        WORD PTR [BX]
) CODE-END

( @908B-90A1 XT:9097 CFA:9097 DLen: 10 STAGE: Dictionaries)
CODE SQLPLOT
(Address @9097
   9097 9A AA 06 16 8C       CALL FAR   8C16:06AA
   909C AD                   LODSW      
   909D 8B D8                MOV        BX, AX
   909F FF 27                JMP        WORD PTR [BX]
) CODE-END

( @90A1-90B7 XT:90AD CFA:90AD DLen: 10 STAGE: Dictionaries)
CODE V>DISPL__
(Address @90AD
   90AD 9A 52 00 16 8C       CALL FAR   8C16:0052
   90B2 AD                   LODSW      
   90B3 8B D8                MOV        BX, AX
   90B5 FF 27                JMP        WORD PTR [BX]
) CODE-END

( @90B7-90CD XT:90C3 CFA:90C3 DLen: 10 STAGE: Dictionaries)
CODE EEXTENT
(Address @90C3
   90C3 9A FE 08 16 8C       CALL FAR   8C16:08FE
   90C8 AD                   LODSW      
   90C9 8B D8                MOV        BX, AX
   90CB FF 27                JMP        WORD PTR [BX]
) CODE-END

( Data @90CD-90DF XT:90D9 CFA:1D29 DLen: 6 STAGE: Dictionaries)
CREATE {.ELLIP_ 6 ALLOT ( @90D9 =
@90D9 9A E5 08 16 8C C3                                 ......          
 )

( Data @90DF-90F1 XT:90EB CFA:1D29 DLen: 6 STAGE: Dictionaries)
CREATE {SCANEL____ 6 ALLOT ( @90EB =
@90EB 9A CB 08 16 8C C3                                 ......          
 )

( @90F1-9103 XT:90F9 CFA:90F9 DLen: 10 STAGE: Dictionaries)
CODE ARC
(Address @90F9
   90F9 9A 89 07 16 8C       CALL FAR   8C16:0789
   90FE AD                   LODSW      
   90FF 8B D8                MOV        BX, AX
   9101 FF 27                JMP        WORD PTR [BX]
) CODE-END

( @9103-9119 XT:910F CFA:910F DLen: 10 STAGE: Dictionaries)
CODE L@PIXEL
(Address @910F
   910F 9A F4 00 16 8C       CALL FAR   8C16:00F4
   9114 AD                   LODSW      
   9115 8B D8                MOV        BX, AX
   9117 FF 27                JMP        WORD PTR [BX]
) CODE-END

( @9119-912B XT:9125 CFA:1D29 DLen: 6 STAGE: Dictionaries)
CREATE (FVLINE_
(Address @9125
   9125 9A 20 20 16 8C       CALL FAR   8C16:2020
   912A C3                   RET        
) CODE-END

( Data @912B-9155 XT:9137 CFA:1D29 DLen: 30 STAGE: Dictionaries)
CREATE EGA-OFF____ 30 ALLOT ( @9137 =
@9137 05 41 4C 4C 4F 54 20 6F 66 66 73 65 74 73 20 20   .ALLOT offsets  
@9147 20 20 20 20 20 20 20 20 5C 20 47 52 43 4F                 \ GRCO  
 )

( Data @9155-917F XT:9161 CFA:1D29 DLen: 30 STAGE: Dictionaries)
CREATE CGA-OFF____ 30 ALLOT ( @9161 =
@9161 9D 02 EC 02 0D 02 36 03 1B 04 C1 05 35 06 AA 06   ......6.....5...
@9171 52 00 FE 08 E5 08 CB 08 89 07 F4 00 20 20         R...........    
 )

( @917F-91E9 XT:918B CFA:224C DLen: 94 STAGE: Dictionaries)
: DEF-SEG
 ' LPLOT ( $9002 ) ' LXPLOT ( $9017 ) ' {BLT} ( $902B ) ' LLINE ( $903F ) ' LFILLPO__ ( $9055 ) 
 ' LCOPYBL_ ( $906B ) ' TILEFIL_ ( $9081 ) ' SQLPLOT ( $9097 ) ' V>DISPL__ ( $90AD ) 
 ' EEXTENT ( $90C3 ) ' {.ELLIP_ ( $90D9 ) ' {SCANEL____ ( $90EB ) ' ARC ( $90F9 ) 
 ' L@PIXEL ( $910F ) ' (FVLINE_ ( $9125 ) REMSEG @ 30 0 DO 
  SWAP OVER SWAP 3 + ! 2 
 +LOOP 
 DROP ; 

( @91E9-9249 XT:91EB CFA:224C DLen: 94 STAGE: Words)
: [STARFLT:91EB]
 >R ' LPLOT ( $9002 ) ' LXPLOT ( $9017 ) ' {BLT} ( $902B ) ' LLINE ( $903F ) ' LFILLPO__ ( $9055 ) 
 ' LCOPYBL_ ( $906B ) ' TILEFIL_ ( $9081 ) ' SQLPLOT ( $9097 ) ' V>DISPL__ ( $90AD ) 
 ' EEXTENT ( $90C3 ) ' {.ELLIP_ ( $90D9 ) ' {SCANEL____ ( $90EB ) ' ARC ( $90F9 ) 
 ' L@PIXEL ( $910F ) ' (FVLINE_ ( $9125 ) R> 0 28 DO 
  DUP I +@ ROT 1+ ! -2 
 +LOOP 
 DROP ; 

( @9249-9269 XT:9255 CFA:224C DLen: 20 STAGE: Dictionaries)
: DEF-OFF
 ?EGA @ IF 
  EGA-OFF____ 
 ELSE 
  CGA-OFF____ 
 THEN 
 [STARFLT:91EB] ; 

( @9269-9295 XT:9275 CFA:224C DLen: 32 STAGE: Dictionaries)
: DO-PATC___
 REMSEG @ 0 @DS ?EGA @ IF 
  EGA-OFF____ 
 ELSE 
  CGA-OFF____ 
 THEN 
 30 LCMOVE ; 

( @9295-92C3 XT:92A1 CFA:224C DLen: 34 STAGE: Dictionaries)
: LOAD-CO__
 REMSEG @ ?EGA @ IF 
  $0091 
 ELSE 
  $0090 
 THEN 
 FILE< DO-PATC___ DEF-SEG DEF-OFF ; 

( Data @92C3-92D7 XT:92CF CFA:1D29 DLen: 8 STAGE: Dictionaries)
CREATE EGA-BIT_ 8 ALLOT ( @92CF =
@92CF C0 00 30 00 0C 00 03 00                           ..0.....        
 )

( Data:Variable @92D7-92E5 XT:92E3 CFA:1D29 DLen: 2 STAGE: Dictionaries)
VARIABLE CGA-BIT_ ( @92E3=$0FF0)

( @92E5-9300 XT:92EF CFA:92EF DLen: 17 STAGE: Dictionaries)
CODE S/RON
(Address @92EF
   92EF BA CE 03             MOV        DX, 03CEh
   92F2 B0 01                MOV        AL, 1
   92F4 B4 0F                MOV        SPL, 15
   92F6 EE                   OUT        DX, AL
   92F7 42                   INC        DX
   92F8 86 C4                XCHG       AH, AL
   92FA EE                   OUT        DX, AL
   92FB AD                   LODSW      
   92FC 8B D8                MOV        BX, AX
   92FE FF 27                JMP        WORD PTR [BX]
) CODE-END

( @9300-935E XT:930B CFA:1D29 DLen: 83 STAGE: Dictionaries)
CREATE (PLOT)
(Address @930B
   930B 8F 06 63 56          POP        WORD PTR [5663h]                 ; RETURN
   930F 5A                   POP        DX
   9310 58                   POP        AX
   9311 D1 E2                SHL        DX, 1
   9313 03 16 3A 56          ADD        DX, WORD PTR [563Ah]             ; YTABL
   9317 52                   PUSH       DX
   9318 50                   PUSH       AX
   9319 25 03 00             AND        AX, 3
   931C D1 E0                SHL        AX, 1
   931E BB CF 92             MOV        BX, 92CFh                        ; EGA-BIT_
   9321 03 D8                ADD        BX, AX
   9323 8B 17                MOV        DX, WORD PTR [BX]
   9325 58                   POP        AX
   9326 D1 E8                SHR        AX, 1
   9328 D1 E8                SHR        AX, 1
   932A 5B                   POP        BX
   932B 03 07                ADD        AX, WORD PTR [BX]
   932D 8B D8                MOV        BX, AX
   932F 06                   PUSH       ES
   9330 8B 0E 48 56          MOV        CX, WORD PTR [5648h]             ; BUF-SEG
   9334 8E C1                MOV        ES, CX
   9336 8B C2                MOV        AX, DX
   9338 86 C4                XCHG       AH, AL
   933A BA CE 03             MOV        DX, 03CEh
   933D B0 08                MOV        AL, 8
   933F EE                   OUT        DX, AL
   9340 42                   INC        DX
   9341 86 C4                XCHG       AH, AL
   9343 EE                   OUT        DX, AL
   9344 BA CE 03             MOV        DX, 03CEh
   9347 8A 26 F2 55          MOV        AH, BYTE PTR [55F2h]             ; COLOR
   934B B0 00                MOV        AL, 0
   934D EE                   OUT        DX, AL
   934E 42                   INC        DX
   934F 86 C4                XCHG       AH, AL
   9351 EE                   OUT        DX, AL
   9352 26 8A 07             MOV        AL, BYTE PTR [ES:BX]
   9355 26 88 07             MOV        BYTE PTR [ES:BX], AL
   9358 07                   POP        ES
   9359 FF 36 63 56          PUSH       WORD PTR [5663h]                 ; RETURN
   935D C3                   RET        
) CODE-END

( @935E-936F XT:9367 CFA:9367 DLen: 8 STAGE: Dictionaries)
CODE PLOT
(Address @9367
   9367 E8 A1 FF             CALL       930Bh                            ; (PLOT)
   936A AD                   LODSW      
   936B 8B D8                MOV        BX, AX
   936D FF 27                JMP        WORD PTR [BX]
) CODE-END

( @936F-938E XT:937B CFA:937B DLen: 19 STAGE: Dictionaries)
CODE SETCOLO_
(Address @937B
   937B BA CE 03             MOV        DX, 03CEh
   937E 8A 26 F2 55          MOV        AH, BYTE PTR [55F2h]             ; COLOR
   9382 B0 00                MOV        AL, 0
   9384 EE                   OUT        DX, AL
   9385 42                   INC        DX
   9386 86 C4                XCHG       AH, AL
   9388 EE                   OUT        DX, AL
   9389 AD                   LODSW      
   938A 8B D8                MOV        BX, AX
   938C FF 27                JMP        WORD PTR [BX]
) CODE-END

( @938E-93AF XT:9390 CFA:9390 DLen: 31 STAGE: Words)
CODE [STARFLT:9390]
(Address @9390
   9390 8B 1E 9B 56          MOV        BX, WORD PTR [569Bh]             ; VIN
   9394 B9 04 00             MOV        CX, 4
 .STARFLT_9397:
   9397 8F 07                POP        WORD PTR [BX]
   9399 83 C3 02             ADD        BX, 2
   939C E2 F9                LOOP       9397h                            ; .STARFLT_9397
   939E BB 02 00             MOV        BX, 2
   93A1 89 1E 86 56          MOV        WORD PTR [5686h], BX             ; #IN
   93A5 57                   PUSH       DI
   93A6 E8 8F F1             CALL       8538h                            ; [STARFLT:8538]
   93A9 5F                   POP        DI
   93AA AD                   LODSW      
   93AB 8B D8                MOV        BX, AX
   93AD FF 27                JMP        WORD PTR [BX]
) CODE-END

( @93AF-93D2 XT:93B1 CFA:93B1 DLen: 33 STAGE: Words)
CODE [STARFLT:93B1]
(Address @93B1
   93B1 FF 36 6E 58          PUSH       WORD PTR [586Eh]                 ; XBLT
   93B5 8B 06 63 58          MOV        AX, WORD PTR [5863h]             ; YBLT
   93B9 2B 06 87 58          SUB        AX, WORD PTR [5887h]             ; LBLT
   93BD 40                   INC        AX
   93BE 50                   PUSH       AX
   93BF 8B 06 6E 58          MOV        AX, WORD PTR [586Eh]             ; XBLT
   93C3 03 06 92 58          ADD        AX, WORD PTR [5892h]             ; WBLT
   93C7 48                   DEC        AX
   93C8 50                   PUSH       AX
   93C9 FF 36 63 58          PUSH       WORD PTR [5863h]                 ; YBLT
   93CD AD                   LODSW      
   93CE 8B D8                MOV        BX, AX
   93D0 FF 27                JMP        WORD PTR [BX]
) CODE-END

( @93D2-93F8 XT:93DA CFA:224C DLen: 30 STAGE: Dictionaries)
: BLT
 [STARFLT:69B4] VIN ! [STARFLT:69F6] OIN ! [STARFLT:93B1] [STARFLT:9390] TRJCT @ 
 0= IF 
  {BLT} 
 THEN 
 ; 

( @93F8-945E XT:93FA CFA:224C DLen: 100 STAGE: Words)
: _(1font)
 BLTSEG @ >R FONTSEG @ BLTSEG ! 5 LBLT ! DUP 91 < IF 
  32 - 2* _1Font3Offset + ABLT ! 3 WBLT ! 4 
 ELSE 
  91 - 2* 2* _1Font5Offset + ABLT ! 5 WBLT ! 6 
 THEN 
 BLT XBLT +! R> BLTSEG ! ; 

( @945E-9478 XT:9460 CFA:224C DLen: 24 STAGE: Words)
: _(upper_type)
 2DUP >UPPERCASE 0 DO 
  DUP C@ EMIT 1+ 
 LOOP 
 DROP ; 

( @9478-9499 XT:9483 CFA:224C DLen: 22 STAGE: Dictionaries)
: >1FONT
 ' _(1font) ( $93FA ) ' EMIT ( $066D ) EXECUTES ' _(upper_type) ( $9460 ) ' TYPE ( $06E8 ) 
 EXECUTES ; 

( @9499-94C4 XT:94A4 CFA:224C DLen: 32 STAGE: Dictionaries)
: >0FONT
 ' (EMIT) ( $2731 ) ' EMIT ( $066D ) EXECUTES ' (TYPE) ( $2690 ) ' TYPE ( $06E8 ) 
 EXECUTES ' (CR) ( $26EE ) ' CR ( $0644 ) EXECUTES ; 

( @94C4-951C XT:94D0 CFA:224C DLen: 76 STAGE: Dictionaries)
: {2FONT}
 BLTSEG @ >R FONTSEG @ BLTSEG ! 7 LBLT ! 32 - FONTSEG @ OVER _FontWidthOfset + LC@ 
 WBLT ! 6 * _2FontOffset + ABLT ! DISPLAY_____ BLT WBLT @ 1+ XBLT +! R> BLTSEG ! 
 ; 

( @951C-953D XT:9527 CFA:224C DLen: 22 STAGE: Dictionaries)
: >2FONT
 ' {2FONT} ( $94D0 ) ' EMIT ( $066D ) EXECUTES ' _(upper_type) ( $9460 ) ' TYPE ( $06E8 ) 
 EXECUTES ; 

( @953D-9591 XT:953F CFA:224C DLen: 82 STAGE: Words)
: _(3font)
 BLTSEG @ >R FONTSEG @ BLTSEG ! 9 LBLT ! 32 - FONTSEG @ OVER _FontWidthOfset + LC@ 
 WBLT ! 33 - 8 * _3FontOffset + ABLT ! DISPLAY_____ BLT WBLT @ 1+ XBLT +! R> BLTSEG 
 ! ; 

( @9591-95B2 XT:959C CFA:224C DLen: 22 STAGE: Dictionaries)
: >3FONT
 ' _(3font) ( $953F ) ' EMIT ( $066D ) EXECUTES ' _(upper_type) ( $9460 ) ' TYPE ( $06E8 ) 
 EXECUTES ; 

( @95B2-95CA XT:95BE CFA:95BE DLen: 12 STAGE: Dictionaries)
CODE SHL-BIT
(Address @95BE
   95BE 58                   POP        AX
   95BF 59                   POP        CX
   95C0 D1 E8                SHR        AX, 1
   95C2 D1 D1                RCL        CX, 1
   95C4 51                   PUSH       CX
   95C5 AD                   LODSW      
   95C6 8B D8                MOV        BX, AX
   95C8 FF 27                JMP        WORD PTR [BX]
) CODE-END

( @95CA-9602 XT:95D6 CFA:224C DLen: 44 STAGE: Dictionaries)
: BLK>BUF___
 16 0 DO 
  @DS OVER I + BLOCK BUF-SEG @ I $0400 * $0400 LCMOVE 
 LOOP 
 DROP ; 

( @9602-9626 XT:9604 CFA:224C DLen: 34 STAGE: Words)
: [STARFLT:9604]
 XDENOM ! XNUMER ! ERAD ! EY ! EX ! [STARFLT:69B4] VIN ! [STARFLT:69F6] OIN ! ; 

( @9626-9652 XT:9632 CFA:224C DLen: 32 STAGE: Dictionaries)
: .ELLIPS_
 [STARFLT:9604] EEXTENT [STARFLT:9390] TRJCT @ 0= IF 
  ' {.ELLIP_ ( $90D9 ) 1+ @ <ARC1> ! ARC 
 THEN 
 ; 

( @9652-9668 XT:965E CFA:224C DLen: 10 STAGE: Dictionaries)
: .CIRCLE
 9 15 .ELLIPS_ ; 

( @9668-96BE XT:9674 CFA:224C DLen: 74 STAGE: Dictionaries)
: FILLELL__
 [STARFLT:9604] EEXTENT [STARFLT:9390] TRJCT @ 0= IF 
  EY @ ERAD @ + IABOVE @ MIN YMAX ! EY @ ERAD @ - IBELOW @ MAX YMIN ! ' {SCANEL____ ( $90EB ) 
  1+ @ <ARC1> ! ARC LFILLPO__ 
 THEN 
 ; 

( @96BE-96D4 XT:96CA CFA:224C DLen: 10 STAGE: Dictionaries)
: FILLCIR_
 9 15 FILLELL__ ; 

( @96D4-96F2 XT:96D6 CFA:224C DLen: 28 STAGE: Words)
: [STARFLT:96D6]
 LBLT @ WBLT @ * 15 + 16/ 2* 1+ LFRAME ! ; 

( @96F2-976C XT:96FE CFA:224C DLen: 110 STAGE: Dictionaries)
: .PACKBL_
 YBLT ! XBLT ! BLTSEG ! BLTSEG @ >R I 0 LC@ DUP LBLT ! 2/ YBLT +! I 1 LC@ DUP WBLT 
 ! 2/ NEGATE XBLT +! [STARFLT:96D6] R> 2 LC@ 0 DO 
  I LFRAME @ * 3 + DUP BLTSEG @ SWAP LC@ ?>EGA COLOR ! 1+ ABLT ! BLT 
 LOOP 
 ; 

( @976C-97C0 XT:9778 CFA:224C DLen: 72 STAGE: Dictionaries)
: SET-COL_____
 MONITOR @ 1- ?DUP 0= NOT ?HERCUL__ NOT AND IF 
  ?EGA @ IF 
   DROP 3 
  THEN 
  1- 5 * #CLRMAP @ 1- + 
 ELSE 
  3 
 THEN 
 116 SWAP @RECORD CMAP 64 CMOVE ; 

( @97C0-97F9 XT:97CC CFA:97CC DLen: 45 STAGE: Dictionaries)
CODE COLORMA_
(Address @97CC
   97CC 5B                   POP        BX
   97CD 0B DB                OR         BX, BX
   97CF 79 05                JNS        97D6h                            ; .STARFLT_97D6
   97D1 BB 00 00             MOV        BX, 0
   97D4 EB 05                JMP        97DBh                            ; .STARFLT_97DB
 .STARFLT_97D6:
   97D6 D1 EB                SHR        BX, 1
   97D8 83 E3 38             AND        BX, 56
 .STARFLT_97DB:
   97DB 81 C3 3F 6A          ADD        BX, 6A3Fh                        ; CMAP
   97DF 89 1E CD 58          MOV        WORD PTR [58CDh], BX             ; TILE-PT_
   97E3 33 C0                XOR        AX, AX
   97E5 8A 07                MOV        AL, BYTE PTR [BX]
   97E7 89 06 F2 55          MOV        WORD PTR [55F2h], AX             ; COLOR
   97EB 83 C3 02             ADD        BX, 2
   97EE 8A 07                MOV        AL, BYTE PTR [BX]
   97F0 89 06 FF 55          MOV        WORD PTR [55FFh], AX             ; DCOLOR
   97F4 AD                   LODSW      
   97F5 8B D8                MOV        BX, AX
   97F7 FF 27                JMP        WORD PTR [BX]
) CODE-END

( @97F9-980D XT:9805 CFA:224C DLen: 8 STAGE: Dictionaries)
: CELLCOL__
 ACELLAD__ A@ COLORMA_ ; 

( @980D-9835 XT:9819 CFA:224C DLen: 28 STAGE: Dictionaries)
: !XYSEED
 SEED ! FRND SWAP SEED ! FRND GLOBALSeed @ XOR XOR SEED ! ; 

( @9835-986C XT:9841 CFA:9841 DLen: 43 STAGE: Dictionaries)
CODE BUFFERX_
(Address @9841
   9841 59                   POP        CX
   9842 58                   POP        AX
   9843 5A                   POP        DX
   9844 5B                   POP        BX
   9845 2B 16 53 4E          SUB        DX, WORD PTR [4E53h]             ; YLL
   9849 42                   INC        DX
   984A 0B C9                OR         CX, CX
   984C 74 02                JZ         9850h                            ; .STARFLT_9850
   984E D3 E2                SHL        DX, CL
 .STARFLT_9850:
   9850 03 16 6B 59          ADD        DX, WORD PTR [596Bh]             ; YLLDEST
   9854 4A                   DEC        DX
   9855 2B 1E 49 4E          SUB        BX, WORD PTR [4E49h]             ; XLL
   9859 8B C8                MOV        CX, AX
   985B 0B C9                OR         CX, CX
   985D 74 02                JZ         9861h                            ; .STARFLT_9861
   985F D3 E3                SHL        BX, CL
 .STARFLT_9861:
   9861 03 1E 5D 59          ADD        BX, WORD PTR [595Dh]             ; XLLDEST
   9865 53                   PUSH       BX
   9866 52                   PUSH       DX
   9867 AD                   LODSW      
   9868 8B D8                MOV        BX, AX
   986A FF 27                JMP        WORD PTR [BX]
) CODE-END

( @986C-9874 XT:986E CFA:224C DLen: 6 STAGE: Words)
: [STARFLT:986E]
 '.CELL @EXECUTE ; 

( @9874-988E XT:9880 CFA:224C DLen: 14 STAGE: Dictionaries)
: .1X2CEL_
 2DUP CELLCOL__ 0 1 BUFFERX_ SQLPLOT ; 

( @988E-98B2 XT:989A CFA:224C DLen: 24 STAGE: Dictionaries)
: .2X2CEL_
 2DUP CELLCOL__ 1 1 BUFFERX_ 2DUP SQLPLOT SWAP 1+ SWAP SQLPLOT ; 

( @98B2-98D0 XT:98BE CFA:224C DLen: 18 STAGE: Dictionaries)
: .4X4CEL_
 2DUP CELLCOL__ 2 2 BUFFERX_ 4 4 TILEFIL_ ; 

( @98D0-98EE XT:98DC CFA:224C DLen: 18 STAGE: Dictionaries)
: .8X8CEL_
 2DUP CELLCOL__ 3 3 BUFFERX_ 8 8 TILEFIL_ ; 

( @98EE-9922 XT:98FA CFA:224C DLen: 40 STAGE: Dictionaries)
: .REGION
 YUR @ 1+ YLL @ DO 
  XUR @ 1+ XLL @ DO 
   I J [STARFLT:986E] 
  LOOP 
 LOOP 
 ; 

( @9922-9964 XT:992D CFA:992D DLen: 55 STAGE: Dictionaries)
CODE ?INVIS
(Address @992D
   992D 2B C0                SUB        AX, AX
   992F 5A                   POP        DX
   9930 3B 16 31 5B          CMP        DX, WORD PTR [5B31h]             ; BVIS
   9934 79 03                JNS        9939h                            ; .STARFLT_9939
   9936 0D 04 00             OR         AX, 4
 .STARFLT_9939:
   9939 3B 16 22 5B          CMP        DX, WORD PTR [5B22h]             ; [STARFLT:5B22]
   993D 7E 03                JLE        9942h                            ; .STARFLT_9942
   993F 0D 08 00             OR         AX, 8
 .STARFLT_9942:
   9942 5A                   POP        DX
   9943 3B 16 3C 5B          CMP        DX, WORD PTR [5B3Ch]             ; LVIS
   9947 79 03                JNS        994Ch                            ; .STARFLT_994C
   9949 0D 01 00             OR         AX, 1
 .STARFLT_994C:
   994C 3B 16 26 5B          CMP        DX, WORD PTR [5B26h]             ; [STARFLT:5B26]
   9950 7E 03                JLE        9955h                            ; .STARFLT_9955
   9952 0D 02 00             OR         AX, 2
 .STARFLT_9955:
   9955 0B C0                OR         AX, AX
   9957 75 03                JNZ        995Ch                            ; .STARFLT_995C
   9959 40                   INC        AX
   995A EB 02                JMP        995Eh                            ; .STARFLT_995E
 .STARFLT_995C:
   995C 33 C0                XOR        AX, AX
 .STARFLT_995E:
   995E 50                   PUSH       AX
   995F AD                   LODSW      
   9960 8B D8                MOV        BX, AX
   9962 FF 27                JMP        WORD PTR [BX]
) CODE-END

( @9964-99A8 XT:9970 CFA:9970 DLen: 56 STAGE: Dictionaries)
CODE WLD>SCR
(Address @9970
   9970 58                   POP        AX
   9971 2B 06 31 5B          SUB        AX, WORD PTR [5B31h]             ; BVIS
   9975 8B 0E 21 62          MOV        CX, WORD PTR [6221h]             ; YWLD:YP__
   9979 F7 E9                IMUL       CX
   997B 8B 0E 23 62          MOV        CX, WORD PTR [6223h]             ; YWLD:YP__+2
   997F F7 F9                IDIV       CX
   9981 03 06 6B 59          ADD        AX, WORD PTR [596Bh]             ; YLLDEST
   9985 89 06 C6 48          MOV        WORD PTR [48C6h], AX             ; ZZZ
   9989 58                   POP        AX
   998A 2B 06 3C 5B          SUB        AX, WORD PTR [5B3Ch]             ; LVIS
   998E 8B 0E 11 62          MOV        CX, WORD PTR [6211h]             ; XWLD:XP__
   9992 F7 E9                IMUL       CX
   9994 8B 0E 13 62          MOV        CX, WORD PTR [6213h]             ; XWLD:XP__+2
   9998 F7 F9                IDIV       CX
   999A 03 06 5D 59          ADD        AX, WORD PTR [595Dh]             ; XLLDEST
   999E 50                   PUSH       AX
   999F FF 36 C6 48          PUSH       WORD PTR [48C6h]                 ; ZZZ
   99A3 AD                   LODSW      
   99A4 8B D8                MOV        BX, AX
   99A6 FF 27                JMP        WORD PTR [BX]
) CODE-END

( @99A8-99C8 XT:99B4 CFA:99B4 DLen: 20 STAGE: Dictionaries)
CODE SCR>BLT
(Address @99B4
   99B4 58                   POP        AX
   99B5 05 07 00             ADD        AX, 7
   99B8 2B 06 4E 5A          SUB        AX, WORD PTR [5A4Eh]             ; [STARFLT:5A4E]
   99BC 59                   POP        CX
   99BD 2B 0E 4E 5A          SUB        CX, WORD PTR [5A4Eh]             ; [STARFLT:5A4E]
   99C1 51                   PUSH       CX
   99C2 50                   PUSH       AX
   99C3 AD                   LODSW      
   99C4 8B D8                MOV        BX, AX
   99C6 FF 27                JMP        WORD PTR [BX]
) CODE-END

( @99C8-99E6 XT:99D4 CFA:224C DLen: 18 STAGE: Dictionaries)
: !VISWIN___
 [STARFLT:5B22] ! [STARFLT:5B26] ! BVIS ! LVIS ! ; 

( @99E6-9A0C XT:99E8 CFA:224C DLen: 36 STAGE: Words)
: [STARFLT:99E8]
 64 0 DO 
  @DS OVER I @RECORD 0 I ICONIMA__ 18 LCMOVE 
 LOOP 
 DROP ; 

( @9A0C-9A2A XT:9A18 CFA:224C DLen: 18 STAGE: Dictionaries)
: >1ICONF___
 1 ICONFON_ ! [STARFLT:5A4E] OFF 62 [STARFLT:99E8] ; 

( @9A2A-9A4A XT:9A36 CFA:224C DLen: 20 STAGE: Dictionaries)
: >2ICONF___
 2 ICONFON_ ! 2 [STARFLT:5A4E] ! 63 [STARFLT:99E8] ; 

( @9A4A-9A6A XT:9A56 CFA:224C DLen: 20 STAGE: Dictionaries)
: >3ICONF___
 3 ICONFON_ ! 3 [STARFLT:5A4E] ! 64 [STARFLT:99E8] ; 

( @9A6A-9A80 XT:9A6C CFA:9A6C DLen: 20 STAGE: Words)
CODE [STARFLT:9A6C]
(Address @9A6C
   9A6C 58                   POP        AX
   9A6D 06                   PUSH       ES
   9A6E 8E C0                MOV        ES, AX
   9A70 8B 1E 02 5A          MOV        BX, WORD PTR [5A02h]             ; IINDEX
   9A74 D1 E3                SHL        BX, 1
   9A76 26 8B 07             MOV        AX, WORD PTR [ES:BX]
   9A79 07                   POP        ES
   9A7A 50                   PUSH       AX
   9A7B AD                   LODSW      
   9A7C 8B D8                MOV        BX, AX
   9A7E FF 27                JMP        WORD PTR [BX]
) CODE-END

( @9A80-9A96 XT:9A82 CFA:9A82 DLen: 20 STAGE: Words)
CODE [STARFLT:9A82]
(Address @9A82
   9A82 58                   POP        AX
   9A83 06                   PUSH       ES
   9A84 8E C0                MOV        ES, AX
   9A86 8B 1E 02 5A          MOV        BX, WORD PTR [5A02h]             ; IINDEX
   9A8A 33 C0                XOR        AX, AX
   9A8C 26 8A 07             MOV        AL, BYTE PTR [ES:BX]
   9A8F 07                   POP        ES
   9A90 50                   PUSH       AX
   9A91 AD                   LODSW      
   9A92 8B D8                MOV        BX, AX
   9A94 FF 27                JMP        WORD PTR [BX]
) CODE-END

( @9A96-9AB2 XT:9A9E CFA:9A9E DLen: 20 STAGE: Dictionaries)
CODE !IW
(Address @9A9E
   9A9E 58                   POP        AX
   9A9F 59                   POP        CX
   9AA0 06                   PUSH       ES
   9AA1 8E C0                MOV        ES, AX
   9AA3 8B 1E 02 5A          MOV        BX, WORD PTR [5A02h]             ; IINDEX
   9AA7 D1 E3                SHL        BX, 1
   9AA9 26 89 0F             MOV        WORD PTR [ES:BX], CX
   9AAC 07                   POP        ES
   9AAD AD                   LODSW      
   9AAE 8B D8                MOV        BX, AX
   9AB0 FF 27                JMP        WORD PTR [BX]
) CODE-END

( @9AB2-9ACC XT:9ABA CFA:9ABA DLen: 18 STAGE: Dictionaries)
CODE !IB
(Address @9ABA
   9ABA 58                   POP        AX
   9ABB 59                   POP        CX
   9ABC 06                   PUSH       ES
   9ABD 8E C0                MOV        ES, AX
   9ABF 8B 1E 02 5A          MOV        BX, WORD PTR [5A02h]             ; IINDEX
   9AC3 26 88 0F             MOV        BYTE PTR [ES:BX], CL
   9AC6 07                   POP        ES
   9AC7 AD                   LODSW      
   9AC8 8B D8                MOV        BX, AX
   9ACA FF 27                JMP        WORD PTR [BX]
) CODE-END

( @9ACC-9ADC XT:9AD4 CFA:224C DLen: 8 STAGE: Dictionaries)
: @IX
 [STARFLT:59BE] @ [STARFLT:9A6C] ; 

( @9ADC-9AEC XT:9AE4 CFA:224C DLen: 8 STAGE: Dictionaries)
: @IY
 [STARFLT:59C2] @ [STARFLT:9A6C] ; 

( @9AEC-9AFC XT:9AF4 CFA:224C DLen: 8 STAGE: Dictionaries)
: @ID
 [STARFLT:59C6] @ [STARFLT:9A82] ; 

( @9AFC-9B0C XT:9B04 CFA:224C DLen: 8 STAGE: Dictionaries)
: @IC
 [STARFLT:59CA] @ [STARFLT:9A82] ; 

( @9B0C-9B1C XT:9B14 CFA:224C DLen: 8 STAGE: Dictionaries)
: @IL
 [STARFLT:59CE] @ [STARFLT:9A6C] ; 

( @9B1C-9B2C XT:9B24 CFA:224C DLen: 8 STAGE: Dictionaries)
: @IH
 IHSEG @ [STARFLT:9A82] ; 

( @9B2C-9B3C XT:9B34 CFA:224C DLen: 8 STAGE: Dictionaries)
: !IX
 [STARFLT:59BE] @ !IW ; 

( @9B3C-9B4C XT:9B44 CFA:224C DLen: 8 STAGE: Dictionaries)
: !IY
 [STARFLT:59C2] @ !IW ; 

( @9B4C-9B5C XT:9B54 CFA:224C DLen: 8 STAGE: Dictionaries)
: !ID
 [STARFLT:59C6] @ !IB ; 

( @9B5C-9B6C XT:9B64 CFA:224C DLen: 8 STAGE: Dictionaries)
: !IC
 [STARFLT:59CA] @ !IB ; 

( @9B6C-9B7C XT:9B74 CFA:224C DLen: 8 STAGE: Dictionaries)
: !IL
 [STARFLT:59CE] @ !IW ; 

( @9B7C-9B8C XT:9B84 CFA:224C DLen: 8 STAGE: Dictionaries)
: !IH
 IHSEG @ !IB ; 

( @9B8C-9BA2 XT:9B98 CFA:224C DLen: 10 STAGE: Dictionaries)
: INIT-IC______
 IGLOBAL OFF ILOCAL OFF ; 

( @9BA2-9BB4 XT:9BAE CFA:224C DLen: 6 STAGE: Dictionaries)
: .BACKGR____
 '.BACKG_____ @EXECUTE ; 

( @9BB4-9BEC XT:9BB6 CFA:224C DLen: 54 STAGE: Words)
: [STARFLT:9BB6]
 0 SWAP ICONIMA__ ABLT ! BLTSEG ! 2 0 DO 
  BLTSEG @ ABLT @ LC@ ?>EGA !COLOR 1 ABLT +! BLT 8 ABLT +! 
 LOOP 
 ; 

( @9BEC-9C20 XT:9BEE CFA:224C DLen: 50 STAGE: Words)
: [STARFLT:9BEE]
 8 8 WBLT ! LBLT ! @IX @IY WLD>SCR SCR>BLT YBLT ! XBLT ! @ID [STARFLT:9BB6] @IC DEAD-IC 
 = IF 
  19 [STARFLT:9BB6] 
 THEN 
 ; 

( @9C20-9C28 XT:9C22 CFA:224C DLen: 6 STAGE: Words)
: [STARFLT:9C22]
 '.FLUX-____ @EXECUTE ; 

( @9C28-9C54 XT:9C34 CFA:224C DLen: 32 STAGE: Dictionaries)
: .CIRCLE____
 @IC !COLOR @IX @IY WLD>SCR @ID NULL-IC__ - *MAPSCA__ * YWLD:YP__ 2@ SWAP */ FILLCIR_ 
 ; 

( Data:Case @9C54-9C74 XT:9C60 CFA:4A4F DLen: 20 STAGE: Dictionaries)
CASE SYSCASE_
 4 IS SSYSEG
 6 IS SSYSEG
 15 IS MSYSEG
 14 IS MSYSEG
 OTHERS LSYSEG

( @9C74-9C86 XT:9C76 CFA:224C DLen: 16 STAGE: Words)
: [STARFLT:9C76]
 @IC SYSCASE_ @ @IX @IY WLD>SCR .PACKBL_ ; 

( Data:Case @9C86-9CA6 XT:9C92 CFA:4A4F DLen: 20 STAGE: Dictionaries)
CASE .ICONCA___
 253 IS [STARFLT:9C76]
 50 IS NOP
 255 IS [STARFLT:9C22]
 254 IS NOP
 OTHERS .CIRCLE____

( @9CA6-9CDE XT:9CB0 CFA:224C DLen: 46 STAGE: Dictionaries)
: .ICON
 @IX @IY ?INVIS @ID 51 91 WITHIN OR IF 
  @ID NULL-IC__ < IF 
   [STARFLT:9BEE] 
  ELSE 
   @ID .ICONCA___ 
  THEN 
 THEN 
 ; 

( @9CDE-9CF0 XT:9CEA CFA:224C DLen: 6 STAGE: Dictionaries)
: POINT>I___
 IINDEX ! ; 

( @9CF0-9D16 XT:9CFC CFA:224C DLen: 26 STAGE: Dictionaries)
: .LOCAL-_____
 ILOCAL @ ?DUP IF 
  0 DO 
   I POINT>I___ .ICON 
  LOOP 
 THEN 
 ; 

( @9D16-9D76 XT:9D18 CFA:9D18 DLen: 94 STAGE: Words)
CODE [STARFLT:9D18]
(Address @9D18
   9D18 59                   POP        CX
   9D19 8F 06 04 5B          POP        WORD PTR [5B04h]                 ; [STARFLT:5B04]
   9D1D 8F 06 00 5B          POP        WORD PTR [5B00h]                 ; [STARFLT:5B00]
   9D21 8F 06 FC 5A          POP        WORD PTR [5AFCh]                 ; [STARFLT:5AFC]
   9D25 8F 06 F8 5A          POP        WORD PTR [5AF8h]                 ; [STARFLT:5AF8]
   9D29 33 C0                XOR        AX, AX
   9D2B 50                   PUSH       AX
   9D2C 0B C9                OR         CX, CX
   9D2E 7E 41                JLE        9D71h                            ; .STARFLT_9D71
 .STARFLT_9D30:
   9D30 8B D9                MOV        BX, CX
   9D32 4B                   DEC        BX
   9D33 03 1E 04 5B          ADD        BX, WORD PTR [5B04h]             ; [STARFLT:5B04]
   9D37 D1 E3                SHL        BX, 1
   9D39 06                   PUSH       ES
   9D3A FF 36 BE 59          PUSH       WORD PTR [59BEh]                 ; [STARFLT:59BE]
   9D3E 07                   POP        ES
   9D3F 26 8B 17             MOV        DX, WORD PTR [ES:BX]
   9D42 07                   POP        ES
   9D43 2B 16 F8 5A          SUB        DX, WORD PTR [5AF8h]             ; [STARFLT:5AF8]
   9D47 79 02                JNS        9D4Bh                            ; .STARFLT_9D4B
   9D49 F7 DA                NEG        DX
 .STARFLT_9D4B:
   9D4B 3B 16 00 5B          CMP        DX, WORD PTR [5B00h]             ; [STARFLT:5B00]
   9D4F 7F 1E                JNLE       9D6Fh                            ; .STARFLT_9D6F
   9D51 06                   PUSH       ES
   9D52 FF 36 C2 59          PUSH       WORD PTR [59C2h]                 ; [STARFLT:59C2]
   9D56 07                   POP        ES
   9D57 26 8B 17             MOV        DX, WORD PTR [ES:BX]
   9D5A 07                   POP        ES
   9D5B 2B 16 FC 5A          SUB        DX, WORD PTR [5AFCh]             ; [STARFLT:5AFC]
   9D5F 79 02                JNS        9D63h                            ; .STARFLT_9D63
   9D61 F7 DA                NEG        DX
 .STARFLT_9D63:
   9D63 3B 16 00 5B          CMP        DX, WORD PTR [5B00h]             ; [STARFLT:5B00]
   9D67 7F 06                JNLE       9D6Fh                            ; .STARFLT_9D6F
   9D69 58                   POP        AX
   9D6A D1 EB                SHR        BX, 1
   9D6C 53                   PUSH       BX
   9D6D 40                   INC        AX
   9D6E 50                   PUSH       AX
 .STARFLT_9D6F:
 .STARFLT_9D6F:
   9D6F E2 BF                LOOP       9D30h                            ; .STARFLT_9D30
 .STARFLT_9D71:
   9D71 AD                   LODSW      
   9D72 8B D8                MOV        BX, AX
   9D74 FF 27                JMP        WORD PTR [BX]
) CODE-END

( @9D76-9D8A XT:9D82 CFA:224C DLen: 8 STAGE: Dictionaries)
: ?ICONS-_____
 0 SWAP [STARFLT:9D18] ; 

( @9D8A-9D9E XT:9D96 CFA:224C DLen: 8 STAGE: Dictionaries)
: ?ICONS-__
 0 SWAP ?ICONS-_____ ; 

( @9D9E-9E12 XT:9DAA CFA:224C DLen: 104 STAGE: Dictionaries)
: ?ICON=I____
 0 IGLOBAL @ BEGIN 
  [STARFLT:59CE] @ ROT ROT 5 PICK LWSCAN IF 
   IHSEG @ OVER 2/ LC@ 3 PICK = IF 
    1 
   ELSE 
    2+ IGLOBAL @ OVER 2/ - 0 
   THEN 
  ELSE 
   -1 1 
  THEN 
 UNTIL 
 >R 2DROP R> DUP 0< IF 
  DROP 0 
 ELSE 
  2/ 1 
 THEN 
 ; 

( @9E12-9E51 XT:9E14 CFA:9E14 DLen: 61 STAGE: Words)
CODE [STARFLT:9E14]
(Address @9E14
   9E14 58                   POP        AX
   9E15 5B                   POP        BX
   9E16 06                   PUSH       ES
   9E17 FF 36 C6 59          PUSH       WORD PTR [59C6h]                 ; [STARFLT:59C6]
   9E1B 07                   POP        ES
   9E1C E8 AB AB             CALL       49CAh                            ; [STARFLT:49CA]
   9E1F FF 36 CA 59          PUSH       WORD PTR [59CAh]                 ; [STARFLT:59CA]
   9E23 07                   POP        ES
   9E24 E8 A3 AB             CALL       49CAh                            ; [STARFLT:49CA]
   9E27 FF 36 DA 59          PUSH       WORD PTR [59DAh]                 ; IHSEG
   9E2B 07                   POP        ES
   9E2C E8 9B AB             CALL       49CAh                            ; [STARFLT:49CA]
   9E2F D1 E0                SHL        AX, 1
   9E31 D1 E3                SHL        BX, 1
   9E33 FF 36 BE 59          PUSH       WORD PTR [59BEh]                 ; [STARFLT:59BE]
   9E37 07                   POP        ES
   9E38 E8 FB 90             CALL       2F36h                            ; {LXCHG}
   9E3B FF 36 C2 59          PUSH       WORD PTR [59C2h]                 ; [STARFLT:59C2]
   9E3F 07                   POP        ES
   9E40 E8 F3 90             CALL       2F36h                            ; {LXCHG}
   9E43 FF 36 CE 59          PUSH       WORD PTR [59CEh]                 ; [STARFLT:59CE]
   9E47 07                   POP        ES
   9E48 E8 EB 90             CALL       2F36h                            ; {LXCHG}
   9E4B 07                   POP        ES
   9E4C AD                   LODSW      
   9E4D 8B D8                MOV        BX, AX
   9E4F FF 27                JMP        WORD PTR [BX]
) CODE-END

( @9E51-9E71 XT:9E53 CFA:224C DLen: 30 STAGE: Words)
: [STARFLT:9E53]
 [STARFLT:5B04] ! ?DUP IF 
  0 DO 
   I [STARFLT:5B04] @ + [STARFLT:9E14] 
  LOOP 
 THEN 
 ; 

( @9E71-9EAF XT:9E7B CFA:224C DLen: 52 STAGE: Dictionaries)
: -ICON
 CI ?ICON=I____ IF 
  ILOCAL @ OVER > IF 
   -1 ILOCAL +! ILOCAL @ DUP >R [STARFLT:9E14] R> 
  THEN 
  -1 IGLOBAL +! IGLOBAL @ [STARFLT:9E14] 
 THEN 
 ; 

( @9EAF-9EF2 XT:9EB1 CFA:9EB1 DLen: 65 STAGE: Words)
CODE [STARFLT:9EB1]
(Address @9EB1
   9EB1 59                   POP        CX
   9EB2 8F 06 04 5B          POP        WORD PTR [5B04h]                 ; [STARFLT:5B04]
   9EB6 5A                   POP        DX
   9EB7 8F 06 C8 48          POP        WORD PTR [48C8h]                 ; ZZZ+2
   9EBB 33 C0                XOR        AX, AX
   9EBD 06                   PUSH       ES
   9EBE 8F 06 C6 48          POP        WORD PTR [48C6h]                 ; ZZZ
   9EC2 FF 36 C6 59          PUSH       WORD PTR [59C6h]                 ; [STARFLT:59C6]
   9EC6 07                   POP        ES
   9EC7 50                   PUSH       AX
   9EC8 0B C9                OR         CX, CX
   9ECA 7E 1C                JLE        9EE8h                            ; .STARFLT_9EE8
 .STARFLT_9ECC:
   9ECC 8B D9                MOV        BX, CX
   9ECE 4B                   DEC        BX
   9ECF 03 1E 04 5B          ADD        BX, WORD PTR [5B04h]             ; [STARFLT:5B04]
   9ED3 26 8A 07             MOV        AL, BYTE PTR [ES:BX]
   9ED6 3B C2                CMP        AX, DX
   9ED8 79 0C                JNS        9EE6h                            ; .STARFLT_9EE6
   9EDA 3B 06 C8 48          CMP        AX, WORD PTR [48C8h]             ; ZZZ+2
   9EDE 7E 06                JLE        9EE6h                            ; .STARFLT_9EE6
   9EE0 58                   POP        AX
   9EE1 53                   PUSH       BX
   9EE2 40                   INC        AX
   9EE3 50                   PUSH       AX
   9EE4 33 C0                XOR        AX, AX
 .STARFLT_9EE6:
 .STARFLT_9EE6:
   9EE6 E2 E4                LOOP       9ECCh                            ; .STARFLT_9ECC
 .STARFLT_9EE8:
   9EE8 FF 36 C6 48          PUSH       WORD PTR [48C6h]                 ; ZZZ
   9EEC 07                   POP        ES
   9EED AD                   LODSW      
   9EEE 8B D8                MOV        BX, AX
   9EF0 FF 27                JMP        WORD PTR [BX]
) CODE-END

( @9EF2-9F06 XT:9EFE CFA:224C DLen: 8 STAGE: Dictionaries)
: ?ICONSI_
 0 SWAP [STARFLT:9EB1] ; 

( @9F06-9F36 XT:9F10 CFA:224C DLen: 38 STAGE: Dictionaries)
: +ICON
 IGLOBAL @ DUP [STARFLT:5128] = IF 
  UNRAVEL 
 THEN 
 POINT>I___ 1 IGLOBAL +! !IH !IL !IC !ID !IY !IX ; 

( @9F36-9F4A XT:9F42 CFA:224C DLen: 8 STAGE: Dictionaries)
: +ICONBO_
 'ICONBO_ @ MODULE ; 

( @9F4A-A024 XT:9F56 CFA:224C DLen: 206 STAGE: Dictionaries)
: ORGLIST
 ANCHOR 2@ YABS @ - ABS SWAP XABS @ - ABS MAX LOCRADI__ @ - 0> IF 
  XABS @ YABS @ 2DUP ANCHOR 2! CONTEXT____ @ IF 
   LOCRADI__ @ [STARFLT:54D4] @ + IGLOBAL @ ?ICONS-_____ DUP ILOCAL ! 0 [STARFLT:9E53] 
   NULL-IC__ SYS-ICO_ ILOCAL @ ?ICONSI_ DUP [STARFLT:54D8] ! 0 [STARFLT:9E53] ANCHOR 
   2@ LOCRADI__ @ [STARFLT:54D8] @ ILOCAL @ OVER - [STARFLT:9D18] DUP [STARFLT:54D8] 
   @ + ILOCAL ! [STARFLT:54D8] @ [STARFLT:9E53] 
  ELSE 
   LOCRADI__ @ IGLOBAL @ ?ICONS-_____ DUP ILOCAL ! 0 [STARFLT:9E53] 
  THEN 
  25 35 ILOCAL @ ?ICONSI_ ?DUP IF 
   0 DO 
    ILOCAL @ 1- [STARFLT:9E14] 
   LOOP 
  THEN 
 THEN 
 ; 

( @A024-A037 XT:A02D CFA:224C DLen: 10 STAGE: Dictionaries)
: POS.
 YBLT ! XBLT ! ; 

( @A037-A06E XT:A042 CFA:224C DLen: 44 STAGE: Dictionaries)
: .1LOGO
 @COLOR >R !COLOR POS. @DS BLTSEG ! 10 LBLT ! 10 WBLT ! _starflight_1logo ABLT ! 
 BLT R> !COLOR ; 

( @A06E-A08A XT:A070 CFA:224C DLen: 26 STAGE: Words)
: [STARFLT:A070]
 [STARFLT:6930] VIN ! [STARFLT:6972] VOUT ! [STARFLT:69B4] OIN ! [STARFLT:69F6] OOUT 
 ! ; 

( @A08A-A0E4 XT:A08C CFA:224C DLen: 88 STAGE: Words)
: [STARFLT:A08C]
 [STARFLT:A070] !COLOR [STARFLT:6930] >R DUP I 2+ ! I 14 + ! DUP I ! I 4 + ! DUP 
 I 6 + ! I 10 + ! DUP I 8 + ! R> 12 + ! 4 #IN ! ; 

( @A0E4-A0F8 XT:A0F0 CFA:224C DLen: 8 STAGE: Dictionaries)
: POLY-WI_________
 [STARFLT:A08C] SCANPOL_ LFILLPO__ ; 

( @A0F8-A112 XT:A102 CFA:224C DLen: 16 STAGE: Dictionaries)
: SFILL
 $00C7 NULL $009F @COLOR POLY-WI_________ ; 

( @A112-A12C XT:A11C CFA:224C DLen: 16 STAGE: Dictionaries)
: >SSCT
 50 CTTOP ! 3 CTBOT ! ; 

( @A12C-A148 XT:A136 CFA:224C DLen: 18 STAGE: Dictionaries)
: >TVCT
 WTOP @ CTTOP ! WBOTTOM @ CTBOT ! ; 

( @A148-A177 XT:A153 CFA:224C DLen: 36 STAGE: Dictionaries)
: CTPOS.
 2DUP CTY ! CTX ! SWAP 4 * 5 + CTTOP @ ROT 7 * - POS. ; 

( @A177-A19F XT:A183 CFA:224C DLen: 28 STAGE: Dictionaries)
: CTERASE
 @COLOR 51 3 1 $009C BLACK POLY-WI_________ 0 0 CTPOS. !COLOR ; 

( @A19F-A1B3 XT:A1A9 CFA:224C DLen: 10 STAGE: Dictionaries)
: @BEEP
 BEEPTONE @ BEEPMS @ ; 

( @A1B3-A1C7 XT:A1BD CFA:224C DLen: 10 STAGE: Dictionaries)
: !BEEP
 BEEPMS <!> BEEPTONE <!> ; 

( @A1C7-A1E9 XT:A1D1 CFA:224C DLen: 24 STAGE: Dictionaries)
: CLICK
 @BEEP 100 BEEPMS ! 50 BEEPTONE ! BEEP !BEEP ; 

( @A1E9-A21C XT:A1F2 CFA:224C DLen: 42 STAGE: Dictionaries)
: >SND
 0 ?SOUND @ IF 
  1 TONE BEEPON DO 
   TONE MS 
  LOOP 
  BEEPOFF 
 ELSE 
  DO 
   2DROP 
  LOOP 
 THEN 
 ; 

( @A21C-A233 XT:A227 CFA:224C DLen: 12 STAGE: Dictionaries)
: BEEPON
 ?SOUND @ IF 
  BEEPON 
 THEN 
 ; 

( @A233-A23B XT:A235 CFA:224C DLen: 6 STAGE: Words)
: _>musseg
 MUSSEG SWAP ; 

( @A23B-A243 XT:A23D CFA:224C DLen: 6 STAGE: Words)
: _musseg!
 _>musseg L! ; 

( @A243-A24B XT:A245 CFA:224C DLen: 6 STAGE: Words)
: _musseg@
 _>musseg L@ ; 

( @A24B-A253 XT:A24D CFA:224C DLen: 6 STAGE: Words)
: _mussegC@
 _>musseg LC@ ; 

( @A253-A25B XT:A255 CFA:224C DLen: 6 STAGE: Words)
: _mussegC!
 _>musseg LC! ; 

( @A25B-A265 XT:A25D CFA:224C DLen: 8 STAGE: Words)
: _sound_on
 1 2 _mussegC! ; 

( @A265-A271 XT:A267 CFA:224C DLen: 10 STAGE: Words)
: _sound_off
 0 2 _mussegC! BEEPOFF ; 

( @A271-A2BE XT:A27A CFA:224C DLen: 68 STAGE: Dictionaries)
: SONG
 ?SOUND @ IF 
  _sound_off 2* 16 + _musseg@ DUP DUP 3 _musseg! 5 _musseg! DUP _mussegC@ 9 _mussegC! 
  1+ _musseg@ 7 _musseg! 1 10 _mussegC! 1 13 _mussegC! _sound_on 
 THEN 
 ; 

( @A2BE-A2F5 XT:A2C7 CFA:224C DLen: 46 STAGE: Dictionaries)
: @CRS
 YBLT @ XBLT @ LBLT @ WBLT @ ABLT @ NCRS @ OCRS @ COLOR @ DCOLOR @ XORMODE @ BLTSEG 
 @ ; 

( @A2F5-A32C XT:A2FE CFA:224C DLen: 46 STAGE: Dictionaries)
: !CRS
 BLTSEG ! XORMODE ! DCOLOR ! COLOR ! OCRS ! NCRS ! ABLT ! WBLT ! LBLT ! XBLT ! YBLT 
 ! ; 

( @A32C-A339 XT:A333 CFA:224C DLen: 6 STAGE: Dictionaries)
: $.
 COUNT TYPE ; 

( @A339-A36D XT:A345 CFA:224C DLen: 40 STAGE: Dictionaries)
: POLY-ER________
 >R >R @CRS YBLT @ DUP 4 - XBLT @ SWAP OVER R> 4 * + R> POLY-WI_________ !CRS ; 

( @A36D-A395 XT:A379 CFA:224C DLen: 28 STAGE: Dictionaries)
: POS.PXT
 >R >R >R >R @CRS R> R> R> R> SWAP POS. POLY-ER________ !CRS ; 

( @A395-A3D8 XT:A3A0 CFA:224C DLen: 56 STAGE: Dictionaries)
: WINDOW
 DUP WCHARS ! 4 * ROT DUP WLEFT ! + WRIGHT ! DUP WLINES ! 1- -7 * 5 - OVER + WBOTTOM 
 ! WTOP ! ; 

( @A3D8-A3FA XT:A3DA CFA:224C DLen: 32 STAGE: Words)
: [STARFLT:A3DA]
 >R @CRS XORMODE OFF >1FONT WLEFT @ WBOTTOM @ 5 + POS. R> $. !CRS ; 

( @A3FA-A418 XT:A3FC CFA:224C DLen: 28 STAGE: Words)
: [STARFLT:A3FC]
 >R @CRS XORMODE OFF >1FONT WLEFT @ WTOP @ POS. R> $. !CRS ; 

( @A418-A450 XT:A424 CFA:224C DLen: 44 STAGE: Dictionaries)
: WLINE-U_
 7 0 DO 
  WLEFT @ WTOP @ 1- WRIGHT @ WBOTTOM @ 1- WLEFT @ WTOP @ LCOPYBL_ 
 LOOP 
 [STARFLT:A3DA] ; 

( @A450-A486 XT:A45C CFA:224C DLen: 42 STAGE: Dictionaries)
: WLINE-D___
 7 0 DO 
  WLEFT @ WTOP @ 1+ WRIGHT @ WBOTTOM @ WLEFT @ WTOP @ LCOPYBL_ 
 LOOP 
 [STARFLT:A3FC] ; 

( @A486-A4A0 XT:A48E CFA:224C DLen: 18 STAGE: Dictionaries)
: GCR
 -7 YBLT +! WLEFT @ XBLT ! ; 

( @A4A0-A4CC XT:A4AC CFA:224C DLen: 32 STAGE: Dictionaries)
: WSHORTE_
 WCHARS @ SWAP 7 WBOTTOM +! WBOTTOM @ 2- WLEFT @ POS.PXT -1 WLINES +! ; 

( @A4CC-A4E5 XT:A4D5 CFA:224C DLen: 16 STAGE: Dictionaries)
: CTCR
 0 CTY @ 1+ 6 MIN CTPOS. ; 

( @A4E5-A511 XT:A4F1 CFA:224C DLen: 32 STAGE: Dictionaries)
: TTY-SCR___
 7 0 DO 
  4 49 $00A0 3 4 50 LCOPYBL_ 
 LOOP 
 ; 

( @A511-A51F XT:A513 CFA:224C DLen: 12 STAGE: Words)
: [STARFLT:A513]
 >1FONT TTY-SCR___ 0 6 CTPOS. ; 

( @A51F-A540 XT:A52A CFA:224C DLen: 22 STAGE: Dictionaries)
: CTINIT
 >1FONT XORMODE OFF WHITE !COLOR ' [STARFLT:A513] ( $A513 ) ' CR ( $0644 ) EXECUTES 
 ; 

( @A540-A54F XT:A549 CFA:224C DLen: 6 STAGE: Dictionaries)
: .TTY
 [STARFLT:A513] TYPE ; 

( @A54F-A5ED XT:A55B CFA:224C DLen: 146 STAGE: Dictionaries)
: VIEWSCR___
 3 0 DO 
  I 1+ $00C3 OVER 68 LLINE 76 I + $00C3 OVER 68 LLINE 
 LOOP 
 4 0 DO 
  4 68 I + 75 OVER LLINE 4 $00C0 I + 11 OVER LLINE 75 $00C0 I + 68 OVER LLINE 
 LOOP 
 74 $00C0 12 OVER LLINE @COLOR SWAP !COLOR >MAINVI__ BFILL >DISPLA_ V>DISPL__ !COLOR 
 ; 

( @A5ED-A657 XT:A5F9 CFA:224C DLen: 94 STAGE: Dictionaries)
: TXT-WIN___
 ?ON-PLA_ @ 13 * >V 2 0 DO 
  I 1+ VI OVER 52 VI + LLINE $009D I + VI OVER 52 VI + LLINE 
 LOOP 
 3 52 VI + $009C OVER LLINE 3 VI $009C V> LLINE ; 

( @A657-A6AD XT:A659 CFA:224C DLen: 84 STAGE: Words)
: [STARFLT:A659]
 2 0 DO 
  81 I + 125 OVER $00C6 LLINE $009D I + 125 OVER $00C6 LLINE 
 LOOP 
 83 $00C6 $009C OVER LLINE 83 125 $009C OVER LLINE ; 

( @A6AD-A703 XT:A6AF CFA:224C DLen: 84 STAGE: Words)
: [STARFLT:A6AF]
 2 0 DO 
  90 I + 55 OVER 122 LLINE $009D I + 55 OVER 122 LLINE 
 LOOP 
 92 122 $009C OVER LLINE 92 55 $009C OVER LLINE ; 

( @A703-A74D XT:A705 CFA:224C DLen: 72 STAGE: Words)
: [STARFLT:A705]
 _button ABLT ! 9 LBLT ! 8 WBLT ! XORMODE OFF @DS BLTSEG ! 6 0 DO 
  81 120 I 11 * - POS. BLT 
 LOOP 
 1 65 GREY2 .1LOGO ; 

( @A74D-A77C XT:A756 CFA:224C DLen: 38 STAGE: Dictionaries)
: ?MRC
 MONITOR @ DUP 3 = IF 
  DROP ROT ROT 
 ELSE 
  2 = IF 
   ROT 
  THEN 
 THEN 
 2DROP ; 

( @A77C-A79A XT:A77E CFA:224C DLen: 28 STAGE: Words)
: [STARFLT:A77E]
 >R @COLOR 121 92 56 $009C R> POLY-WI_________ !COLOR ; 

( @A79A-A7C2 XT:A7A6 CFA:224C DLen: 28 STAGE: Dictionaries)
: ERASE-A________
 >R @COLOR $00C5 83 126 $009C R> POLY-WI_________ !COLOR ; 

( @A7C2-A7EC XT:A7CE CFA:224C DLen: 30 STAGE: Dictionaries)
: ERASE-T___
 >R @COLOR 51 3 1 $009C R> POLY-WI_________ 0 0 CTPOS. !COLOR ; 

( @A7EC-A800 XT:A7EE CFA:224C DLen: 18 STAGE: Memory)
: [STARFLT:A7EE]
 @COLOR SWAP !COLOR >MAINVI__ BFILL >DISPLA_ V>DISPL__ !COLOR ; 

( @A800-A81E XT:A802 CFA:224C DLen: 28 STAGE: Words)
: [STARFLT:A802]
 11 * 82 119 ROT - POS. !COLOR XORMODE OFF ; 

( @A81E-A848 XT:A82A CFA:224C DLen: 30 STAGE: Dictionaries)
: .HIGHLI___
 @DS BLTSEG ! [STARFLT:A802] [STARFLT:52FD] ABLT ! 7 LBLT ! 6 WBLT ! BLT ; 

( @A848-A874 XT:A84A CFA:224C DLen: 42 STAGE: Words)
: [STARFLT:A84A]
 @DS BLTSEG ! [STARFLT:A802] -2 YBLT +! 2 XBLT +! 3 LBLT ! 2 WBLT ! [STARFLT:5305] 
 ABLT ! BLT ; 

( @A874-A892 XT:A87C CFA:224C DLen: 22 STAGE: Dictionaries)
: .ON
 OVER >R [STARFLT:A84A] R> BLACK = NOT IF 
  CLICK 
 THEN 
 ; 

( @A892-A8B4 XT:A89E CFA:224C DLen: 22 STAGE: Dictionaries)
: CLR-BUT____
 6 0 DO 
  0 I 2DUP .HIGHLI___ [STARFLT:A84A] 
 LOOP 
 ; 

( @A8B4-A8CE XT:A8C0 CFA:224C DLen: 14 STAGE: Dictionaries)
: INIT-BU____
 CLR-BUT____ THIS-BU____ OFF BLUE 0 .HIGHLI___ ; 

( @A8CE-A906 XT:A8DA CFA:224C DLen: 44 STAGE: Dictionaries)
: (SHIP-C_______
 >SSCT GREY1 !COLOR SFILL GREEN GREEN DK-BLUE ?MRC !COLOR VIEWSCR___ [STARFLT:A659] 
 [STARFLT:A6AF] TXT-WIN___ [STARFLT:A705] 0 [STARFLT:A77E] BLACK ERASE-A________ 
 CTERASE CLR-BUT____ INIT-BU____ ; 

( @A906-A918 XT:A912 CFA:224C DLen: 6 STAGE: Dictionaries)
: SHIP-CO_____
 BLACK (SHIP-C_______ ; 

( @A918-A98B XT:A921 CFA:224C DLen: 106 STAGE: Dictionaries)
: 'KEY
 ?TERMINAL IF 
  LKEY @ SKEY ! KEY DUP LKEY ! DUP 27 = ESC-EN @ AND IF 
   DROP 0 ESC-PFA @EXECUTE 
  THEN 
  DUP 19 = IF 
   DROP 0 ?SOUND 1 TOGGLE ?SOUND @ 0= IF 
    _sound_off 
   THEN 
  THEN 
  KEYTIME 2@ LKEYTIM_ 2! TIME 2@ KEYTIME 2! 
 ELSE 
  0 
 THEN 
 ; 

( @A98B-A993 XT:A98D CFA:224C DLen: 6 STAGE: Words)
: [STARFLT:A98D]
 1 -1 ; 

( @A993-A99B XT:A995 CFA:224C DLen: 6 STAGE: Words)
: [STARFLT:A995]
 1 0 ; 

( @A99B-A9A3 XT:A99D CFA:224C DLen: 6 STAGE: Words)
: [STARFLT:A99D]
 1 1 ; 

( @A9A3-A9AF XT:A9A5 CFA:224C DLen: 10 STAGE: Words)
: [STARFLT:A9A5]
 0 -1 FQUIT ON ; 

( @A9AF-A9BB XT:A9B1 CFA:224C DLen: 10 STAGE: Words)
: [STARFLT:A9B1]
 0 1 FQUIT ON ; 

( @A9BB-A9C3 XT:A9BD CFA:224C DLen: 6 STAGE: Words)
: [STARFLT:A9BD]
 -1 -1 ; 

( @A9C3-A9CB XT:A9C5 CFA:224C DLen: 6 STAGE: Words)
: [STARFLT:A9C5]
 -1 0 ; 

( @A9CB-A9D3 XT:A9CD CFA:224C DLen: 6 STAGE: Words)
: [STARFLT:A9CD]
 -1 1 ; 

( @A9D3-A9D9 XT:A9D5 CFA:224C DLen: 4 STAGE: Words)
: [STARFLT:A9D5]
 NULL ; 

( @A9D9-A9E3 XT:A9DB CFA:224C DLen: 8 STAGE: Words)
: [STARFLT:A9DB]
 NULL FTRIG ON ; 

( Data:Case @A9E3-AA2F XT:A9EF CFA:4A4F DLen: 64 STAGE: Dictionaries)
CASE (XYSCAN_
 327 IS [STARFLT:A98D]
 328 IS [STARFLT:A995]
 329 IS [STARFLT:A99D]
 331 IS [STARFLT:A9A5]
 333 IS [STARFLT:A9B1]
 335 IS [STARFLT:A9BD]
 336 IS [STARFLT:A9C5]
 337 IS [STARFLT:A9CD]
 0 IS [STARFLT:A9D5]
 92 IS [STARFLT:A98D]
 126 IS [STARFLT:A995]
 124 IS [STARFLT:A9A5]
 500 IS [STARFLT:A9B1]
 335 IS [STARFLT:A9BD]
 96 IS [STARFLT:A9C5]
 OTHERS [STARFLT:A9DB]

( @AA2F-AA48 XT:AA3A CFA:224C DLen: 14 STAGE: Dictionaries)
: XYSCAN
 FQUIT OFF FTRIG OFF 'KEY (XYSCAN_ ; 

( @AA48-AA62 XT:AA52 CFA:224C DLen: 16 STAGE: Dictionaries)
: ?TRIG
 FTRIG @ DUP IF 
  FTRIG OFF 
 THEN 
 ; 

( @AA62-AA7C XT:AA6C CFA:224C DLen: 16 STAGE: Dictionaries)
: ?QUIT
 FQUIT @ DUP IF 
  FQUIT OFF 
 THEN 
 ; 

( @AA7C-AA96 XT:AA84 CFA:224C DLen: 18 STAGE: Dictionaries)
: Y/N
 BEGIN 
  XYSCAN SWAP DROP ?DUP 
 UNTIL 
 CLICK 0> ; 

( @AA96-AAAA XT:AA98 CFA:224C DLen: 18 STAGE: Words)
: [STARFLT:AA98]
 93 XBLT ! -11 YBLT +! ; 

( @AAAA-AAB2 XT:AAAC CFA:224C DLen: 6 STAGE: Memory)
: [STARFLT:AAAC]
 'BUTTON @EXECUTE ; 

( @AAB2-AB10 XT:AABC CFA:224C DLen: 84 STAGE: Dictionaries)
: .ABTN
 >R 58 FILE# ! RECORD# ! 93 119 I 11 * - POS. >2FONT YBLT @ 93 OVER 7 - $009C BLACK 
 POLY-WI_________ WHITE !COLOR 1BTN R> 12 * + 12 TYPE SET-CUR____ ; 

( @AB10-AB6A XT:AB1C CFA:224C DLen: 78 STAGE: Dictionaries)
: .BTN-TE__
 58 FILE# ! DUP RECORD# ! BTN-REC_ ! BLACK [STARFLT:A77E] 93 119 POS. >2FONT WHITE 
 !COLOR #BTN C@ 12 * 0 DO 
  1BTN I + 12 TYPE [STARFLT:AA98] 12 
 +LOOP 
 SET-CUR____ ; 

( @AB6A-ABBA XT:AB76 CFA:224C DLen: 68 STAGE: Dictionaries)
: NEW-BUT___
 58 FILE# ! BTN-REC_ @ RECORD# ! THIS-BU____ @ SWAP - DUP 0 #BTN C@ WITHIN IF 
  BLUE OVER BLACK THIS-BU____ @ .HIGHLI___ .HIGHLI___ THIS-BU____ ! CLICK 
 ELSE 
  DROP 
 THEN 
 SET-CUR____ ; 

( @ABBA-ABD2 XT:ABC6 CFA:224C DLen: 12 STAGE: Dictionaries)
: CURSORS____
 CURSEG @ BLTSEG ! 0 ; 

( @ABD2-AC30 XT:ABDE CFA:224C DLen: 82 STAGE: Dictionaries)
: BLD-CRS
 @COLOR >R CRSCOLO_ @ !COLOR CURSORS____ ABLT ! XORMODE ON 1+ OCRS @ 4 * + >R I C@ 
 YBLT ! I 1+ C@ XBLT ! I 2+ C@ LBLT ! R> 3 + C@ WBLT ! BLT R> !COLOR ; 

( @AC30-AC96 XT:AC3C CFA:224C DLen: 90 STAGE: Dictionaries)
: SET-CRS
 NCRS @ OVER C@ 1+ 0 SWAP WITHIN IF 
  NCRS @ OCRS @ = NOT IF 
   DUP BLD-CRS NCRS @ OCRS ! BLD-CRS 1 
  ELSE 
   DROP 0 
  THEN 
 ELSE 
  C@ OCRS @ MIN 0 MAX DUP OCRS ! NCRS ! 0 
 THEN 
 ; 

( @AC96-ACA7 XT:AC9D CFA:224C DLen: 10 STAGE: Dictionaries)
: $!
 OVER C@ 1+ CMOVE ; 

( @ACA7-ACBB XT:ACB3 CFA:224C DLen: 8 STAGE: Dictionaries)
: SUBROOT
 CDEPTH [STARFLT:5CC3] ! ; 

( @ACBB-ACD1 XT:ACC7 CFA:224C DLen: 10 STAGE: Dictionaries)
: SRDEPTH
 CDEPTH [STARFLT:5CC3] @ - ; 

( @ACD1-ACE7 XT:ACD3 CFA:224C DLen: 20 STAGE: Words)
: [STARFLT:ACD3]
 BEGIN 
  ?LAST SRDEPTH 0> AND WHILE 
  ICLOSE 
 REPEAT 
 ; 

( @ACE7-AD0F XT:ACF3 CFA:224C DLen: 28 STAGE: Dictionaries)
: NEXT-NO__
 [STARFLT:750E] OR IF 
  IOPEN 
 ELSE 
  [STARFLT:ACD3] SRDEPTH 0> IF 
   INEXT 
  THEN 
 THEN 
 ; 

( Data:IField @AD0F-AD1E XT:AD1B CFA:744D DLen: 3 STAGE: Dictionaries)
0 17 2 IFIELD INST-VAl ( STARFLT )

( Data:AField @AD1E-AD2E XT:AD28 CFA:73EA DLen: 6 STAGE: Dictionaries)
68 4 3 AFIELD SHAPE ( CREATURE )

( Data:IField @AD2E-AD3D XT:AD3A CFA:744D DLen: 3 STAGE: Dictionaries)
0 19 2 IFIELD INST-DAte ( STARFLT )

( Data:AField @AD3D-AD4F XT:AD49 CFA:73EA DLen: 6 STAGE: Dictionaries)
68 146 3 AFIELD RESEMBLes ( CREATURE )

( Data:AField @AD4F-AD61 XT:AD5B CFA:73EA DLen: 6 STAGE: Dictionaries)
11 0 16 AFIELD BOX-NAMe ( BOX )

( Data:IField @AD61-AD6E XT:AD6B CFA:744D DLen: 3 STAGE: Dictionaries)
20 52 15 IFIELD %NAME ( SHIP )

( Data:AField @AD6E-AD80 XT:AD7A CFA:73EA DLen: 6 STAGE: Dictionaries)
27 0 16 AFIELD ORIG-NA__ ( MESSAGE )

( Data:AField @AD80-AD92 XT:AD8C CFA:73EA DLen: 6 STAGE: Dictionaries)
40 0 16 AFIELD SPEC-NAme ( SPECIMEN )

( Data:AField @AD92-ADA4 XT:AD9E CFA:73EA DLen: 6 STAGE: Dictionaries)
43 0 16 AFIELD BD-NAME ( BIO-DATA )

( Data:AField @ADA4-ADB6 XT:ADB0 CFA:73EA DLen: 6 STAGE: Dictionaries)
26 0 16 AFIELD ELEM-NAme ( ELEMENT )

( Data:AField @ADB6-ADC8 XT:ADC2 CFA:73EA DLen: 6 STAGE: Dictionaries)
26 16 2 AFIELD ELEM-VA_ ( ELEMENT )

( Data:AField @ADC8-ADDA XT:ADD4 CFA:73EA DLen: 6 STAGE: Dictionaries)
28 0 24 AFIELD ART-NAMe ( ARTIFACT )

( Data:AField @ADDA-ADEC XT:ADE6 CFA:73EA DLen: 6 STAGE: Dictionaries)
28 27 2 AFIELD ART-VAL ( ARTIFACT )

( Data:AField @ADEC-ADFE XT:ADF8 CFA:73EA DLen: 6 STAGE: Dictionaries)
28 25 2 AFIELD ART-VOL ( ARTIFACT )

( Data:IField @ADFE-AE0D XT:AE0A CFA:744D DLen: 3 STAGE: Dictionaries)
48 11 1 IFIELD PHR-CNT ( STRING )

( Data:IField @AE0D-AE1B XT:AE18 CFA:744D DLen: 3 STAGE: Dictionaries)
48 12 254 IFIELD PHRASE ( STRING )

( @AE1B-AE2D XT:AE23 CFA:224C DLen: 10 STAGE: Dictionaries)
: U>$
 0 <# #S #> ; 

( @AE2D-AE43 XT:AE2F CFA:224C DLen: 20 STAGE: Words)
: [STARFLT:AE2F]
 11 0 DO 
  I OVT @ 
 LOOP 
 ; 

( @AE43-AE5B XT:AE45 CFA:224C DLen: 22 STAGE: Words)
: [STARFLT:AE45]
 0 10 DO 
  I OVT ! -1 
 +LOOP 
 ; 

( @AE5B-AE79 XT:AE67 CFA:224C DLen: 18 STAGE: Dictionaries)
: <CTVERS_________
 >R >R [STARFLT:AE2F] R> R> CTINIT [STARFLT:7075] [STARFLT:AE45] ; 

( @AE79-AE8F XT:AE85 CFA:224C DLen: 10 STAGE: Dictionaries)
: <CTASKM_____
 [STARFLT:AE2F] CTINIT <ASKMOUNT> [STARFLT:AE45] ; 

( Data:IField @AE8F-AE9E XT:AE9B CFA:744D DLen: 3 STAGE: Dictionaries)
56 11 3 IFIELD TEXT-CO__ ( SCROLL-TEXT )

( Data:IField @AE9E-AEAD XT:AEAA CFA:744D DLen: 3 STAGE: Dictionaries)
56 14 3 IFIELD TEXT-IN__ ( SCROLL-TEXT )

( Data:IField @AEAD-AEBC XT:AEB9 CFA:744D DLen: 3 STAGE: Dictionaries)
56 17 38 IFIELD TEXT-TE__ ( SCROLL-TEXT )

( @AEBC-AEDE XT:AEC8 CFA:224C DLen: 22 STAGE: Dictionaries)
: TEXT>PA_
 TEXT-TE__ PAD 1+ 38 CMOVE 38 PAD C! ; 

( @AEDE-AF14 XT:AEE8 CFA:224C DLen: 44 STAGE: Dictionaries)
: CMESS
 >R >R @CRS R> R> CTINIT 2* 80 SWAP - XBLT ! 23 SWAP 6 * - YBLT ! ; 

( @AF14-AF49 XT:AF1F CFA:224C DLen: 42 STAGE: Dictionaries)
: X0MESS
 23 ROT 6 * - 38 ROT ROT 2 CONTEXT____ @ 5 < IF 
  4 MAX 
 THEN 
 POS.PXT ; 

( @AF49-AF59 XT:AF53 CFA:224C DLen: 6 STAGE: Dictionaries)
: 0MESS
 BLACK X0MESS ; 

( Data:Word @AF59-AF5D XT:AF5B CFA:2214 DLen: 2 STAGE: Words)
46 CONSTANT [STARFLT:AF5B]

( @AF5D-AF97 XT:AF69 CFA:224C DLen: 46 STAGE: Dictionaries)
: -XTRAIL___
 ' [STARFLT:AF5B] ( $AF5B ) ! ' [STARFLT:AF5B] ( $AF5B ) CFA ' -TRAILING ( $2790 ) 
 14 + ! -TRAILING ' BL ( $099A ) CFA ' -TRAILING ( $2790 ) 14 + ! ; 

( @AF97-AFAD XT:AFA3 CFA:224C DLen: 10 STAGE: Dictionaries)
: CEX+WAX
 'CEX+ @EXECUTE 'WAX @EXECUTE ; 

( @AFAD-AFCB XT:AFAF CFA:224C DLen: 28 STAGE: Words)
: [STARFLT:AFAF]
 STARDAT_ @ (FLARE) @ = ?WIN @ 0= AND IF 
  'FLARE @EXECUTE 
 THEN 
 ; 

( @AFCB-AFD3 XT:AFCD CFA:224C DLen: 6 STAGE: Words)
: [STARFLT:AFCD]
 'EXTERN_________ @EXECUTE ; 

( @AFD3-AFDB XT:AFD5 CFA:224C DLen: 6 STAGE: Words)
: [STARFLT:AFD5]
 'REPAIR @EXECUTE ; 

( @AFDB-AFE3 XT:AFDD CFA:224C DLen: 6 STAGE: Words)
: [STARFLT:AFDD]
 'VEHICL_______ @EXECUTE ; 

( @AFE3-AFEB XT:AFE5 CFA:224C DLen: 6 STAGE: Words)
: [STARFLT:AFE5]
 '.VEHIC_________ @EXECUTE ; 

( @AFEB-AFF9 XT:AFED CFA:224C DLen: 12 STAGE: Words)
: [STARFLT:AFED]
 [STARFLT:AFDD] IF 
  [STARFLT:AFD5] [STARFLT:AFE5] 
 THEN 
 ; 

( @AFF9-B001 XT:AFFB CFA:224C DLen: 6 STAGE: Words)
: [STARFLT:AFFB]
 'TREATM___ @EXECUTE ; 

( @B001-B009 XT:B003 CFA:224C DLen: 6 STAGE: Words)
: [STARFLT:B003]
 '.VITAL______ @EXECUTE ; 

( @B009-B011 XT:B00B CFA:224C DLen: 6 STAGE: Words)
: [STARFLT:B00B]
 'CREW-C____ @EXECUTE ; 

( @B011-B01F XT:B013 CFA:224C DLen: 12 STAGE: Words)
: [STARFLT:B013]
 [STARFLT:B00B] IF 
  [STARFLT:AFFB] [STARFLT:B003] 
 THEN 
 ; 

( @B01F-B03F XT:B02B CFA:224C DLen: 20 STAGE: Dictionaries)
: ?NEW-HO__
 TIME 2@ LAST-UP____ 2@ D- DABS REAL-MS________ 2@ D> ; 

( @B03F-B047 XT:B041 CFA:224C DLen: 6 STAGE: Words)
: [STARFLT:B041]
 '.DATE @EXECUTE ; 

( @B047-B0B1 XT:B049 CFA:224C DLen: 104 STAGE: Words)
: [STARFLT:B049]
 ?NEW-HO__ IF 
  TIME 2@ LAST-UP____ D! ?SECURE @ ?DUP IF 
   STARDAT_ @ < CONTEXT____ @ 2 4 WITHIN AND IF 
    'STP @ MODULE 
   THEN 
  THEN 
  STAR-HR @ 23 = IF 
   1 STARDAT_ +! [STARFLT:AFAF] STAR-HR OFF 
  ELSE 
   1 STAR-HR +! 
  THEN 
  [STARFLT:B041] ?SUP @ IF 
   'ENERGY @EXECUTE 
  THEN 
 THEN 
 ; 

( @B0B1-B0CF XT:B0BD CFA:224C DLen: 18 STAGE: Dictionaries)
: PARALLE_______
 TIME-PA_____ @ IF 
  [STARFLT:B049] [STARFLT:B013] [STARFLT:AFED] [STARFLT:AFCD] 
 THEN 
 ; 

( @B0CF-B0DF XT:B0D1 CFA:224C DLen: 14 STAGE: Words)
: [STARFLT:B0D1]
 'CLEANU_ @ >V 'KEY-CA__ @ >V ; 

( @B0DF-B0EF XT:B0E1 CFA:224C DLen: 14 STAGE: Words)
: [STARFLT:B0E1]
 V> 'KEY-CA__ ! V> 'CLEANU_ ! ; 

( @B0EF-B0F7 XT:B0F1 CFA:224C DLen: 6 STAGE: Words)
: [STARFLT:B0F1]
 'KEY-CA__ @EXECUTE ; 

( @B0F7-B163 XT:B103 CFA:224C DLen: 96 STAGE: Dictionaries)
: DOTASKS
 [STARFLT:B0D1] EXECUTE 'KEY-CA__ ! 'CLEANU_ ! 1 BEGIN 
  ?TERMINAL FORCEKE_ @ OR IF 
   'KEY [STARFLT:B0F1] TIME 2@ KEYTIME D! 
  ELSE 
   SKEY OFF LKEY OFF 
  THEN 
  TIME 2@ KEYTIME 2@ D- 1000. D> FORCEPT___ @ OR IF 
   PARALLE_______ 
  THEN 
  ?DUP 0= 
 UNTIL 
 'CLEANU_ @EXECUTE [STARFLT:B0E1] ; 

( @B163-B188 XT:B165 CFA:B165 DLen: 35 STAGE: Memory)
CODE [STARFLT:B165]
(Address @B165
   B165 80 E4 80             AND        AH, FF80h
   B168 80 FC 00             CMP        AH, 0
   B16B 74 11                JZ         B17Eh                            ; .STARFLT_B17E
   B16D 1E                   PUSH       DS
   B16E 55                   PUSH       BP
   B16F 1F                   POP        DS
   B170 8B 44 04             MOV        AX, WORD PTR [SI+4]
   B173 1F                   POP        DS
   B174 25 00 80             AND        AX, 8000h
   B177 0B C0                OR         AX, AX
   B179 75 03                JNZ        B17Eh                            ; .STARFLT_B17E
   B17B BF 0D 00             MOV        DI, 13
 .STARFLT_B17E:
 .STARFLT_B17E:
   B17E 8B C7                MOV        AX, DI
   B180 2E 88 06 F6 5F       MOV        BYTE PTR [CS:5FF6h], AL          ; DERROR
   B185 B0 03                MOV        AL, 3
   B187 CF                   IRET       
) CODE-END

( @B188-B1A2 XT:B18A CFA:224C DLen: 24 STAGE: Memory)
: [STARFLT:B18A]
 36 (!OLD) [STARFLT:613C] 2! @DS ' [STARFLT:B165] ( $B165 ) 36 (!SET) ; 

( @B1A2-B1B0 XT:B1A4 CFA:224C DLen: 12 STAGE: Words)
: [STARFLT:B1A4]
 [STARFLT:613C] 2@ 36 (!SET) ; 

( @B1B0-B210 XT:B1BC CFA:224C DLen: 84 STAGE: Dictionaries)
: SETDBUF
 ?EGA @ IF 
  $A000 16K 2/ $A200 HBUF-SE_ ! 
 ELSE 
  XBUF-SE_ @ HBUF-SE_ ! ?HERCUL__ IF 
   $B000 16K 2* 
  ELSE 
   $B800 16K 
  THEN 
 THEN 
 ' DBUF-SI__ ( $50C2 ) ! DBUF-SE_ ! BLD-DIS BLD-MV >DISPLA_ MONITOR @ COLORCA__ ; 

( @B210-B24B XT:B219 CFA:224C DLen: 50 STAGE: Dictionaries)
: XOR!
 DUP NFA 1+ SWAP 2 - SWAP 2DUP - 1 > IF 
  DO 
   I 127 TOGGLE 1 
  /LOOP 
 ELSE 
  2DROP 
 THEN 
 ; 

( @B24B-B2C9 XT:B255 CFA:224C DLen: 116 STAGE: Dictionaries)
: HEAD!
 CONTEXT @ 6 + PAD 8 CMOVE BEGIN 
  0 0 PAD DUP 8 + SWAP DO 
   DUP I @ U< IF 
    2DROP I DUP @ 
   THEN 
   2 
  /LOOP 
  OVER ?DUP IF 
   OVER 2- @ SWAP ! 
  THEN 
  SWAP DROP ?DUP WHILE 
  PFA XOR! 
 REPEAT 
 NODRIVES " starflt.com" >TIB SYSGEN BYE ; 

( @B2C9-B2DB XT:B2CB CFA:224C DLen: 16 STAGE: Words)
: [STARFLT:B2CB]
 NEGATE LFSEG @ + DUP LFSEG ! ; 

( @B2DB-B2FD XT:B2DD CFA:224C DLen: 32 STAGE: Words)
: [STARFLT:B2DD]
 DUP 'ARRAY ! #BYTES #ROWZ 2* + 16/ 1+ [STARFLT:B2CB] OVER 6 + ! !OFFSET_ ; 

( @B2FD-B307 XT:B2FF CFA:224C DLen: 8 STAGE: Words)
: [STARFLT:B2FF]
 [STARFLT:B2CB] SWAP ! ; 

( @B307-B32D XT:B309 CFA:224C DLen: 36 STAGE: Words)
: [STARFLT:B309]
 15 0 DO 
  I IARRAYS [STARFLT:B2DD] 
 LOOP 
 ' PPOLY ( $6B1D ) 6 + @ ' POLYSEG ( $5144 ) ! ; 

( @B32D-B3AD XT:B32F CFA:224C DLen: 126 STAGE: Words)
: [STARFLT:B32F]
 ' MUSSEG ( $5071 ) 50 REMSEG $00E1 SSYSEG 11 MSYSEG 28 FONTSEG 48 CURSEG 13 LSYSEG 
 47 IHSEG 45 [STARFLT:59CE] 90 [STARFLT:59CA] 45 [STARFLT:59C6] 45 [STARFLT:59C2] 
 90 [STARFLT:59BE] 90 [STARFLT:54EE] 31 [STARFLT:54EA] 62 [STARFLT:54F2] 62 [STARFLT:54F6] 
 ' (!SET) ( $0136 ) HBUF-SE_ $010E 18 0 DO 
  [STARFLT:B2FF] 
 LOOP 
 ; 

( @B3AD-B3E2 XT:B3B8 CFA:224C DLen: 42 STAGE: Dictionaries)
: ICINIT
 $01F0 [STARFLT:5574] ! $1360 [STARFLT:557C] ! [STARFLT:5580] OFF [STARFLT:5578] 
 OFF NULL [STARFLT:615C] 2! [STARFLT:547B] OFF IBFR 2+ OFF ; 

( @B3E2-B402 XT:B3E4 CFA:224C DLen: 30 STAGE: Words)
: [STARFLT:B3E4]
 PAD $00C8 $00FF FILL @DS PAD CURSEG @ 0 $00C8 LCMOVE ; 

( @B402-B42D XT:B40E CFA:B40E DLen: 31 STAGE: Dictionaries)
CODE XKEYINT
(Address @B40E
   B40E 50                   PUSH       AX
   B40F 1E                   PUSH       DS
   B410 B8 40 00             MOV        AX, 64
   B413 8E D8                MOV        DS, AX
   B415 33 C0                XOR        AX, AX
   B417 E4 60                IN         AL, 60h
   B419 25 80 00             AND        AX, 0080h
   B41C 75 08                JNZ        B426h                            ; .STARFLT_B426
   B41E 8B 06 1C 00          MOV        AX, WORD PTR [001Ch]
   B422 89 06 1A 00          MOV        WORD PTR [001Ah], AX
 .STARFLT_B426:
   B426 1F                   POP        DS
   B427 58                   POP        AX
   B428 EA 87 E9 00 F0       JMP FAR    FFFF:E987
) CODE-END

( @B42D-B45D XT:B439 CFA:224C DLen: 36 STAGE: Dictionaries)
: INSTALL____
 [KEYINT_ @ 0= IF 
  9 (!OLD) [STARFLT:6325] @ 2! [KEYINT_ ON @DS ' XKEYINT ( $B40E ) 9 (!SET) 
 THEN 
 ; 

( @B45D-B46D XT:B45F CFA:224C DLen: 14 STAGE: Memory)
: [STARFLT:B45F]
 ' _old27 ( $01B8 ) 2@ 27 (!SET) ; 

( @B46D-B479 XT:B46F CFA:224C DLen: 10 STAGE: Memory)
: [STARFLT:B46F]
 SETSYSK INSTALL____ [STARFLT:B18A] [STARFLT:B45F] ; 

( @B479-B49D XT:B485 CFA:224C DLen: 24 STAGE: Dictionaries)
: RESTORE___
 [KEYINT_ @ IF 
  [STARFLT:6325] @ 2@ 9 (!SET) [KEYINT_ OFF 
 THEN 
 ; 

( @B49D-B4A5 XT:B49F CFA:224C DLen: 6 STAGE: Memory)
: [STARFLT:B49F]
 RESTORE___ [STARFLT:B1A4] ; 

( @B4A5-B4DF XT:B4B1 CFA:224C DLen: 46 STAGE: Dictionaries)
: CFIGARR___
 SYSK @ 64 * 1- LFSEG ! [STARFLT:B309] [STARFLT:B32F] HBUF-SE_ @ XBUF-SE_ ! ?EGA 
 @ IF 
  $A200 HBUF-SE_ ! 
 THEN 
 ; 

( @B4DF-B4F7 XT:B4EB CFA:224C DLen: 12 STAGE: Dictionaries)
: LDFONTS
 FONTSEG @ $008F FILE< ; 

( @B4F7-B557 XT:B503 CFA:224C DLen: 84 STAGE: Dictionaries)
: CONFIGU_________
 SETMAXDRV CFIGARR___ LFSEG @ @DS $1000 + - 0 66 U/MOD SWAP DROP DUP [#CACHE_ ! $00D0 
 MIN #CACHE ! AUTO-CACHE BUFFER-BEGIN @ SEG>ADDR DUP [STARFLT:54A1] ! $0410 + [STARFLT:54A5] 
 ! MOUNTA LOAD-CO__ NODRIVES ICINIT [STARFLT:B3E4] SETDBUF ; 

( @B557-B569 XT:B563 CFA:224C DLen: 6 STAGE: Dictionaries)
: STARTER
 CONFIGU_________ DOSPARM ; 

( @B569-B573 XT:B571 CFA:224C DLen: 2 STAGE: Dictionaries)
: DOS
 ; 

( Data:Vocabulary @B573-B591 XT:B57D CFA:1AB5 DLen: 20 STAGE: Dictionaries)
VOCABULARY MUSIC
  $B58B, $081C, $0000, $0000, $0000, $0000, $0000, $0000, $FFFF, $081A

( @B591-B5A0 XT:B59E CFA:83F8 DLen: 2 STAGE: Dictionaries)
137 OVERLAY MUSIC-OV

( @B5A0-B5B0 XT:B5AA CFA:224C DLen: 6 STAGE: Dictionaries)
: HIMUS
 MUSIC-OV INTROS ; 

( Data:DoubleWord @B5B0-B5C2 XT:B5BE CFA:3B68 DLen: 4 STAGE: Dictionaries)
$009B46. ( CLASS:TVEHICLE ) 2C= *CAPT-LOG

( Data:DoubleWord @B5C2-B5CE XT:B5CA CFA:3B68 DLen: 4 STAGE: Dictionaries)
$009AE5. ( CLASS:OPERATIONS ) 2C= *OP

( Data:DoubleWord @B5CE-B5E0 XT:B5DC CFA:3B68 DLen: 4 STAGE: Dictionaries)
$010512. ( ORIGINATOR:Communication Officer ) 2C= *COMM-OFF

( Data:DoubleWord @B5E0-B5ED XT:B5E9 CFA:3B68 DLen: 4 STAGE: Dictionaries)
$01EDAB. ( BOX:END OF LIST ) 2C= *EOL

( Data:IAaddrArray @B5ED-B622 XT:B5F8 CFA:1D29 DLen: 42 STAGE: Dictionaries)
CREATE OTABLE
  $016090. ( ORIGINATOR:Elowan ) , 
  $01AD88. ( ORIGINATOR:Gazurt ) , 
  $011277. ( ORIGINATOR:Mechan 9 ) , 
  $01B896. ( ORIGINATOR:Mysteron ) , 
  $01BC55. ( ORIGINATOR:Nomad ) , 
  $01307C. ( ORIGINATOR:Spemin ) , 
  $018272. ( ORIGINATOR:Thryn ) , 
  $00DAC0. ( ORIGINATOR:Velox ) , 
  $0111BF. ( ORIGINATOR:Uhlek ) , 
  $0111FB. ( ORIGINATOR:Velox Probe ) , 
  $00D66E. ( ORIGINATOR:Minstrel ) , 
  $0111DD. ( ORIGINATOR:USS Enterprise ) , 
  $00D441. ( ORIGINATOR:Last Hope ) , 
  $01C155. ( ORIGINATOR:Police ) , 

( Data:Case @B622-B63B XT:B62B CFA:4A4F DLen: 16 STAGE: Dictionaries)
CASE +ORG
 18 IS 0
 19 IS 1
 21 IS 2
 OTHERS -1

( @B63B-B660 XT:B648 CFA:224C DLen: 24 STAGE: Dictionaries)
: ORGIADDR
 DUP 11 MIN SWAP +ORG + 3 * OTABLE + ; 

( @B660-B680 XT:B66E CFA:224C DLen: 18 STAGE: Dictionaries)
: XHBUF-SEG
 ?EGA @ IF 
  XBUF-SE_ 
 ELSE 
  HBUF-SE_ 
 THEN 
 ; 

( Data:Variable @B680-B68F XT:B68D CFA:1D29 DLen: 2 STAGE: Dictionaries)
VARIABLE COND-CNT ( @B68D=13)

( Data:Word @B68F-B69A XT:B698 CFA:2214 DLen: 2 STAGE: Dictionaries)
1 CONSTANT TRUE

( Data:Word @B69A-B6A6 XT:B6A4 CFA:2214 DLen: 2 STAGE: Dictionaries)
0 CONSTANT FALSE

( Data:Word @B6A6-B6B4 XT:B6B2 CFA:2214 DLen: 2 STAGE: Dictionaries)
$00FF CONSTANT UNKNOWN

( Data:Word @B6B4-B6C2 XT:B6C0 CFA:2214 DLen: 2 STAGE: Dictionaries)
$EB86 CONSTANT RULELIM

( Data:Word @B6C2-B6D0 XT:B6CE CFA:2214 DLen: 2 STAGE: Dictionaries)
$EB87 CONSTANT CONDLIM

( Data:Word @B6D0-B6DE XT:B6DC CFA:2214 DLen: 2 STAGE: Dictionaries)
$EB88 CONSTANT RULECNT

( Data:Word @B6DE-B6EC XT:B6EA CFA:2214 DLen: 2 STAGE: Dictionaries)
$EB89 CONSTANT RULEARR

( Data:Word @B6EC-B6FA XT:B6F8 CFA:2214 DLen: 2 STAGE: Dictionaries)
$EB97 CONSTANT CONDARR

( Data:Word @B6FA-B708 XT:B706 CFA:2214 DLen: 2 STAGE: Dictionaries)
$EBB3 CONSTANT CFLGARR

( @B708-B71A XT:B710 CFA:224C DLen: 10 STAGE: Dictionaries)
: XC@
 C@ 127 AND ; 

( @B71A-B730 XT:B722 CFA:224C DLen: 14 STAGE: Dictionaries)
: C+!
 DUP C@ ROT + SWAP C! ; 

( @B730-B788 XT:B73C CFA:224C DLen: 76 STAGE: Dictionaries)
: >EXPERT
 >R I ' RULELIM ( $B6C0 ) ! I 1+ ' CONDLIM ( $B6CE ) ! I 2+ ' RULECNT ( $B6DC ) ! 
 R> 3 + ' RULEARR ( $B6EA ) ! RULELIM C@ 2* RULEARR + ' CONDARR ( $B6F8 ) ! CONDLIM 
 C@ 2* CONDARR + ' CFLGARR ( $B706 ) ! ; 

( @B788-B7A3 XT:B795 CFA:224C DLen: 14 STAGE: Dictionaries)
: DISTRACT
 >EXPERT CFLGARR CONDLIM C@ UNKNOWN FILL ; 

( @B7A3-B834 XT:B7B4 CFA:224C DLen: 128 STAGE: Dictionaries)
: EXECUTE-RULE
 >R TRUE I 3 + DUP I C@ + SWAP DO 
  CFLGARR I XC@ + C@ DUP UNKNOWN = IF 
   DROP CONDARR I XC@ 2* + @EXECUTE NOT NOT DUP CFLGARR I XC@ + C! 
  THEN 
  I C@ $0080 AND NOT NOT = AND DUP 0= IF 
   LEAVE 
  THEN 
  1 
 /LOOP 
 DUP IF 
  >R I' 1+ @EXECUTE R> 
 THEN 
 R> DROP ; 

( @B834-B8C6 XT:B83F CFA:224C DLen: 135 STAGE: Dictionaries)
: EXPERT
 COND-CNT OFF CREATE HERE >R C, C, 0 C, R> >EXPERT RULELIM C@ 2* CONDLIM C@ 3 * + 
 ALLOT DOES> ( CFA @B869 ) 
  DUP >EXPERT >V RULEARR DUP RULECNT C@ 2* + SWAP DO 
   I @ EXECUTE-RULE IF 
    V> DUP >EXPERT NOT >V LEAVE I RULEARR - 2/ 2/ 2* RULEARR + DUP @ I @ SWAP I ! 
    SWAP ! 
   THEN 
   2 
  /LOOP 
  V> NOT ; 

( @B8C6-B8D2 XT:B8CE CFA:224C DLen: 4 STAGE: Dictionaries)
: -->
 [COMPILE] ' ; 

( @B8D2-B90F XT:B8DD CFA:224C DLen: 50 STAGE: Dictionaries)
: ?INDEX
 >R -1 COND-CNT @ 2* 0 DO 
  CONDARR I + @ J = IF 
   DROP I 2/ LEAVE 
  THEN 
  2 
 /LOOP 
 R> DROP ; 

( @B90F-B980 XT:B91D CFA:224C DLen: 99 STAGE: Dictionaries)
: CONDITION
 --> >R I ' --> ( $B8CE ) = NOT IF 
  CONDLIM C@ COND-CNT @ > NOT ABORT" Condition overflow" I ?INDEX DUP 0< IF 
   DROP COND-CNT @ I OVER 2* CONDARR + ! 1 COND-CNT +! 
  THEN 
 ELSE 
  -1 
 THEN 
 R> DROP ; 

( @B980-BA1F XT:B98A CFA:224C DLen: 149 STAGE: Dictionaries)
: RULE:
 RULELIM C@ RULECNT C@ > NOT ABORT" Rule overflow" HERE 0 C, ' NOP ( $3A48 ) , BEGIN 
  CONDITION DUP 0< NOT IF 
   [COMPILE] ' DUP ' TRUE ( $B698 ) = OVER ' FALSE ( $B6A4 ) = OR NOT ABORT" TRUE or FALSE needed" 
   EXECUTE $0080 * + C, 1 OVER C+! 0 
  THEN 
 UNTIL 
 --> OVER 1+ ! RULECNT C@ 2* RULEARR + ! 1 RULECNT C+! ; 

( Data:Vocabulary @BA1F-BA3E XT:BA2A CFA:1AB5 DLen: 20 STAGE: Dictionaries)
VOCABULARY IT-VOC
  $BA38, $B57F, $0000, $0000, $0000, $0000, $0000, $0000, $FFFF, $081A

( @BA3E-BA4A XT:BA48 CFA:83F8 DLen: 2 STAGE: Dictionaries)
131 OVERLAY IT-OV

( @BA4A-BA54 XT:BA4C CFA:224C DLen: 8 STAGE: Words)
: [STARFLT:BA4C]
 IT-OV DATE$>ADR OV-CANCle ; 

( @BA54-BA5E XT:BA56 CFA:224C DLen: 8 STAGE: Words)
: [STARFLT:BA56]
 IT-OV BOX>LIST OV-CANCle ; 

( @BA5E-BA68 XT:BA60 CFA:224C DLen: 8 STAGE: Words)
: [STARFLT:BA60]
 IT-OV GET-BOXES OV-CANCle ; 

( @BA68-BA72 XT:BA6A CFA:224C DLen: 8 STAGE: Words)
: [STARFLT:BA6A]
 IT-OV MAKE-SCROLL-BOX OV-CANCle ; 

( @BA72-BA7C XT:BA74 CFA:224C DLen: 8 STAGE: Words)
: [STARFLT:BA74]
 IT-OV DELETE-SCROLL-BOX OV-CANCle ; 

( @BA7C-BA86 XT:BA7E CFA:224C DLen: 8 STAGE: Words)
: [STARFLT:BA7E]
 IT-OV BOX>TOCS OV-CANCle ; 

( @BA86-BA90 XT:BA88 CFA:224C DLen: 8 STAGE: Words)
: [STARFLT:BA88]
 IT-OV >BOX OV-CANCle ; 

( @BA90-BA9A XT:BA92 CFA:224C DLen: 8 STAGE: Words)
: [STARFLT:BA92]
 IT-OV BOX> OV-CANCle ; 

( @BA9A-BAA4 XT:BA9C CFA:224C DLen: 8 STAGE: Words)
: [STARFLT:BA9C]
 IT-OV (BOX>) OV-CANCle ; 

( @BAA4-BAAE XT:BAA6 CFA:224C DLen: 8 STAGE: Words)
: [STARFLT:BAA6]
 IT-OV CLASS>BOX-SPEC OV-CANCle ; 

( @BAAE-BAB8 XT:BAB0 CFA:224C DLen: 8 STAGE: Words)
: [STARFLT:BAB0]
 IT-OV ITEM>PAD OV-CANCle ; 

( @BAB8-BACC XT:BAC4 CFA:224C DLen: 8 STAGE: Dictionaries)
: DATE$>A__
 ' [STARFLT:BA4C] ( $BA4C ) MODULE ; 

( @BACC-BAE0 XT:BAD8 CFA:224C DLen: 8 STAGE: Dictionaries)
: BOX>LIS_
 ' [STARFLT:BA56] ( $BA56 ) MODULE ; 

( @BAE0-BAF4 XT:BAEC CFA:224C DLen: 8 STAGE: Dictionaries)
: GET-BOX__
 ' [STARFLT:BA60] ( $BA60 ) MODULE ; 

( @BAF4-BB08 XT:BB00 CFA:224C DLen: 8 STAGE: Dictionaries)
: MAKE-SC________
 ' [STARFLT:BA6A] ( $BA6A ) MODULE ; 

( @BB08-BB1C XT:BB14 CFA:224C DLen: 8 STAGE: Dictionaries)
: DELETE-__________
 ' [STARFLT:BA74] ( $BA74 ) MODULE ; 

( @BB1C-BB30 XT:BB28 CFA:224C DLen: 8 STAGE: Dictionaries)
: BOX>TOC_
 ' [STARFLT:BA7E] ( $BA7E ) MODULE ; 

( @BB30-BB41 XT:BB39 CFA:224C DLen: 8 STAGE: Dictionaries)
: >BOX
 ' [STARFLT:BA88] ( $BA88 ) MODULE ; 

( @BB41-BB52 XT:BB4A CFA:224C DLen: 8 STAGE: Dictionaries)
: BOX>
 ' [STARFLT:BA92] ( $BA92 ) MODULE ; 

( @BB52-BB65 XT:BB5D CFA:224C DLen: 8 STAGE: Dictionaries)
: (BOX>)
 ' [STARFLT:BA9C] ( $BA9C ) MODULE ; 

( @BB65-BB79 XT:BB71 CFA:224C DLen: 8 STAGE: Dictionaries)
: CLASS>B_______
 ' [STARFLT:BAA6] ( $BAA6 ) MODULE ; 

( @BB79-BB8D XT:BB85 CFA:224C DLen: 8 STAGE: Dictionaries)
: ITEM>PA_
 ' [STARFLT:BAB0] ( $BAB0 ) MODULE ; 

( Data:Variable @BB8D-BB9A XT:BB98 CFA:1D29 DLen: 2 STAGE: Dictionaries)
VARIABLE BTADDR ( @BB98=$BCB1 ( ' _huff-table ))

( Data:Variable @BB9A-BB9E XT:BB9C CFA:1D29 DLen: 2 STAGE: Words)
VARIABLE _ht-offset ( @BB9C=$203A)

( Data:Variable @BB9E-BBA2 XT:BBA0 CFA:1D29 DLen: 2 STAGE: Words)
VARIABLE _input-pos ( @BBA0=$203A)

( Data:Variable @BBA2-BBA6 XT:BBA4 CFA:1D29 DLen: 2 STAGE: Words)
VARIABLE _output-len ( @BBA4=$203A)

( Data:Variable @BBA6-BBAA XT:BBA8 CFA:1D29 DLen: 2 STAGE: Words)
VARIABLE _huff-bitmask ( @BBA8=$203A)

( Data:Word @BBAA-BBAE XT:BBAC CFA:2214 DLen: 2 STAGE: Words)
$BC8F ( ' _output ) CONSTANT '_output

( Data:Word @BBAE-BBB2 XT:BBB0 CFA:2214 DLen: 2 STAGE: Words)
$BC87 ( ' _output-init ) CONSTANT '_output-init

( Data:Word @BBB2-BBB6 XT:BBB4 CFA:2214 DLen: 2 STAGE: Words)
$BCA5 ( ' _output-final ) CONSTANT '_output-final

( @BBB6-BBDC XT:BBB8 CFA:224C DLen: 36 STAGE: Words)
: _adjust_offsets
 _huff-bitmask @ DUP $0080 = _input-pos +! 2/ DUP 0= $0080 * + _huff-bitmask ! ; 

( @BBDC-BC2C XT:BBDE CFA:224C DLen: 78 STAGE: Words)
: _process_byte
 _huff-bitmask C@ AND 0> BTADDR @ + _ht-offset @ + C@ DUP $0080 AND IF 
  127 AND 2* _ht-offset +! 
 ELSE 
  1 _output-len +! '_output EXECUTE _ht-offset OFF 
 THEN 
 _adjust_offsets _huff-bitmask @ $0080 = ; 

( @BC2C-BC76 XT:BC36 CFA:224C DLen: 64 STAGE: Dictionaries)
: HUFF>
 _ht-offset OFF _output-len OFF _input-pos OFF $0080 _huff-bitmask ! '_output-init 
 EXECUTE BEGIN 
  DUP _output-len @ > WHILE 
  BEGIN 
   OVER _input-pos @ + C@ _process_byte 
  UNTIL 
 REPEAT 
 2DROP '_output-final EXECUTE ; 

( Data:IField @BC76-BC85 XT:BC82 CFA:744D DLen: 3 STAGE: Dictionaries)
48 11 0 IFIELD PHRASE$ ( STRING )

( @BC85-BC8D XT:BC87 CFA:224C DLen: 6 STAGE: Memory)
: _output-init
 LSCAN OFF ; 

( @BC8D-BCA3 XT:BC8F CFA:224C DLen: 20 STAGE: Memory)
: _output
 LSCAN DUP C@ + 1+ C! 1 LSCAN +! ; 

( @BCA3-BCB1 XT:BCA5 CFA:224C DLen: 12 STAGE: Memory)
: _output-final
 PHRASE$ 1+ C@ LSCAN C! ; 

( Data:ByteArray @BCB1-BD15 XT:BCB3 CFA:0000 DLen: 98 STAGE: Memory - Gap)
 _huff-table 98 ALLOT ( @BCB3 =
@BCB3 96 81 81 20 83 81 81 48 59 43 82 81 4D 57 81 2E   ... ...HYC..MW..
@BCC3 81 42 84 81 31 81 5A 81 34 33 86 81 51 81 81 32   .B..1.Z.43..Q..2
@BCD3 81 25 2B 81 23 28 81 3F 39 81 37 2A 84 81 54 81   .%+.#(.?9.7*..T.
@BCE3 81 4C 50 46 53 4F 8D 81 82 81 4E 41 49 81 81 55   .LPFSO....NAI..U
@BCF3 81 47 2C 81 81 58 27 81 81 21 35 81 26 81 29 2F   .G,..X'..!5.&.)/
@BD03 81 45 81 52 81 44 81 56 4B 81 81 30 81 2D 81 4A   .E.R.D.VK..0.-.J
@BD13 36 38                                             68              
 )

( Data:Vocabulary @BD15-BD33 XT:BD1F CFA:1AB5 DLen: 20 STAGE: Dictionaries)
VOCABULARY MISC-___
  $BD2D, $BA2C, $F47A, $0000, $0000, $0000, $0000, $0000, $FFFF, $081A

( @BD33-BD3F XT:BD3D CFA:83F8 DLen: 2 STAGE: Dictionaries)
79 OVERLAY MISC-__

( @BD3F-BD50 XT:BD4A CFA:224C DLen: 6 STAGE: Dictionaries)
: =CARGO
 MISC-__ =CARG_ ; 

( @BD50-BD61 XT:BD5B CFA:224C DLen: 6 STAGE: Dictionaries)
: OV#IN$
 MISC-__ (#IN$_ ; 

( @BD61-BD76 XT:BD70 CFA:224C DLen: 6 STAGE: Dictionaries)
: OVQUITMESS
 MISC-__ (QUIT_____ ; 

( @BD76-BD88 XT:BD82 CFA:224C DLen: 6 STAGE: Dictionaries)
: OV.0$$$
 MISC-__ (.0$$__ ; 

( @BD88-BD9D XT:BD97 CFA:224C DLen: 6 STAGE: Dictionaries)
: OV0$$$MESS
 MISC-__ (0$$$_____ ; 

( @BD9D-BDAE XT:BDA8 CFA:224C DLen: 6 STAGE: Dictionaries)
: OVTRIM
 MISC-__ (TRIM_ ; 

( @BDAE-BDC8 XT:BDBA CFA:224C DLen: 14 STAGE: Dictionaries)
: OVTRIMS
 MISC-__ 0 DO 
  (TRIM_ 
 LOOP 
 ; 

( @BDC8-BDDE XT:BDD8 CFA:224C DLen: 6 STAGE: Dictionaries)
: OV?ARTIFACT
 MISC-__ (?ART______ ; 

( @BDDE-BDF5 XT:BDEF CFA:224C DLen: 6 STAGE: Dictionaries)
: OV?.EQUIP-OK
 MISC-__ (?.EQ_______ ; 

( Data:Vocabulary @BDF5-BE15 XT:BE01 CFA:1AB5 DLen: 20 STAGE: Dictionaries)
VOCABULARY ENG-VOC
  $BE0F, $BD21, $F40D, $0000, $0000, $0000, $0000, $0000, $FFFF, $081A

( @BE15-BE21 XT:BE1F CFA:83F8 DLen: 2 STAGE: Dictionaries)
98 OVERLAY ENG-O_

( @BE21-BE31 XT:BE2B CFA:224C DLen: 6 STAGE: Dictionaries)
: OV/DA____
 ENG-O_ (/DAMAGE) ; 

( @BE31-BE41 XT:BE3B CFA:224C DLen: 6 STAGE: Dictionaries)
: OV/RE____
 ENG-O_ (/REPAIR) ; 

( @BE41-BE51 XT:BE4B CFA:224C DLen: 6 STAGE: Dictionaries)
: OVDBA__
 ENG-O_ DBARS ; 

( Data:Vocabulary @BE51-BE71 XT:BE5D CFA:1AB5 DLen: 20 STAGE: Dictionaries)
VOCABULARY BLT-VOC
  $BE6B, $BE03, $F528, $0000, $0000, $0000, $0000, $0000, $FFFF, $081A

( @BE71-BE7E XT:BE7C CFA:83F8 DLen: 2 STAGE: Dictionaries)
78 OVERLAY BLT-OV

( @BE7E-BE90 XT:BE8A CFA:224C DLen: 6 STAGE: Dictionaries)
: .RUNBIT
 BLT-OV .RUNBIT ; 

( @BE90-BEA3 XT:BE9D CFA:224C DLen: 6 STAGE: Dictionaries)
: @.HYBRID
 BLT-OV @.HYBRID ; 

( @BEA3-BEB8 XT:BEB2 CFA:224C DLen: 6 STAGE: Dictionaries)
: .EGARUNBIT
 BLT-OV .EGARUNBIT ; 

( Data:Vocabulary @BEB8-BED8 XT:BEC4 CFA:1AB5 DLen: 20 STAGE: Dictionaries)
VOCABULARY SCI-VOC
  $BED2, $BE5F, $F426, $0000, $0000, $0000, $0000, $0000, $FFFF, $081A

( @BED8-BEE5 XT:BEE3 CFA:83F8 DLen: 2 STAGE: Dictionaries)
102 OVERLAY SCI-OV

( @BEE5-BEF9 XT:BEF3 CFA:224C DLen: 6 STAGE: Dictionaries)
: OV/STATUS
 SCI-OV (/STATUS) ; 

( @BEF9-BF0B XT:BF05 CFA:224C DLen: 6 STAGE: Dictionaries)
: OV/STXT
 SCI-OV .STAT-TEXT ; 

( @BF0B-BF22 XT:BF1A CFA:224C DLen: 8 STAGE: Dictionaries)
: OVSTARDATE
 SCI-OV 0 .STARDATE ; 

( @BF22-BF37 XT:BF31 CFA:224C DLen: 6 STAGE: Dictionaries)
: OV/SENSORS
 SCI-OV (/SENSORS) ; 

( @BF37-BF48 XT:BF42 CFA:224C DLen: 6 STAGE: Dictionaries)
: ?HEAVY
 SCI-OV ?HEAVY ; 

( @BF48-BF5E XT:BF56 CFA:224C DLen: 8 STAGE: Dictionaries)
: /STARDATE
 ' OVSTARDATE ( $BF1A ) MODULE ; 

( @BF5E-BF8C XT:BF68 CFA:224C DLen: 36 STAGE: Dictionaries)
: .SORD
 #AUX @ DUP 1 = IF 
  ' OV/STXT ( $BF05 ) MODULE 
 THEN 
 3 = IF 
  ' OVDBA__ ( $BE4B ) MODULE 
 THEN 
 ; 

( @BF8C-BFA4 XT:BF98 CFA:224C DLen: 12 STAGE: Dictionaries)
: ?VCYCLE
 TIME 2@ VSTIME 2@ D> ; 

( Data:Variable @BFA4-BFB1 XT:BFAF CFA:1D29 DLen: 2 STAGE: Dictionaries)
VARIABLE HEALTI__ ( @BFAF=$4520)

( Data @BFB1-BFC0 XT:BFBC CFA:1D29 DLen: 4 STAGE: Dictionaries)
CREATE LASTAP_____ 4 ALLOT ( @BFBC =
@BFBC 49 4E 54 20                                       INT             
 )

( Data @BFC0-BFDD XT:BFCB CFA:1D29 DLen: 18 STAGE: Dictionaries)
CREATE ROSTER 18 ALLOT ( @BFCB =
@BFCB 00 00 00 00 00 00 00 00 00 00 00 00 00 00 00 00   ................
@BFDB 00 00                                             ..              
 )

( Data:Vocabulary @BFDD-BFFC XT:BFE8 CFA:1AB5 DLen: 20 STAGE: Dictionaries)
VOCABULARY HEALER
  $BFF6, $BEC6, $F51D, $0000, $0000, $0000, $0000, $0000, $FFFF, $081A

( @BFFC-C009 XT:C007 CFA:83F8 DLen: 2 STAGE: Dictionaries)
118 OVERLAY HEAL-O_

( @C009-C018 XT:C012 CFA:224C DLen: 6 STAGE: Dictionaries)
: (OBI___
 HEAL-O_ OBITS ; 

( @C018-C027 XT:C021 CFA:224C DLen: 6 STAGE: Dictionaries)
: (.VI___
 HEAL-O_ .VITS ; 

( @C027-C036 XT:C030 CFA:224C DLen: 6 STAGE: Dictionaries)
: (HEA__
 HEAL-O_ HEAL ; 

( @C036-C045 XT:C03F CFA:224C DLen: 6 STAGE: Dictionaries)
: (ROL__
 HEAL-O_ ROLE-C___ ; 

( @C045-C056 XT:C04E CFA:224C DLen: 8 STAGE: Dictionaries)
: OBIT_
 ' (OBI___ ( $C012 ) MODULE ; 

( @C056-C067 XT:C05F CFA:224C DLen: 8 STAGE: Dictionaries)
: HEAL
 ' (HEA__ ( $C030 ) MODULE ; 

( @C067-C078 XT:C070 CFA:224C DLen: 8 STAGE: Dictionaries)
: .VIT_
 ' (.VI___ ( $C021 ) MODULE ; 

( @C078-C0AF XT:C081 CFA:224C DLen: 46 STAGE: Dictionaries)
: ?APP____
 TIME 2@ LASTAP_____ 2@ HEALTI__ @ 0 D+ D> ?HEAL @ AND IF 
  TIME 2@ LASTAP_____ 2! 1 
 ELSE 
  0 
 THEN 
 ; 

( Data:Vocabulary @C0AF-C0CE XT:C0BA CFA:1AB5 DLen: 20 STAGE: Dictionaries)
VOCABULARY REPAIR
  $C0C8, $BFEA, $F4D9, $0000, $0000, $0000, $0000, $0000, $FFFF, $081A

( @C0CE-C0DC XT:C0DA CFA:83F8 DLen: 2 STAGE: Dictionaries)
119 OVERLAY REPAIR-__

( @C0DC-C0F8 XT:C0E8 CFA:224C DLen: 16 STAGE: Dictionaries)
: DO-REPA__
 REPAIR-__ DO-REPA__ SAVE-OVerlay TIME 2@ LASTREP___ 2! ; 

( @C0F8-C12A XT:C104 CFA:224C DLen: 38 STAGE: Dictionaries)
: ?SHIP-R_____
 TIME 2@ LASTREP___ 2@ D- DABS REPAIRT___ @ 0 D> ?REPAIR @ AND ?REPAIR @ 1 = OR ; 

( @C12A-C156 XT:C136 CFA:224C DLen: 32 STAGE: Dictionaries)
: MREPAIR
 ?SHIP-R_____ IF 
  ' DO-REPA__ ( $C0E8 ) MODULE #AUX @ 3 = IF 
   ' OVDBA__ ( $BE4B ) MODULE 
  THEN 
 THEN 
 ; 

( Data:Vocabulary @C156-C177 XT:C163 CFA:1AB5 DLen: 20 STAGE: Dictionaries)
VOCABULARY COMM-VOC
  $C171, $C0BC, $F532, $0000, $0000, $0000, $0000, $0000, $FFFF, $081A

( @C177-C185 XT:C183 CFA:83F8 DLen: 2 STAGE: Dictionaries)
93 OVERLAY COMM-OV

( @C185-C19D XT:C195 CFA:224C DLen: 8 STAGE: Dictionaries)
: OVINIT-COMM
 COMM-OV ICOMM SAVE-OVerlay ; 

( @C19D-C1B0 XT:C1A8 CFA:224C DLen: 8 STAGE: Dictionaries)
: U-COMM
 COMM-OV CL1 SAVE-OVerlay ; 

( @C1B0-C1C9 XT:C1C1 CFA:224C DLen: 8 STAGE: Dictionaries)
: COMM-EXPERTS
 COMM-OV COMM-EXPERTS SAVE-OVerlay ; 

( @C1C9-C1D9 XT:C1D1 CFA:224C DLen: 8 STAGE: Dictionaries)
: A>O
 COMM-OV A>ORIGINATOR SAVE-OVerlay ; 

( @C1D9-C1E9 XT:C1E1 CFA:224C DLen: 8 STAGE: Dictionaries)
: O>C
 COMM-OV ORIGINATOR>C SAVE-OVerlay ; 

( @C1E9-C1F9 XT:C1F3 CFA:224C DLen: 6 STAGE: Dictionaries)
: >HAIL
 COMM-OV >HAIL$ ; 

( @C1F9-C20D XT:C205 CFA:224C DLen: 8 STAGE: Dictionaries)
: OV+!EDL
 COMM-OV +!EDL SAVE-OVerlay ; 

( @C20D-C21E XT:C216 CFA:224C DLen: 8 STAGE: Dictionaries)
: P>CT
 COMM-OV (PHRASE>CT) SAVE-OVerlay ; 

( @C21E-C22D XT:C227 CFA:224C DLen: 6 STAGE: Dictionaries)
: CTUP
 COMM-OV CTSCROLL ; 

( @C22D-C243 XT:C23B CFA:224C DLen: 8 STAGE: Dictionaries)
: OVEDL+AUX
 COMM-OV EDL+AUX SAVE-OVerlay ; 

( @C243-C25D XT:C255 CFA:224C DLen: 8 STAGE: Dictionaries)
: MCOMM-EXPERTS
 ' COMM-EXPERTS ( $C1C1 ) MODULE ; 

( @C25D-C272 XT:C26A CFA:224C DLen: 8 STAGE: Dictionaries)
: MEDL+AUX
 ' OVEDL+AUX ( $C23B ) MODULE ; 

( @C272-C285 XT:C27D CFA:224C DLen: 8 STAGE: Dictionaries)
: DA-STR
 COMM-OV IAPWR SAVE-OVerlay ; 

( Data:Vocabulary @C285-C2A6 XT:C292 CFA:1AB5 DLen: 20 STAGE: Dictionaries)
VOCABULARY XCOM-VOC
  $C2A0, $C165, $F4F4, $0000, $0000, $0000, $0000, $0000, $FFFF, $081A

( @C2A6-C2B4 XT:C2B2 CFA:83F8 DLen: 2 STAGE: Dictionaries)
94 OVERLAY XCOM-OV

( @C2B4-C2C4 XT:C2BE CFA:224C DLen: 6 STAGE: Dictionaries)
: XCOMM
 XCOM-OV (XCOMM) ; 

( Data:Vocabulary @C2C4-C2E2 XT:C2CE CFA:1AB5 DLen: 20 STAGE: Dictionaries)
VOCABULARY FRACT
  $C2DC, $C294, $F0FB, $0000, $0000, $0000, $0000, $0000, $FFFF, $081A

( @C2E2-C2F1 XT:C2EF CFA:83F8 DLen: 2 STAGE: Dictionaries)
71 OVERLAY FRACT-OV

( @C2F1-C308 XT:C302 CFA:224C DLen: 6 STAGE: Dictionaries)
: MERCATOR-GEN
 FRACT-OV MERCATOR-GEN ; 

( @C308-C31D XT:C317 CFA:224C DLen: 6 STAGE: Dictionaries)
: NEWCONTOUR
 FRACT-OV NEWCONTOUR ; 

( @C31D-C332 XT:C32C CFA:224C DLen: 6 STAGE: Dictionaries)
: MAKE-GLOBE
 FRACT-OV MAKE-GLOBE ; 

( @C332-C344 XT:C33E CFA:224C DLen: 6 STAGE: Dictionaries)
: SCRLCON
 FRACT-OV SCRLCON ; 

( Data:Vocabulary @C344-C362 XT:C34E CFA:1AB5 DLen: 20 STAGE: Dictionaries)
VOCABULARY ORBIT
  $C35C, $C2D0, $F488, $0000, $0000, $0000, $0000, $0000, $FFFF, $081A

( @C362-C371 XT:C36F CFA:83F8 DLen: 2 STAGE: Dictionaries)
100 OVERLAY ORBIT-OV

( @C371-C388 XT:C380 CFA:224C DLen: 8 STAGE: Dictionaries)
: INIT-ORBIT
 ORBIT-OV INIT-ORBIT SAVE-OVerlay ; 

( @C388-C39B XT:C395 CFA:224C DLen: 6 STAGE: Dictionaries)
: SHOWSITE
 ORBIT-OV SHOWSITE ; 

( @C39B-C3AF XT:C3A7 CFA:224C DLen: 8 STAGE: Dictionaries)
: DESCEND
 ORBIT-OV DESCEND SAVE-OVerlay ; 

( @C3AF-C3C2 XT:C3BA CFA:224C DLen: 8 STAGE: Dictionaries)
: ASCEND
 ORBIT-OV ASCEND SAVE-OVerlay ; 

( @C3C2-C3D5 XT:C3CD CFA:224C DLen: 8 STAGE: Dictionaries)
: ROTATE
 ORBIT-OV ROTATE SAVE-OVerlay ; 

( @C3D5-C3E7 XT:C3E1 CFA:224C DLen: 6 STAGE: Dictionaries)
: SEEGRID
 ORBIT-OV SEEGRID ; 

( @C3E7-C3FB XT:C3F3 CFA:224C DLen: 8 STAGE: Dictionaries)
: MROTATE
 ' ROTATE ( $C3CD ) MODULE ; 

( Data:Vocabulary @C3FB-C41A XT:C406 CFA:1AB5 DLen: 20 STAGE: Dictionaries)
VOCABULARY VICONP
  $C414, $C350, $F51D, $0000, $0000, $0000, $0000, $0000, $FFFF, $081A

( @C41A-C429 XT:C427 CFA:83F8 DLen: 2 STAGE: Dictionaries)
72 OVERLAY ICONP-OV

( @C429-C43D XT:C437 CFA:224C DLen: 6 STAGE: Dictionaries)
: ICON-PARM
 ICONP-OV ICON-PARM ; 

( @C43D-C451 XT:C44B CFA:224C DLen: 6 STAGE: Dictionaries)
: +ICONBXOV
 ICONP-OV +ICONBOX ; 

( Data:Vocabulary @C451-C472 XT:C45E CFA:1AB5 DLen: 20 STAGE: Dictionaries)
VOCABULARY SITE-VOC
  $C46C, $C408, $F52D, $0000, $0000, $0000, $0000, $0000, $FFFF, $081A

( @C472-C480 XT:C47E CFA:83F8 DLen: 2 STAGE: Dictionaries)
73 OVERLAY SITE-OV

( @C480-C494 XT:C48C CFA:224C DLen: 8 STAGE: Dictionaries)
: (.MERC)
 SITE-OV .MERCATOR OV-CANCle ; 

( @C494-C4AC XT:C4A2 CFA:224C DLen: 10 STAGE: Dictionaries)
: (GETSITE)
 SITE-OV GETSITE SAVE-OVerlay OV-CANCle ; 

( Data:Vocabulary @C4AC-C4CD XT:C4B9 CFA:1AB5 DLen: 20 STAGE: Dictionaries)
VOCABULARY FLUX-VOC
  $C4C7, $C460, $F4FE, $0000, $0000, $0000, $0000, $0000, $FFFF, $081A

( @C4CD-C4DB XT:C4D9 CFA:83F8 DLen: 2 STAGE: Dictionaries)
109 OVERLAY FLUX-OV

( @C4DB-C4EB XT:C4E5 CFA:224C DLen: 6 STAGE: Dictionaries)
: OVFLU________
 FLUX-OV FLUX ; 

( Data:Vocabulary @C4EB-C50C XT:C4F8 CFA:1AB5 DLen: 20 STAGE: Dictionaries)
VOCABULARY BANK-VOC
  $C506, $C4BB, $F4E4, $0000, $0000, $0000, $0000, $0000, $FFFF, $081A

( @C50C-C51A XT:C518 CFA:83F8 DLen: 2 STAGE: Dictionaries)
80 OVERLAY BANK-OV

( @C51A-C533 XT:C52D CFA:224C DLen: 6 STAGE: Dictionaries)
: OVINIT-BALANCE
 BANK-OV INIT-BALANCE ; 

( @C533-C548 XT:C542 CFA:224C DLen: 6 STAGE: Dictionaries)
: OVTRANSACT
 BANK-OV TRANSACT ; 

( @C548-C55E XT:C558 CFA:224C DLen: 6 STAGE: Dictionaries)
: OVD@BALANCE
 BANK-OV D@BALANCE ; 

( @C55E-C574 XT:C56E CFA:224C DLen: 6 STAGE: Dictionaries)
: OVD!BALANCE
 BANK-OV D!BALANCE ; 

( @C574-C589 XT:C583 CFA:224C DLen: 6 STAGE: Dictionaries)
: OV?BALANCE
 BANK-OV ?BALANCE ; 

( @C589-C59C XT:C596 CFA:224C DLen: 6 STAGE: Dictionaries)
: OV!TFLAG
 BANK-OV !TFLAG ; 

( @C59C-C5AE XT:C5A8 CFA:224C DLen: 6 STAGE: Dictionaries)
: I-TRANS
 BANK-OV INT% ; 

( @C5AE-C5BC XT:C5B6 CFA:224C DLen: 6 STAGE: Dictionaries)
: U-B
 BANK-OV (U-BANK) ; 

( @C5BC-C5D6 XT:C5CA CFA:224C DLen: 12 STAGE: Dictionaries)
: T+BALANCE
 BANK-OV D@BALANCE D+ D!BALANCE !TFLAG ; 

( Data:Vocabulary @C5D6-C5F8 XT:C5E4 CFA:1AB5 DLen: 20 STAGE: Dictionaries)
VOCABULARY ACREW-VOC
  $C5F2, $C4FA, $F451, $0000, $0000, $0000, $0000, $0000, $FFFF, $081A

( @C5F8-C607 XT:C605 CFA:83F8 DLen: 2 STAGE: Dictionaries)
81 OVERLAY ACREW-OV

( @C607-C616 XT:C610 CFA:224C DLen: 6 STAGE: Dictionaries)
: U-AC
 ACREW-OV (U-ASSCREW) ; 

( Data:Vocabulary @C616-C638 XT:C624 CFA:1AB5 DLen: 20 STAGE: Dictionaries)
VOCABULARY PFILE-VOC
  $C632, $C5E6, $F4FE, $0000, $0000, $0000, $0000, $0000, $FFFF, $081A

( @C638-C647 XT:C645 CFA:83F8 DLen: 2 STAGE: Dictionaries)
82 OVERLAY PFILE-OV

( @C647-C656 XT:C650 CFA:224C DLen: 6 STAGE: Dictionaries)
: U-PF
 PFILE-OV (U-PFILE) ; 

( Data:Vocabulary @C656-C67A XT:C666 CFA:1AB5 DLen: 20 STAGE: Dictionaries)
VOCABULARY SHIP-GR-VOC
  $C674, $C626, $F4ED, $0000, $0000, $0000, $0000, $0000, $FFFF, $081A

( @C67A-C68B XT:C689 CFA:83F8 DLen: 2 STAGE: Dictionaries)
83 OVERLAY SHIP-GR-OV

( @C68B-C69D XT:C697 CFA:224C DLen: 6 STAGE: Dictionaries)
: OV.MASS
 SHIP-GR-OV (.MASS) ; 

( @C69D-C6AE XT:C6A8 CFA:224C DLen: 6 STAGE: Dictionaries)
: OV.ACC
 SHIP-GR-OV (.ACC) ; 

( @C6AE-C6C0 XT:C6BA CFA:224C DLen: 6 STAGE: Dictionaries)
: OV.PODS
 SHIP-GR-OV (.PODS) ; 

( @C6C0-C6D2 XT:C6CC CFA:224C DLen: 6 STAGE: Dictionaries)
: OV.SHIP
 SHIP-GR-OV (.SHIP) ; 

( @C6D2-C6EA XT:C6E4 CFA:224C DLen: 6 STAGE: Dictionaries)
: OVBALANCEMESS
 SHIP-GR-OV (BALANCEMESS) ; 

( @C6EA-C6FE XT:C6F8 CFA:224C DLen: 6 STAGE: Dictionaries)
: OV.CONFIG
 SHIP-GR-OV (.CONFIG) ; 

( Data:Vocabulary @C6FE-C721 XT:C70D CFA:1AB5 DLen: 20 STAGE: Dictionaries)
VOCABULARY CONFIG-VOC
  $C71B, $C668, $F4AD, $0000, $0000, $0000, $0000, $0000, $FFFF, $081A

( @C721-C731 XT:C72F CFA:83F8 DLen: 2 STAGE: Dictionaries)
84 OVERLAY CONFIG-OV

( @C731-C740 XT:C73A CFA:224C DLen: 6 STAGE: Dictionaries)
: U-SC
 CONFIG-OV (U-CONFIG) ; 

( Data:Vocabulary @C740-C75F XT:C74B CFA:1AB5 DLen: 20 STAGE: Dictionaries)
VOCABULARY TD-VOC
  $C759, $C70F, $F4C1, $0000, $0000, $0000, $0000, $0000, $FFFF, $081A

( @C75F-C76B XT:C769 CFA:83F8 DLen: 2 STAGE: Dictionaries)
85 OVERLAY TD-OV

( @C76B-C77C XT:C776 CFA:224C DLen: 6 STAGE: Dictionaries)
: <TDART
 TD-OV <TDART ; 

( @C77C-C78B XT:C785 CFA:224C DLen: 6 STAGE: Dictionaries)
: U-TD
 TD-OV (U-DEPOT) ; 

( @C78B-C79A XT:C794 CFA:224C DLen: 6 STAGE: Dictionaries)
: TOSS
 TD-OV SELL-IT ; 

( @C79A-C7B1 XT:C7AB CFA:224C DLen: 6 STAGE: Dictionaries)
: KEY-ELEM-AMT
 TD-OV KEY-ELEM-AMT ; 

( Data:Variable @C7B1-C7BF XT:C7BD CFA:1D29 DLen: 2 STAGE: Dictionaries)
VARIABLE ?FANLYZ ( @C7BD=0)

( Data:Vocabulary @C7BF-C7DE XT:C7CA CFA:1AB5 DLen: 20 STAGE: Dictionaries)
VOCABULARY OP-VOC
  $C7D8, $C74D, $F4F2, $0000, $0000, $0000, $0000, $0000, $FFFF, $081A

( @C7DE-C7EA XT:C7E8 CFA:83F8 DLen: 2 STAGE: Dictionaries)
110 OVERLAY OP-OV

( @C7EA-C7F9 XT:C7F3 CFA:224C DLen: 6 STAGE: Dictionaries)
: U-OP
 OP-OV (U-OP) ; 

( Data:Vocabulary @C7F9-C818 XT:C804 CFA:1AB5 DLen: 20 STAGE: Dictionaries)
VOCABULARY SETTER
  $C812, $C7CC, $F477, $0000, $0000, $0000, $0000, $0000, $FFFF, $081A

( @C818-C827 XT:C825 CFA:83F8 DLen: 2 STAGE: Dictionaries)
121 OVERLAY PLSET-OV

( @C827-C83A XT:C834 CFA:224C DLen: 6 STAGE: Dictionaries)
: SET-PLAN__
 PLSET-OV PLAN-RULes ; 

( @C83A-C849 XT:C843 CFA:224C DLen: 6 STAGE: Dictionaries)
: SETC
 PLSET-OV SETC ; 

( Data:Vocabulary @C849-C86B XT:C857 CFA:1AB5 DLen: 20 STAGE: Dictionaries)
VOCABULARY DPART-VOC
  $C865, $C806, $F485, $0000, $0000, $0000, $0000, $0000, $FFFF, $081A

( @C86B-C87A XT:C878 CFA:83F8 DLen: 2 STAGE: Dictionaries)
66 OVERLAY DPART-OV

( @C87A-C88B XT:C885 CFA:224C DLen: 6 STAGE: Dictionaries)
: DEPART
 DPART-OV DEPART ; 

( Data:Vocabulary @C88B-C8AB XT:C897 CFA:1AB5 DLen: 20 STAGE: Dictionaries)
VOCABULARY DAMAGE-___
  $C8A5, $C859, $F517, $0000, $0000, $0000, $0000, $0000, $FFFF, $081A

( @C8AB-C8B9 XT:C8B7 CFA:83F8 DLen: 2 STAGE: Dictionaries)
133 OVERLAY DAMAGE-__

( @C8B9-C8CB XT:C8C3 CFA:224C DLen: 8 STAGE: Dictionaries)
: DO-DA____
 DAMAGE-__ DO-DAMA__ SAVE-OVerlay ; 

( Data:Vocabulary @C8CB-C8ED XT:C8D9 CFA:1AB5 DLen: 20 STAGE: Dictionaries)
VOCABULARY COMBAT-VO_
  $C8E7, $C899, $F4E1, $0000, $0000, $0000, $0000, $0000, $FFFF, $081A

( @C8ED-C8FC XT:C8FA CFA:83F8 DLen: 2 STAGE: Dictionaries)
132 OVERLAY COMBAT-O_

( @C8FC-C90C XT:C904 CFA:224C DLen: 8 STAGE: Dictionaries)
: (WA__
 COMBAT-O_ WAR SAVE-OVerlay ; 

( @C90C-C922 XT:C914 CFA:224C DLen: 14 STAGE: Dictionaries)
: (CO___
 COMBAT-O_ *SHIP >C+S COMBAT ICLOSE SAVE-OVerlay ; 

( @C922-C930 XT:C92A CFA:224C DLen: 6 STAGE: Dictionaries)
: CSC___
 COMBAT-O_ SET-SCALE ; 

( @C930-C940 XT:C938 CFA:224C DLen: 8 STAGE: Dictionaries)
: C&C
 COMBAT-O_ CLEAR-CO____ SAVE-OVerlay ; 

( @C940-C950 XT:C948 CFA:224C DLen: 8 STAGE: Dictionaries)
: COM___
 ' (CO___ ( $C914 ) MODULE ; 

( @C950-C960 XT:C958 CFA:224C DLen: 8 STAGE: Dictionaries)
: WAR
 ' (WA__ ( $C904 ) MODULE ; 

( Data:Variable @C960-C96F XT:C96D CFA:1D29 DLen: 2 STAGE: Dictionaries)
VARIABLE ?CALLING ( @C96D=1)

( Data:Vocabulary @C96F-C991 XT:C97D CFA:1AB5 DLen: 20 STAGE: Dictionaries)
VOCABULARY HMISC-VOC
  $C98B, $C8DB, $F50C, $0000, $0000, $0000, $0000, $0000, $FFFF, $081A

( @C991-C9A0 XT:C99E CFA:83F8 DLen: 2 STAGE: Dictionaries)
74 OVERLAY HMISC-OV

( @C9A0-C9AE XT:C9A8 CFA:224C DLen: 6 STAGE: Dictionaries)
: UFM
 HMISC-OV UF-MESS ; 

( @C9AE-C9BC XT:C9B6 CFA:224C DLen: 6 STAGE: Dictionaries)
: USM
 HMISC-OV US-MESS ; 

( @C9BC-C9CA XT:C9C4 CFA:224C DLen: 6 STAGE: Dictionaries)
: NFM
 HMISC-OV NF-MESS ; 

( @C9CA-C9D8 XT:C9D2 CFA:224C DLen: 6 STAGE: Dictionaries)
: NSM
 HMISC-OV NS-MESS ; 

( @C9D8-C9E6 XT:C9E0 CFA:224C DLen: 6 STAGE: Dictionaries)
: .EX
 HMISC-OV .EX ; 

( @C9E6-C9F5 XT:C9EF CFA:224C DLen: 6 STAGE: Dictionaries)
: DMSG
 HMISC-OV DMSG ; 

( @C9F5-CA04 XT:C9FE CFA:224C DLen: 6 STAGE: Dictionaries)
: D-UP
 HMISC-OV DISP-SETUP ; 

( @CA04-CA17 XT:CA11 CFA:224C DLen: 6 STAGE: Dictionaries)
: DO-FLARE
 HMISC-OV DO-FLARE ; 

( @CA17-CA26 XT:CA20 CFA:224C DLen: 6 STAGE: Dictionaries)
: ?PRL
 HMISC-OV ?PRL ; 

( @CA26-CA35 XT:CA2F CFA:224C DLen: 6 STAGE: Dictionaries)
: OSET
 HMISC-OV OSET ; 

( @CA35-CA47 XT:CA3F CFA:224C DLen: 8 STAGE: Dictionaries)
: ORBUP
 ' OSET ( $CA2F ) MODULE ; 

( @CA47-CA73 XT:CA55 CFA:224C DLen: 30 STAGE: Dictionaries)
: TRAK-ENCS
 STAR-HR @ TRAK-HR @ - ABS 2 23 WITHIN IF 
  HMISC-OV TRAK-E 
 THEN 
 ; 

( @CA73-CA82 XT:CA7C CFA:224C DLen: 6 STAGE: Dictionaries)
: HEAT
 HMISC-OV HEAT ; 

( @CA82-CA92 XT:CA8C CFA:224C DLen: 6 STAGE: Dictionaries)
: !'EXT
 HMISC-OV (!'EXT) ; 

( @CA92-CAA3 XT:CA9D CFA:224C DLen: 6 STAGE: Dictionaries)
: (CTXT)
 HMISC-OV (CTXT) ; 

( @CAA3-CABD XT:CAB5 CFA:224C DLen: 8 STAGE: Dictionaries)
: CONTEXT-CASES
 ' (CTXT) ( $CA9D ) MODULE ; 

( @CABD-CACF XT:CAC9 CFA:224C DLen: 6 STAGE: Dictionaries)
: +A-VESS
 HMISC-OV +A-VESS ; 

( @CACF-CAE6 XT:CADE CFA:224C DLen: 8 STAGE: Dictionaries)
: MTRAK-ENCS
 ' TRAK-ENCS ( $CA55 ) MODULE ; 

( @CAE6-CAF8 XT:CAF0 CFA:224C DLen: 8 STAGE: Dictionaries)
: MHEAT
 ' HEAT ( $CA7C ) MODULE ; 

( Data:Vocabulary @CAF8-CB18 XT:CB04 CFA:1AB5 DLen: 20 STAGE: Dictionaries)
VOCABULARY NAV-VOC
  $CB12, $C97F, $F4EA, $0000, $0000, $0000, $0000, $0000, $FFFF, $081A

( @CB18-CB24 XT:CB22 CFA:83F8 DLen: 2 STAGE: Dictionaries)
103 OVERLAY NAV-O_

( @CB24-CB34 XT:CB2E CFA:224C DLen: 6 STAGE: Dictionaries)
: OV/(D______
 NAV-O_ (/(DIS)ARM) ; 

( @CB34-CB44 XT:CB3E CFA:224C DLen: 6 STAGE: Dictionaries)
: OV/(U________
 NAV-O_ (/(UD)SHIELD) ; 

( @CB44-CB5C XT:CB4E CFA:224C DLen: 14 STAGE: Dictionaries)
: OV-SH____
 CTINIT NAV-O_ *SHIP >C+S >DOWN-SHIELD ICLOSE ; 

( @CB5C-CB74 XT:CB66 CFA:224C DLen: 14 STAGE: Dictionaries)
: OV-AR_
 CTINIT NAV-O_ *SHIP >C+S >DISARM ICLOSE ; 

( Data:Vocabulary @CB74-CB94 XT:CB80 CFA:1AB5 DLen: 20 STAGE: Dictionaries)
VOCABULARY SHPMOV-___
  $CB8E, $CB06, $F1FA, $0000, $0000, $0000, $0000, $0000, $FFFF, $081A

( @CB94-CBA2 XT:CBA0 CFA:83F8 DLen: 2 STAGE: Dictionaries)
106 OVERLAY SHPMOV-__

( @CBA2-CBB2 XT:CBAA CFA:224C DLen: 8 STAGE: Dictionaries)
: FLY
 SHPMOV-__ FLY SAVE-OVerlay ; 

( @CBB2-CBFF XT:CBBF CFA:224C DLen: 64 STAGE: Dictionaries)
: MANEUVER
 SHPMOV-__ ' ?PRL ( $CA20 ) MODULE IF 
  JMPSHP 
 ELSE 
  CHK-MOV IF 
   .AUXSYS SKIP2NE__ @ IF 
    UNNEST 
   ELSE 
    $F0AB $EF37 $F003 DOTASKS 
   THEN 
  THEN 
  FTRIG OFF 
 THEN 
 .SORD SAVE-OVerlay ; 

( @CBFF-CC10 XT:CC0A CFA:224C DLen: 6 STAGE: Dictionaries)
: UNNEST
 SHPMOV-__ UNNEST ; 

( @CC10-CC20 XT:CC1A CFA:224C DLen: 6 STAGE: Dictionaries)
: >NEST
 SHPMOV-__ +NEST ; 

( @CC20-CC33 XT:CC2D CFA:224C DLen: 6 STAGE: Dictionaries)
: GET-HAUX
 SHPMOV-__ (GET-AU__ ; 

( @CC33-CC44 XT:CC3E CFA:224C DLen: 6 STAGE: Dictionaries)
: OV.MVS
 SHPMOV-__ .MVS ; 

( @CC44-CC57 XT:CC4F CFA:224C DLen: 8 STAGE: Dictionaries)
: S>PORT
 SHPMOV-__ COME-HI____ SAVE-OVerlay ; 

( @CC57-CC67 XT:CC61 CFA:224C DLen: 6 STAGE: Dictionaries)
: USE-E
 SHPMOV-__ USE-E ; 

( @CC67-CC7A XT:CC72 CFA:224C DLen: 8 STAGE: Dictionaries)
: MUSE-E
 ' USE-E ( $CC61 ) MODULE ; 

( Data:Vocabulary @CC7A-CC97 XT:CC83 CFA:1AB5 DLen: 20 STAGE: Dictionaries)
VOCABULARY VITA
  $CC91, $CB82, $F496, $0000, $0000, $0000, $0000, $0000, $FFFF, $081A

( @CC97-CCA5 XT:CCA3 CFA:83F8 DLen: 2 STAGE: Dictionaries)
88 OVERLAY VITA-OV

( @CCA5-CCB3 XT:CCAD CFA:224C DLen: 6 STAGE: Dictionaries)
: DIO
 VITA-OV DIO ; 

( Data:Vocabulary @CCB3-CCD3 XT:CCBF CFA:1AB5 DLen: 20 STAGE: Dictionaries)
VOCABULARY HIPARMS
  $CCCD, $CC85, $F4EE, $0000, $0000, $0000, $0000, $0000, $FFFF, $081A

( @CCD3-CCDF XT:CCDD CFA:83F8 DLen: 2 STAGE: Dictionaries)
89 OVERLAY HP-OV

( @CCDF-CCF2 XT:CCEC CFA:224C DLen: 6 STAGE: Dictionaries)
: C+OPARMS
 HP-OV C+OPARMS ; 

( @CCF2-CD06 XT:CCFA CFA:224C DLen: 12 STAGE: Dictionaries)
: BIO
 DIO ' SETC ( $C843 ) MODULE C+OPARMS ; 

( Data:Vocabulary @CD06-CD26 XT:CD12 CFA:1AB5 DLen: 20 STAGE: Dictionaries)
VOCABULARY LOPARMS
  $CD20, $CCC1, $F4F2, $0000, $0000, $0000, $0000, $0000, $FFFF, $081A

( @CD26-CD32 XT:CD30 CFA:83F8 DLen: 2 STAGE: Dictionaries)
90 OVERLAY LP-OV

( @CD32-CD46 XT:CD40 CFA:224C DLen: 6 STAGE: Dictionaries)
: OTHER-PAR__
 LP-OV SPEC.PARM_ ; 

( Data:Vocabulary @CD46-CD64 XT:CD50 CFA:1AB5 DLen: 20 STAGE: Dictionaries)
VOCABULARY SENTS
  $CD5E, $CD14, $F344, $0000, $0000, $0000, $0000, $0000, $FFFF, $081A

( @CD64-CD72 XT:CD70 CFA:83F8 DLen: 2 STAGE: Dictionaries)
91 OVERLAY SENT-OV

( @CD72-CD82 XT:CD7C CFA:224C DLen: 6 STAGE: Dictionaries)
: ?TALK
 SENT-OV ?TALK ; 

( @CD82-CD92 XT:CD8C CFA:224C DLen: 6 STAGE: Dictionaries)
: SAYIT
 SENT-OV CLASS>DE__ ; 

( Data:Vocabulary @CD92-CDB3 XT:CD9F CFA:1AB5 DLen: 20 STAGE: Dictionaries)
VOCABULARY MAPS-VOC
  $CDAD, $CD52, $F543, $0000, $0000, $0000, $0000, $0000, $FFFF, $081A

( @CDB3-CDBF XT:CDBD CFA:83F8 DLen: 2 STAGE: Dictionaries)
122 OVERLAY MAPS-__

( @CDBF-CDCE XT:CDC8 CFA:224C DLen: 6 STAGE: Dictionaries)
: MAPS
 MAPS-__ MAPS ; 

( @CDCE-CDDE XT:CDD8 CFA:224C DLen: 6 STAGE: Dictionaries)
: .STOR_
 MAPS-__ .STORM ; 

( @CDDE-CDEE XT:CDE8 CFA:224C DLen: 6 STAGE: Dictionaries)
: (2X2)
 MAPS-__ 2X2CONTOUR ; 

( @CDEE-CE00 XT:CDF8 CFA:224C DLen: 8 STAGE: Dictionaries)
: 2X2CO_____
 ' (2X2) ( $CDE8 ) MODULE ; 

( @CE00-CE10 XT:CE0A CFA:224C DLen: 6 STAGE: Dictionaries)
: (4X4)
 MAPS-__ 4X4CONTOUR ; 

( @CE10-CE22 XT:CE1A CFA:224C DLen: 8 STAGE: Dictionaries)
: 4X4CO_____
 ' (4X4) ( $CE0A ) MODULE ; 

( @CE22-CE32 XT:CE2C CFA:224C DLen: 6 STAGE: Dictionaries)
: (8X8)
 MAPS-__ 8X8CONTOUR ; 

( @CE32-CE44 XT:CE3C CFA:224C DLen: 8 STAGE: Dictionaries)
: 8X8CO_____
 ' (8X8) ( $CE2C ) MODULE ; 

( Data:Vocabulary @CE44-CE63 XT:CE4F CFA:1AB5 DLen: 20 STAGE: Dictionaries)
VOCABULARY SEEDER
  $CE5D, $CDA1, $F4CA, $0000, $0000, $0000, $0000, $0000, $FFFF, $081A

( @CE63-CE71 XT:CE6F CFA:83F8 DLen: 2 STAGE: Dictionaries)
95 OVERLAY SEED-OV

( @CE71-CE82 XT:CE7C CFA:224C DLen: 6 STAGE: Dictionaries)
: POPULA
 SEED-OV POPULA ; 

( Data:Vocabulary @CE82-CEA3 XT:CE8F CFA:1AB5 DLen: 20 STAGE: Dictionaries)
VOCABULARY ICON-VOC
  $CE9D, $CE51, $F496, $0000, $0000, $0000, $0000, $0000, $FFFF, $081A

( @CEA3-CEB6 XT:CEB4 CFA:83F8 DLen: 2 STAGE: Dictionaries)
96 OVERLAY LISTICONS-OV

( @CEB6-CEC6 XT:CEC0 CFA:224C DLen: 6 STAGE: Dictionaries)
: ICONS
 LISTICONS-OV ICONS ; 

( Data:Vocabulary @CEC6-CEE4 XT:CED0 CFA:1AB5 DLen: 20 STAGE: Dictionaries)
VOCABULARY ITEMS
  $CEDE, $CE91, $F490, $0000, $0000, $0000, $0000, $0000, $FFFF, $081A

( @CEE4-CEF3 XT:CEF1 CFA:83F8 DLen: 2 STAGE: Dictionaries)
111 OVERLAY ITEMS-OV

( @CEF3-CF04 XT:CEFE CFA:224C DLen: 6 STAGE: Dictionaries)
: /ITEMS
 ITEMS-OV (/ITEMS) ; 

( @CF04-CF16 XT:CF10 CFA:224C DLen: 6 STAGE: Dictionaries)
: >DEBRIS
 ITEMS-OV >DEBRIS ; 

( Data:Vocabulary @CF16-CF37 XT:CF23 CFA:1AB5 DLen: 20 STAGE: Dictionaries)
VOCABULARY MOVE-VOC
  $CF31, $CED2, $F41F, $0000, $0000, $0000, $0000, $0000, $FFFF, $081A

( @CF37-CF45 XT:CF43 CFA:83F8 DLen: 2 STAGE: Dictionaries)
97 OVERLAY MOVE-OV

( @CF45-CF56 XT:CF50 CFA:224C DLen: 6 STAGE: Dictionaries)
: TVMOVE
 MOVE-OV TV-MOVE ; 

( @CF56-CF68 XT:CF62 CFA:224C DLen: 6 STAGE: Dictionaries)
: ?POPULA
 MOVE-OV ?POPULA ; 

( @CF68-CF77 XT:CF71 CFA:224C DLen: 6 STAGE: Dictionaries)
: !E/M
 MOVE-OV SET-SPEED ; 

( Data:Vocabulary @CF77-CF99 XT:CF85 CFA:1AB5 DLen: 20 STAGE: Dictionaries)
VOCABULARY STORM-VOC
  $CF93, $CF25, $F4BC, $0000, $0000, $0000, $0000, $0000, $FFFF, $081A

( @CF99-CFA8 XT:CFA6 CFA:83F8 DLen: 2 STAGE: Dictionaries)
124 OVERLAY STORM-OV

( @CFA8-CFBB XT:CFB5 CFA:224C DLen: 6 STAGE: Dictionaries)
: DO.STORM
 STORM-OV (DO.STORM_ ; 

( @CFBB-CFCC XT:CFC6 CFA:224C DLen: 6 STAGE: Dictionaries)
: INJURE
 STORM-OV INJURE-PL____ ; 

( Data:Vocabulary @CFCC-CFE9 XT:CFD5 CFA:1AB5 DLen: 20 STAGE: Dictionaries)
VOCABULARY T.V.
  $CFE3, $CF87, $F46B, $0000, $0000, $0000, $0000, $0000, $FFFF, $081A

( @CFE9-CFF5 XT:CFF3 CFA:83F8 DLen: 2 STAGE: Dictionaries)
92 OVERLAY TV-OV

( @CFF5-D007 XT:D001 CFA:224C DLen: 6 STAGE: Dictionaries)
: TV-DISP
 TV-OV TV-DISP ; 

( @D007-D019 XT:D013 CFA:224C DLen: 6 STAGE: Dictionaries)
: (TVSET)
 TV-OV TV-SETUP ; 

( @D019-D02B XT:D025 CFA:224C DLen: 6 STAGE: Dictionaries)
: (CLEAN)
 TV-OV TV-CLEANU_ ; 

( @D02B-D03D XT:D037 CFA:224C DLen: 6 STAGE: Dictionaries)
: (HEAVE)
 TV-OV HEAVEHO ; 

( @D03D-D051 XT:D04B CFA:224C DLen: 6 STAGE: Dictionaries)
: (WEAPONS)
 TV-OV DO.WEAPON_ ; 

( @D051-D062 XT:D05C CFA:224C DLen: 6 STAGE: Dictionaries)
: (TALK)
 TV-OV WALK&TALK ; 

( @D062-D076 XT:D06E CFA:224C DLen: 8 STAGE: Dictionaries)
: HEAVEHO
 ' (HEAVE) ( $D037 ) MODULE ; 

( Data:Vocabulary @D076-D096 XT:D082 CFA:1AB5 DLen: 20 STAGE: Dictionaries)
VOCABULARY BEHAVIO_
  $D090, $CFD7, $F4E0, $0000, $0000, $0000, $0000, $0000, $FFFF, $081A

( @D096-D0A6 XT:D0A4 CFA:83F8 DLen: 2 STAGE: Dictionaries)
115 OVERLAY BEHAVE-OV

( @D0A6-D0B8 XT:D0B2 CFA:224C DLen: 6 STAGE: Dictionaries)
: TVTASKS
 BEHAVE-OV TV-TASKS ; 

( @D0B8-D0C5 XT:D0BF CFA:224C DLen: 6 STAGE: Dictionaries)
: TV
 BEHAVE-OV TV ; 

( @D0C5-D0D8 XT:D0D2 CFA:224C DLen: 6 STAGE: Dictionaries)
: (SIMULA)
 BEHAVE-OV SIMULATE ; 

( @D0D8-D0ED XT:D0E5 CFA:224C DLen: 8 STAGE: Dictionaries)
: SIMULATE
 ' (SIMULA) ( $D0D2 ) MODULE ; 

( Data:Vocabulary @D0ED-D10D XT:D0F9 CFA:1AB5 DLen: 20 STAGE: Dictionaries)
VOCABULARY STP-VOC
  $D107, $D084, $F4ED, $0000, $0000, $0000, $0000, $0000, $FFFF, $081A

( @D10D-D11A XT:D118 CFA:83F8 DLen: 2 STAGE: Dictionaries)
139 OVERLAY STP-OV

( @D11A-D12B XT:D125 CFA:224C DLen: 6 STAGE: Dictionaries)
: SECURE
 STP-OV STP ; 

( @D12B-D13C XT:D136 CFA:224C DLen: 6 STAGE: Dictionaries)
: SIC'EM
 STP-OV SIC'EM ; 

( @D13C-D14B XT:D145 CFA:224C DLen: 6 STAGE: Dictionaries)
: 2NDS
 STP-OV 2NDS ; 

( Data:Vocabulary @D14B-D16E XT:D15A CFA:1AB5 DLen: 20 STAGE: Dictionaries)
VOCABULARY LAUNCH-VOC
  $D168, $D0FB, $F44B, $0000, $0000, $0000, $0000, $0000, $FFFF, $081A

( @D16E-D17A XT:D178 CFA:83F8 DLen: 2 STAGE: Dictionaries)
108 OVERLAY LAUNC____

( @D17A-D18C XT:D184 CFA:224C DLen: 8 STAGE: Dictionaries)
: OVCOU______
 LAUNC____ &LAUNCH SAVE-OVerlay ; 

( @D18C-D19E XT:D196 CFA:224C DLen: 8 STAGE: Dictionaries)
: OVBAC_
 LAUNC____ &RETURN SAVE-OVerlay ; 

( @D19E-D1AE XT:D1A8 CFA:224C DLen: 6 STAGE: Dictionaries)
: .AIRL___
 LAUNC____ .AIRLOCK ; 

( Data:Vocabulary @D1AE-D1CE XT:D1BA CFA:1AB5 DLen: 20 STAGE: Dictionaries)
VOCABULARY CAP-VOC
  $D1C8, $D15C, $F42C, $0000, $0000, $0000, $0000, $0000, $FFFF, $081A

( @D1CE-D1DA XT:D1D8 CFA:83F8 DLen: 2 STAGE: Dictionaries)
101 OVERLAY CAP-O_

( @D1DA-D1EA XT:D1E4 CFA:224C DLen: 6 STAGE: Dictionaries)
: OV/IT___
 CAP-O_ (/ITEMS) ; 

( @D1EA-D1FA XT:D1F4 CFA:224C DLen: 6 STAGE: Dictionaries)
: OV/CA______
 CAP-O_ (/CAPT-LOG) ; 

( @D1FA-D20A XT:D204 CFA:224C DLen: 6 STAGE: Dictionaries)
: OV/LA_________
 CAP-O_ (/LAUNCH/LAND) ; 

( @D20A-D21A XT:D214 CFA:224C DLen: 6 STAGE: Dictionaries)
: OV>DE_____
 CAP-O_ >DESCEND ; 

( @D21A-D22A XT:D224 CFA:224C DLen: 6 STAGE: Dictionaries)
: OV/LO______
 CAP-O_ (/LOG-PLAN) ; 

( Data:Vocabulary @D22A-D24A XT:D236 CFA:1AB5 DLen: 20 STAGE: Dictionaries)
VOCABULARY DOC-VOC
  $D244, $D1BC, $F4E3, $0000, $0000, $0000, $0000, $0000, $FFFF, $081A

( @D24A-D257 XT:D255 CFA:83F8 DLen: 2 STAGE: Dictionaries)
99 OVERLAY DOC-OV

( @D257-D26C XT:D266 CFA:224C DLen: 6 STAGE: Dictionaries)
: OV/EXAMINE
 DOC-OV (/EXAMINE) ; 

( @D26C-D27F XT:D279 CFA:224C DLen: 6 STAGE: Dictionaries)
: OV/TREAT
 DOC-OV (/TREAT) ; 

( Data:Vocabulary @D27F-D29E XT:D28A CFA:1AB5 DLen: 20 STAGE: Dictionaries)
VOCABULARY AN-VOC
  $D298, $D238, $F46A, $0000, $0000, $0000, $0000, $0000, $FFFF, $081A

( @D29E-D2AA XT:D2A8 CFA:83F8 DLen: 2 STAGE: Dictionaries)
107 OVERLAY AN-OV

( @D2AA-D2C0 XT:D2BA CFA:224C DLen: 6 STAGE: Dictionaries)
: OV/ANALYSIS
 AN-OV (/ANALYSIS) ; 

( Data:Vocabulary @D2C0-D2DD XT:D2C9 CFA:1AB5 DLen: 20 STAGE: Dictionaries)
VOCABULARY *MAP
  $D2D7, $D28C, $ED62, $0000, $0000, $0000, $0000, $0000, $FFFF, $081A

( @D2DD-D2EB XT:D2E9 CFA:83F8 DLen: 2 STAGE: Dictionaries)
105 OVERLAY *MAP-OV

( @D2EB-D306 XT:D2FA CFA:224C DLen: 12 STAGE: Dictionaries)
: OV/STARMAP
 *MAP-OV (/STARMAP) FTRIG OFF SAVE-OVerlay ; 

( Data:Vocabulary @D306-D327 XT:D313 CFA:1AB5 DLen: 20 STAGE: Dictionaries)
VOCABULARY LAND-VOC
  $D321, $D2CB, $F4EB, $0000, $0000, $0000, $0000, $0000, $FFFF, $081A

( @D327-D335 XT:D333 CFA:83F8 DLen: 2 STAGE: Dictionaries)
134 OVERLAY LAND-OV

( @D335-D348 XT:D342 CFA:224C DLen: 6 STAGE: Dictionaries)
: TRY-LAND
 LAND-OV ?LAND ; 

( @D348-D35D XT:D357 CFA:224C DLen: 6 STAGE: Dictionaries)
: TRY-LAUNCH
 LAND-OV ?LAUNCH ; 

( Data:Vocabulary @D35D-D37D XT:D369 CFA:1AB5 DLen: 20 STAGE: Dictionaries)
VOCABULARY BTN-VOC
  $D377, $D315, $F4AE, $0000, $0000, $0000, $0000, $0000, $FFFF, $081A

( @D37D-D38A XT:D388 CFA:83F8 DLen: 2 STAGE: Dictionaries)
104 OVERLAY BTN-OV

( @D38A-D39A XT:D394 CFA:224C DLen: 6 STAGE: Dictionaries)
: OVFLT
 BTN-OV >FLT ; 

( Data:Vocabulary @D39A-D3BD XT:D3A9 CFA:1AB5 DLen: 20 STAGE: Dictionaries)
VOCABULARY CHKFLT-VOC
  $D3B7, $D36B, $F4F4, $0000, $0000, $0000, $0000, $0000, $FFFF, $081A

( @D3BD-D3CD XT:D3CB CFA:83F8 DLen: 2 STAGE: Dictionaries)
70 OVERLAY CHKFLT-OV

( @D3CD-D3E2 XT:D3DC CFA:224C DLen: 6 STAGE: Dictionaries)
: ?FLIGHT-OK
 CHKFLT-OV ?CAN-LEAVE ; 

( Data:Vocabulary @D3E2-D401 XT:D3ED CFA:1AB5 DLen: 20 STAGE: Dictionaries)
VOCABULARY PM-VOC
  $D3FB, $D3AB, $F4DA, $0000, $0000, $0000, $0000, $0000, $FFFF, $081A

( @D401-D40D XT:D40B CFA:83F8 DLen: 2 STAGE: Dictionaries)
87 OVERLAY PM-OV

( @D40D-D41D XT:D417 CFA:224C DLen: 6 STAGE: Dictionaries)
: PORTM___
 PM-OV WALKIES ; 

( Data:Vocabulary @D41D-D43A XT:D426 CFA:1AB5 DLen: 20 STAGE: Dictionaries)
VOCABULARY GAME
  $D434, $D3EF, $F52F, $0000, $0000, $0000, $0000, $0000, $FFFF, $081A

( @D43A-D447 XT:D445 CFA:83F8 DLen: 2 STAGE: Dictionaries)
120 OVERLAY GAME-O_

( @D447-D458 XT:D452 CFA:224C DLen: 6 STAGE: Dictionaries)
: STARTG___
 GAME-O_ START.____ ; 

( @D458-D46B XT:D463 CFA:224C DLen: 8 STAGE: Dictionaries)
: GAMEOP_
 GAME-O_ GAMEOP_ SAVE-OVerlay ; 

( @D46B-D47E XT:D476 CFA:224C DLen: 8 STAGE: Dictionaries)
: GAMEOP_
 ' GAMEOP_ ( $D463 ) MODULE ; 

( @D47E-D4A7 XT:D489 CFA:224C DLen: 30 STAGE: Dictionaries)
: LET-THERE-BE-STARFLIGHT
 ESC-EN OFF STARTER RELAXTI__ ON MOUNTA LDFONTS :TIMESTamp @ TIMESTA__ ! RELAXTI__ 
 OFF STARTG___ ; 

